Archive member included because of file (symbol)

c:/program files/microchip/xc32/v1.21/bin/../lib/gcc/pic32mx/4.5.2/../../../../pic32mx/lib/size\libmchp_peripheral.a(open_core_timer_lib.o)
                              build/default/debug/_ext/365611741/system_services.o (OpenCoreTimer)
c:/program files/microchip/xc32/v1.21/bin/../lib/gcc/pic32mx/4.5.2/../../../../pic32mx/lib/size\libmchp_peripheral_32MX795F512L.a(eth_ack_packet_lib.o)
                              build/default/debug/_ext/427700826/eth_pic32_int_mac.o (EthRxAcknowledgeBuffer)
c:/program files/microchip/xc32/v1.21/bin/../lib/gcc/pic32mx/4.5.2/../../../../pic32mx/lib/size\libmchp_peripheral_32MX795F512L.a(eth_close_lib.o)
                              build/default/debug/_ext/427700826/eth_pic32_int_mac.o (EthClose)
c:/program files/microchip/xc32/v1.21/bin/../lib/gcc/pic32mx/4.5.2/../../../../pic32mx/lib/size\libmchp_peripheral_32MX795F512L.a(eth_descriptors_add_lib.o)
                              build/default/debug/_ext/427700826/eth_pic32_int_mac.o (EthDescriptorsPoolAdd)
c:/program files/microchip/xc32/v1.21/bin/../lib/gcc/pic32mx/4.5.2/../../../../pic32mx/lib/size\libmchp_peripheral_32MX795F512L.a(eth_descriptors_remove_lib.o)
                              build/default/debug/_ext/427700826/eth_pic32_int_mac.o (EthDescriptorsPoolCleanUp)
c:/program files/microchip/xc32/v1.21/bin/../lib/gcc/pic32mx/4.5.2/../../../../pic32mx/lib/size\libmchp_peripheral_32MX795F512L.a(eth_events_lib.o)
                              build/default/debug/_ext/427700826/mac_events_pic32.o (EthEventsEnableSet)
c:/program files/microchip/xc32/v1.21/bin/../lib/gcc/pic32mx/4.5.2/../../../../pic32mx/lib/size\libmchp_peripheral_32MX795F512L.a(eth_init_lib.o)
                              build/default/debug/_ext/427700826/eth_pic32_int_mac.o (EthInit)
c:/program files/microchip/xc32/v1.21/bin/../lib/gcc/pic32mx/4.5.2/../../../../pic32mx/lib/size\libmchp_peripheral_32MX795F512L.a(eth_mac_open_lib.o)
                              build/default/debug/_ext/427700826/eth_pic32_int_mac.o (EthMACOpen)
c:/program files/microchip/xc32/v1.21/bin/../lib/gcc/pic32mx/4.5.2/../../../../pic32mx/lib/size\libmchp_peripheral_32MX795F512L.a(eth_mac_set_address_max_lib.o)
                              build/default/debug/_ext/427700826/eth_pic32_int_mac.o (EthMACSetAddress)
c:/program files/microchip/xc32/v1.21/bin/../lib/gcc/pic32mx/4.5.2/../../../../pic32mx/lib/size\libmchp_peripheral_32MX795F512L.a(eth_rx_buffers_append_lib.o)
                              build/default/debug/_ext/427700826/eth_pic32_int_mac.o (EthRxBuffersAppend)
c:/program files/microchip/xc32/v1.21/bin/../lib/gcc/pic32mx/4.5.2/../../../../pic32mx/lib/size\libmchp_peripheral_32MX795F512L.a(eth_rx_filters_lib.o)
                              build/default/debug/_ext/427700826/eth_pic32_int_mac.o (EthRxFiltersSet)
c:/program files/microchip/xc32/v1.21/bin/../lib/gcc/pic32mx/4.5.2/../../../../pic32mx/lib/size\libmchp_peripheral_32MX795F512L.a(eth_rx_get_packet_lib.o)
                              build/default/debug/_ext/427700826/eth_pic32_int_mac.o (EthRxGetBuffer)
c:/program files/microchip/xc32/v1.21/bin/../lib/gcc/pic32mx/4.5.2/../../../../pic32mx/lib/size\libmchp_peripheral_32MX795F512L.a(eth_rx_set_buffer_size_lib.o)
                              build/default/debug/_ext/427700826/eth_pic32_int_mac.o (EthRxSetBufferSize)
c:/program files/microchip/xc32/v1.21/bin/../lib/gcc/pic32mx/4.5.2/../../../../pic32mx/lib/size\libmchp_peripheral_32MX795F512L.a(eth_tx_packet_lib.o)
                              build/default/debug/_ext/427700826/eth_pic32_int_mac.o (EthTxSendBuffer)
c:/program files/microchip/xc32/v1.21/bin/../lib/gcc/pic32mx/4.5.2/../../../../pic32mx/lib/size\libmchp_peripheral_32MX795F512L.a(_eth_append_busy_list_lib.o)
                              c:/program files/microchip/xc32/v1.21/bin/../lib/gcc/pic32mx/4.5.2/../../../../pic32mx/lib/size\libmchp_peripheral_32MX795F512L.a(eth_ack_packet_lib.o) (_EthAppendBusyList)
c:/program files/microchip/xc32/v1.21/bin/../lib/gcc/pic32mx/4.5.2/../../../../pic32mx/lib/size\libmchp_peripheral_32MX795F512L.a(eth_miim_access.o)
                              build/default/debug/_ext/427700826/eth_pic32_ext_phy.o (EthMIIMReadStart)
c:/program files/microchip/xc32/v1.21/bin/../lib/gcc/pic32mx/4.5.2/../../../../pic32mx/lib/size\libmchp_peripheral_32MX795F512L.a(soft_reset_lib.o)
                              build/default/debug/_ext/365611741/system_services.o (SoftReset)
c:/program files/microchip/xc32/v1.21/bin/../lib/gcc/pic32mx/4.5.2/../../../../pic32mx/lib/size\libmchp_peripheral_32MX795F512L.a(pcache.o)
                              build/default/debug/_ext/365611741/system_services.o (CheKseg0CacheOn)
c:/program files/microchip/xc32/v1.21/bin/../lib/gcc/pic32mx/4.5.2/../../../../pic32mx/lib/size\libmchp_peripheral_32MX795F512L.a(int_disable_interrupts_lib.o)
                              build/default/debug/_ext/365611741/system_services.o (INTDisableInterrupts)
c:/program files/microchip/xc32/v1.21/bin/../lib/gcc/pic32mx/4.5.2/../../../../pic32mx/lib/size\libmchp_peripheral_32MX795F512L.a(int_restore_interrupts_lib.o)
                              build/default/debug/_ext/365611741/system_services.o (INTRestoreInterrupts)
c:/program files/microchip/xc32/v1.21/bin/../lib/gcc/pic32mx/4.5.2/../../../../pic32mx/lib/size\libmchp_peripheral_32MX795F512L.a(int_enable_mv_int_lib.o)
                              build/default/debug/_ext/365611741/system_services.o (INTEnableSystemMultiVectoredInt)
c:/program files/microchip/xc32/v1.21/bin/../lib/gcc/pic32mx/4.5.2/../../../../pic32mx/lib/size\libmchp_peripheral_32MX795F512L.a(int_tbl_lib.o)
                              build/default/debug/_ext/365611741/system_services.o (INTClearFlag)
c:/program files/microchip/xc32/v1.21/bin/../lib/gcc/pic32mx/4.5.2/../../../../pic32mx/lib/size\libmchp_peripheral_32MX795F512L.a(rtcc_init_lib.o)
                              build/default/debug/_ext/365611741/system_services.o (RtccInit)
c:/program files/microchip/xc32/v1.21/bin/../lib/gcc/pic32mx/4.5.2/../../../../pic32mx/lib/size\libmchp_peripheral_32MX795F512L.a(rtcc_open_lib.o)
                              build/default/debug/_ext/365611741/system_services.o (RtccOpen)
c:/program files/microchip/xc32/v1.21/bin/../lib/gcc/pic32mx/4.5.2/../../../../pic32mx/lib/size\libmchp_peripheral_32MX795F512L.a(spi_chn_data_rdy_lib.o)
                              build/default/debug/_ext/792872985/drv_spi.o (SpiChnDataRdy)
c:/program files/microchip/xc32/v1.21/bin/../lib/gcc/pic32mx/4.5.2/../../../../pic32mx/lib/size\libmchp_peripheral_32MX795F512L.a(spi_chn_getc_lib.o)
                              build/default/debug/_ext/792872985/drv_spi.o (SpiChnReadC)
c:/program files/microchip/xc32/v1.21/bin/../lib/gcc/pic32mx/4.5.2/../../../../pic32mx/lib/size\libmchp_peripheral_32MX795F512L.a(spi_chn_open_lib.o)
                              build/default/debug/_ext/792872985/drv_spi.o (SpiChnOpen)
c:/program files/microchip/xc32/v1.21/bin/../lib/gcc/pic32mx/4.5.2/../../../../pic32mx/lib/size\libmchp_peripheral_32MX795F512L.a(spi_chn_putc_lib.o)
                              build/default/debug/_ext/792872985/drv_spi.o (SpiChnWriteC)
c:/program files/microchip/xc32/v1.21/bin/../lib/gcc/pic32mx/4.5.2/../../../../pic32mx/lib/size\libmchp_peripheral_32MX795F512L.a(spi_chn_tx_buff_empty_lib.o)
                              build/default/debug/_ext/792872985/drv_spi.o (SpiChnTxBuffEmpty)
c:/program files/microchip/xc32/v1.21/bin/../lib/gcc/pic32mx/4.5.2/../../../../pic32mx/lib/size\libmchp_peripheral_32MX795F512L.a(spi_io_tbl_libp.o)
                              c:/program files/microchip/xc32/v1.21/bin/../lib/gcc/pic32mx/4.5.2/../../../../pic32mx/lib/size\libmchp_peripheral_32MX795F512L.a(spi_chn_open_lib.o) (_SpiIoTbl)
c:/program files/microchip/xc32/v1.21/bin/../lib/gcc/pic32mx/4.5.2/../../../../pic32mx/lib/size\libmchp_peripheral_32MX795F512L.a(spi_map_tbl_libp.o)
                              c:/program files/microchip/xc32/v1.21/bin/../lib/gcc/pic32mx/4.5.2/../../../../pic32mx/lib/size\libmchp_peripheral_32MX795F512L.a(spi_chn_data_rdy_lib.o) (_SpiMapTbl)
c:/program files/microchip/xc32/v1.21/bin/../lib/gcc/pic32mx/4.5.2/../../../../pic32mx/lib/size\libmchp_peripheral_32MX795F512L.a(port_set_pins_digital_in_lib.o)
                              build/default/debug/_ext/427700826/eth_pic32_ext_phy.o (PORTSetPinsDigitalIn)
c:/program files/microchip/xc32/v1.21/bin/../lib/gcc/pic32mx/4.5.2/../../../../pic32mx/lib/size\libmchp_peripheral_32MX795F512L.a(port_set_pins_digital_out_lib.o)
                              build/default/debug/_ext/427700826/eth_pic32_ext_phy.o (PORTSetPinsDigitalOut)
c:/program files/microchip/xc32/v1.21/bin/../lib/gcc/pic32mx/4.5.2/../../../../pic32mx/lib/size\libmchp_peripheral_32MX795F512L.a(_ports_tbl_libp.o)
                              c:/program files/microchip/xc32/v1.21/bin/../lib/gcc/pic32mx/4.5.2/../../../../pic32mx/lib/size\libmchp_peripheral_32MX795F512L.a(port_set_pins_digital_in_lib.o) (PortRegTbl)
c:/program files/microchip/xc32/v1.21/bin/../lib/gcc/pic32mx/4.5.2/../../../../pic32mx/lib/size\libmchp_peripheral_32MX795F512L.a(int_enable_interrupts_lib.o)
                              c:/program files/microchip/xc32/v1.21/bin/../lib/gcc/pic32mx/4.5.2/../../../../pic32mx/lib/size\libmchp_peripheral_32MX795F512L.a(int_enable_mv_int_lib.o) (INTEnableInterrupts)
c:/program files/microchip/xc32/v1.21/bin/../lib/gcc/pic32mx/4.5.2/../../../../pic32mx/lib/size\libmchp_peripheral_32MX795F512L.a(_rtcc_wait_clock_off_lib.o)
                              c:/program files/microchip/xc32/v1.21/bin/../lib/gcc/pic32mx/4.5.2/../../../../pic32mx/lib/size\libmchp_peripheral_32MX795F512L.a(rtcc_init_lib.o) (_RtccWaitClockOff)
c:/program files/microchip/xc32/v1.21/bin/../lib/gcc/pic32mx/4.5.2/../../../../pic32mx/lib/size\libmchp_peripheral_32MX795F512L.a(read_core_timer_lib.o)
                              c:/program files/microchip/xc32/v1.21/bin/../lib/gcc/pic32mx/4.5.2/../../../../pic32mx/lib/size\libmchp_peripheral_32MX795F512L.a(_rtcc_wait_clock_off_lib.o) (ReadCoreTimer)
c:/program files/microchip/xc32/v1.21/bin/../lib/gcc/pic32mx/4.5.2/size\libgcc.a(_udivdi3.o)
                              build/default/debug/_ext/101875047/big_int.o (__udivdi3)
c:/program files/microchip/xc32/v1.21/bin/../lib/gcc/pic32mx/4.5.2/size\libgcc.a(floatunsisf.o)
                              build/default/debug/_ext/427700826/iperf.o (__floatunsisf)
c:/program files/microchip/xc32/v1.21/bin/../lib/gcc/pic32mx/4.5.2/../../../../pic32mx/lib/size\libpic32.a(memcmp.o)
                              build/default/debug/_ext/97638081/mpfs2.o (memcmp)
c:/program files/microchip/xc32/v1.21/bin/../lib/gcc/pic32mx/4.5.2/../../../../pic32mx/lib/size\libpic32.a(memcpy.o)
                              build/default/debug/_ext/101875047/hashes.o (memcpy)
c:/program files/microchip/xc32/v1.21/bin/../lib/gcc/pic32mx/4.5.2/../../../../pic32mx/lib/size\libpic32.a(memset.o)
                              build/default/debug/_ext/1472/smtp_demo.o (memset)
c:/program files/microchip/xc32/v1.21/bin/../lib/gcc/pic32mx/4.5.2/../../../../pic32mx/lib/size\libpic32.a(strcmp.o)
                              build/default/debug/_ext/365611741/system_command.o (strcmp)
c:/program files/microchip/xc32/v1.21/bin/../lib/gcc/pic32mx/4.5.2/../../../../pic32mx/lib/size\libpic32.a(strcpy.o)
                              build/default/debug/_ext/365611741/system_command.o (strcpy)
c:/program files/microchip/xc32/v1.21/bin/../lib/gcc/pic32mx/4.5.2/../../../../pic32mx/lib/size\libpic32.a(strlen.o)
                              build/default/debug/_ext/101875047/helpers.o (strlen)
c:/program files/microchip/xc32/v1.21/bin/../lib/gcc/pic32mx/4.5.2/../../../../pic32mx/lib/size\libpic32.a(default-bootstrap-exception-handler.o)
                              c:/program files/microchip/xc32/v1.21/bin/../lib/gcc/pic32mx/4.5.2/../../../../pic32mx/lib/size/crt0.o (_bootstrap_exception_handler)
c:/program files/microchip/xc32/v1.21/bin/../lib/gcc/pic32mx/4.5.2/../../../../pic32mx/lib/size\libpic32.a(default-on-reset.o)
                              c:/program files/microchip/xc32/v1.21/bin/../lib/gcc/pic32mx/4.5.2/../../../../pic32mx/lib/size/crt0.o (_on_reset)
c:/program files/microchip/xc32/v1.21/bin/../lib/gcc/pic32mx/4.5.2/../../../../pic32mx/lib/size\libpic32.a(default-on-bootstrap.o)
                              c:/program files/microchip/xc32/v1.21/bin/../lib/gcc/pic32mx/4.5.2/../../../../pic32mx/lib/size/crt0.o (_on_bootstrap)
c:/program files/microchip/xc32/v1.21/bin/../lib/gcc/pic32mx/4.5.2/../../../../pic32mx/lib/size\libpic32.a(default-nmi-handler.o)
                              c:/program files/microchip/xc32/v1.21/bin/../lib/gcc/pic32mx/4.5.2/../../../../pic32mx/lib/size/crt0.o (_nmi_handler)
c:/program files/microchip/xc32/v1.21/bin/../lib/gcc/pic32mx/4.5.2/../../../../pic32mx/lib/size\libpic32.a(errno.o)
                              build/default/debug/_ext/97638081/sys_fs.o (errno)
c:/program files/microchip/xc32/v1.21/bin/../lib/gcc/pic32mx/4.5.2/../../../../pic32mx/lib/size\libpic32.a(general-exception.o)
                              c:/program files/microchip/xc32/v1.21/bin/../lib/gcc/pic32mx/4.5.2/../../../../pic32mx/lib/size/crt0.o (_general_exception_context)
c:/program files/microchip/xc32/v1.21/bin/../lib/gcc/pic32mx/4.5.2/../../../../pic32mx/lib/size\libpic32.a(vector1.o)
                              c:/program files/microchip/xc32/v1.21/bin/../lib/gcc/pic32mx/4.5.2/../../../../pic32mx/lib/./proc/32MX795F512L\default_isr_vectors.o (__vector_dispatch_1)
c:/program files/microchip/xc32/v1.21/bin/../lib/gcc/pic32mx/4.5.2/../../../../pic32mx/lib/size\libpic32.a(vector2.o)
                              c:/program files/microchip/xc32/v1.21/bin/../lib/gcc/pic32mx/4.5.2/../../../../pic32mx/lib/./proc/32MX795F512L\default_isr_vectors.o (__vector_dispatch_2)
c:/program files/microchip/xc32/v1.21/bin/../lib/gcc/pic32mx/4.5.2/../../../../pic32mx/lib/size\libpic32.a(vector3.o)
                              c:/program files/microchip/xc32/v1.21/bin/../lib/gcc/pic32mx/4.5.2/../../../../pic32mx/lib/./proc/32MX795F512L\default_isr_vectors.o (__vector_dispatch_3)
c:/program files/microchip/xc32/v1.21/bin/../lib/gcc/pic32mx/4.5.2/../../../../pic32mx/lib/size\libpic32.a(vector4.o)
                              c:/program files/microchip/xc32/v1.21/bin/../lib/gcc/pic32mx/4.5.2/../../../../pic32mx/lib/./proc/32MX795F512L\default_isr_vectors.o (__vector_dispatch_4)
c:/program files/microchip/xc32/v1.21/bin/../lib/gcc/pic32mx/4.5.2/../../../../pic32mx/lib/size\libpic32.a(vector5.o)
                              c:/program files/microchip/xc32/v1.21/bin/../lib/gcc/pic32mx/4.5.2/../../../../pic32mx/lib/./proc/32MX795F512L\default_isr_vectors.o (__vector_dispatch_5)
c:/program files/microchip/xc32/v1.21/bin/../lib/gcc/pic32mx/4.5.2/../../../../pic32mx/lib/size\libpic32.a(vector6.o)
                              c:/program files/microchip/xc32/v1.21/bin/../lib/gcc/pic32mx/4.5.2/../../../../pic32mx/lib/./proc/32MX795F512L\default_isr_vectors.o (__vector_dispatch_6)
c:/program files/microchip/xc32/v1.21/bin/../lib/gcc/pic32mx/4.5.2/../../../../pic32mx/lib/size\libpic32.a(vector8.o)
                              c:/program files/microchip/xc32/v1.21/bin/../lib/gcc/pic32mx/4.5.2/../../../../pic32mx/lib/./proc/32MX795F512L\default_isr_vectors.o (__vector_dispatch_8)
c:/program files/microchip/xc32/v1.21/bin/../lib/gcc/pic32mx/4.5.2/../../../../pic32mx/lib/size\libpic32.a(vector9.o)
                              c:/program files/microchip/xc32/v1.21/bin/../lib/gcc/pic32mx/4.5.2/../../../../pic32mx/lib/./proc/32MX795F512L\default_isr_vectors.o (__vector_dispatch_9)
c:/program files/microchip/xc32/v1.21/bin/../lib/gcc/pic32mx/4.5.2/../../../../pic32mx/lib/size\libpic32.a(vector10.o)
                              c:/program files/microchip/xc32/v1.21/bin/../lib/gcc/pic32mx/4.5.2/../../../../pic32mx/lib/./proc/32MX795F512L\default_isr_vectors.o (__vector_dispatch_10)
c:/program files/microchip/xc32/v1.21/bin/../lib/gcc/pic32mx/4.5.2/../../../../pic32mx/lib/size\libpic32.a(vector11.o)
                              c:/program files/microchip/xc32/v1.21/bin/../lib/gcc/pic32mx/4.5.2/../../../../pic32mx/lib/./proc/32MX795F512L\default_isr_vectors.o (__vector_dispatch_11)
c:/program files/microchip/xc32/v1.21/bin/../lib/gcc/pic32mx/4.5.2/../../../../pic32mx/lib/size\libpic32.a(vector12.o)
                              c:/program files/microchip/xc32/v1.21/bin/../lib/gcc/pic32mx/4.5.2/../../../../pic32mx/lib/./proc/32MX795F512L\default_isr_vectors.o (__vector_dispatch_12)
c:/program files/microchip/xc32/v1.21/bin/../lib/gcc/pic32mx/4.5.2/../../../../pic32mx/lib/size\libpic32.a(vector13.o)
                              c:/program files/microchip/xc32/v1.21/bin/../lib/gcc/pic32mx/4.5.2/../../../../pic32mx/lib/./proc/32MX795F512L\default_isr_vectors.o (__vector_dispatch_13)
c:/program files/microchip/xc32/v1.21/bin/../lib/gcc/pic32mx/4.5.2/../../../../pic32mx/lib/size\libpic32.a(vector14.o)
                              c:/program files/microchip/xc32/v1.21/bin/../lib/gcc/pic32mx/4.5.2/../../../../pic32mx/lib/./proc/32MX795F512L\default_isr_vectors.o (__vector_dispatch_14)
c:/program files/microchip/xc32/v1.21/bin/../lib/gcc/pic32mx/4.5.2/../../../../pic32mx/lib/size\libpic32.a(vector16.o)
                              c:/program files/microchip/xc32/v1.21/bin/../lib/gcc/pic32mx/4.5.2/../../../../pic32mx/lib/./proc/32MX795F512L\default_isr_vectors.o (__vector_dispatch_16)
c:/program files/microchip/xc32/v1.21/bin/../lib/gcc/pic32mx/4.5.2/../../../../pic32mx/lib/size\libpic32.a(vector17.o)
                              c:/program files/microchip/xc32/v1.21/bin/../lib/gcc/pic32mx/4.5.2/../../../../pic32mx/lib/./proc/32MX795F512L\default_isr_vectors.o (__vector_dispatch_17)
c:/program files/microchip/xc32/v1.21/bin/../lib/gcc/pic32mx/4.5.2/../../../../pic32mx/lib/size\libpic32.a(vector18.o)
                              c:/program files/microchip/xc32/v1.21/bin/../lib/gcc/pic32mx/4.5.2/../../../../pic32mx/lib/./proc/32MX795F512L\default_isr_vectors.o (__vector_dispatch_18)
c:/program files/microchip/xc32/v1.21/bin/../lib/gcc/pic32mx/4.5.2/../../../../pic32mx/lib/size\libpic32.a(vector19.o)
                              c:/program files/microchip/xc32/v1.21/bin/../lib/gcc/pic32mx/4.5.2/../../../../pic32mx/lib/./proc/32MX795F512L\default_isr_vectors.o (__vector_dispatch_19)
c:/program files/microchip/xc32/v1.21/bin/../lib/gcc/pic32mx/4.5.2/../../../../pic32mx/lib/size\libpic32.a(vector20.o)
                              c:/program files/microchip/xc32/v1.21/bin/../lib/gcc/pic32mx/4.5.2/../../../../pic32mx/lib/./proc/32MX795F512L\default_isr_vectors.o (__vector_dispatch_20)
c:/program files/microchip/xc32/v1.21/bin/../lib/gcc/pic32mx/4.5.2/../../../../pic32mx/lib/size\libpic32.a(vector21.o)
                              c:/program files/microchip/xc32/v1.21/bin/../lib/gcc/pic32mx/4.5.2/../../../../pic32mx/lib/./proc/32MX795F512L\default_isr_vectors.o (__vector_dispatch_21)
c:/program files/microchip/xc32/v1.21/bin/../lib/gcc/pic32mx/4.5.2/../../../../pic32mx/lib/size\libpic32.a(vector22.o)
                              c:/program files/microchip/xc32/v1.21/bin/../lib/gcc/pic32mx/4.5.2/../../../../pic32mx/lib/./proc/32MX795F512L\default_isr_vectors.o (__vector_dispatch_22)
c:/program files/microchip/xc32/v1.21/bin/../lib/gcc/pic32mx/4.5.2/../../../../pic32mx/lib/size\libpic32.a(vector23.o)
                              c:/program files/microchip/xc32/v1.21/bin/../lib/gcc/pic32mx/4.5.2/../../../../pic32mx/lib/./proc/32MX795F512L\default_isr_vectors.o (__vector_dispatch_23)
c:/program files/microchip/xc32/v1.21/bin/../lib/gcc/pic32mx/4.5.2/../../../../pic32mx/lib/size\libpic32.a(vector24.o)
                              c:/program files/microchip/xc32/v1.21/bin/../lib/gcc/pic32mx/4.5.2/../../../../pic32mx/lib/./proc/32MX795F512L\default_isr_vectors.o (__vector_dispatch_24)
c:/program files/microchip/xc32/v1.21/bin/../lib/gcc/pic32mx/4.5.2/../../../../pic32mx/lib/size\libpic32.a(vector25.o)
                              c:/program files/microchip/xc32/v1.21/bin/../lib/gcc/pic32mx/4.5.2/../../../../pic32mx/lib/./proc/32MX795F512L\default_isr_vectors.o (__vector_dispatch_25)
c:/program files/microchip/xc32/v1.21/bin/../lib/gcc/pic32mx/4.5.2/../../../../pic32mx/lib/size\libpic32.a(vector27.o)
                              c:/program files/microchip/xc32/v1.21/bin/../lib/gcc/pic32mx/4.5.2/../../../../pic32mx/lib/./proc/32MX795F512L\default_isr_vectors.o (__vector_dispatch_27)
c:/program files/microchip/xc32/v1.21/bin/../lib/gcc/pic32mx/4.5.2/../../../../pic32mx/lib/size\libpic32.a(vector28.o)
                              c:/program files/microchip/xc32/v1.21/bin/../lib/gcc/pic32mx/4.5.2/../../../../pic32mx/lib/./proc/32MX795F512L\default_isr_vectors.o (__vector_dispatch_28)
c:/program files/microchip/xc32/v1.21/bin/../lib/gcc/pic32mx/4.5.2/../../../../pic32mx/lib/size\libpic32.a(vector29.o)
                              c:/program files/microchip/xc32/v1.21/bin/../lib/gcc/pic32mx/4.5.2/../../../../pic32mx/lib/./proc/32MX795F512L\default_isr_vectors.o (__vector_dispatch_29)
c:/program files/microchip/xc32/v1.21/bin/../lib/gcc/pic32mx/4.5.2/../../../../pic32mx/lib/size\libpic32.a(vector30.o)
                              c:/program files/microchip/xc32/v1.21/bin/../lib/gcc/pic32mx/4.5.2/../../../../pic32mx/lib/./proc/32MX795F512L\default_isr_vectors.o (__vector_dispatch_30)
c:/program files/microchip/xc32/v1.21/bin/../lib/gcc/pic32mx/4.5.2/../../../../pic32mx/lib/size\libpic32.a(vector31.o)
                              c:/program files/microchip/xc32/v1.21/bin/../lib/gcc/pic32mx/4.5.2/../../../../pic32mx/lib/./proc/32MX795F512L\default_isr_vectors.o (__vector_dispatch_31)
c:/program files/microchip/xc32/v1.21/bin/../lib/gcc/pic32mx/4.5.2/../../../../pic32mx/lib/size\libpic32.a(vector32.o)
                              c:/program files/microchip/xc32/v1.21/bin/../lib/gcc/pic32mx/4.5.2/../../../../pic32mx/lib/./proc/32MX795F512L\default_isr_vectors.o (__vector_dispatch_32)
c:/program files/microchip/xc32/v1.21/bin/../lib/gcc/pic32mx/4.5.2/../../../../pic32mx/lib/size\libpic32.a(vector33.o)
                              c:/program files/microchip/xc32/v1.21/bin/../lib/gcc/pic32mx/4.5.2/../../../../pic32mx/lib/./proc/32MX795F512L\default_isr_vectors.o (__vector_dispatch_33)
c:/program files/microchip/xc32/v1.21/bin/../lib/gcc/pic32mx/4.5.2/../../../../pic32mx/lib/size\libpic32.a(vector34.o)
                              c:/program files/microchip/xc32/v1.21/bin/../lib/gcc/pic32mx/4.5.2/../../../../pic32mx/lib/./proc/32MX795F512L\default_isr_vectors.o (__vector_dispatch_34)
c:/program files/microchip/xc32/v1.21/bin/../lib/gcc/pic32mx/4.5.2/../../../../pic32mx/lib/size\libpic32.a(vector35.o)
                              c:/program files/microchip/xc32/v1.21/bin/../lib/gcc/pic32mx/4.5.2/../../../../pic32mx/lib/./proc/32MX795F512L\default_isr_vectors.o (__vector_dispatch_35)
c:/program files/microchip/xc32/v1.21/bin/../lib/gcc/pic32mx/4.5.2/../../../../pic32mx/lib/size\libpic32.a(vector36.o)
                              c:/program files/microchip/xc32/v1.21/bin/../lib/gcc/pic32mx/4.5.2/../../../../pic32mx/lib/./proc/32MX795F512L\default_isr_vectors.o (__vector_dispatch_36)
c:/program files/microchip/xc32/v1.21/bin/../lib/gcc/pic32mx/4.5.2/../../../../pic32mx/lib/size\libpic32.a(vector37.o)
                              c:/program files/microchip/xc32/v1.21/bin/../lib/gcc/pic32mx/4.5.2/../../../../pic32mx/lib/./proc/32MX795F512L\default_isr_vectors.o (__vector_dispatch_37)
c:/program files/microchip/xc32/v1.21/bin/../lib/gcc/pic32mx/4.5.2/../../../../pic32mx/lib/size\libpic32.a(vector38.o)
                              c:/program files/microchip/xc32/v1.21/bin/../lib/gcc/pic32mx/4.5.2/../../../../pic32mx/lib/./proc/32MX795F512L\default_isr_vectors.o (__vector_dispatch_38)
c:/program files/microchip/xc32/v1.21/bin/../lib/gcc/pic32mx/4.5.2/../../../../pic32mx/lib/size\libpic32.a(vector39.o)
                              c:/program files/microchip/xc32/v1.21/bin/../lib/gcc/pic32mx/4.5.2/../../../../pic32mx/lib/./proc/32MX795F512L\default_isr_vectors.o (__vector_dispatch_39)
c:/program files/microchip/xc32/v1.21/bin/../lib/gcc/pic32mx/4.5.2/../../../../pic32mx/lib/size\libpic32.a(vector40.o)
                              c:/program files/microchip/xc32/v1.21/bin/../lib/gcc/pic32mx/4.5.2/../../../../pic32mx/lib/./proc/32MX795F512L\default_isr_vectors.o (__vector_dispatch_40)
c:/program files/microchip/xc32/v1.21/bin/../lib/gcc/pic32mx/4.5.2/../../../../pic32mx/lib/size\libpic32.a(vector41.o)
                              c:/program files/microchip/xc32/v1.21/bin/../lib/gcc/pic32mx/4.5.2/../../../../pic32mx/lib/./proc/32MX795F512L\default_isr_vectors.o (__vector_dispatch_41)
c:/program files/microchip/xc32/v1.21/bin/../lib/gcc/pic32mx/4.5.2/../../../../pic32mx/lib/size\libpic32.a(vector42.o)
                              c:/program files/microchip/xc32/v1.21/bin/../lib/gcc/pic32mx/4.5.2/../../../../pic32mx/lib/./proc/32MX795F512L\default_isr_vectors.o (__vector_dispatch_42)
c:/program files/microchip/xc32/v1.21/bin/../lib/gcc/pic32mx/4.5.2/../../../../pic32mx/lib/size\libpic32.a(vector43.o)
                              c:/program files/microchip/xc32/v1.21/bin/../lib/gcc/pic32mx/4.5.2/../../../../pic32mx/lib/./proc/32MX795F512L\default_isr_vectors.o (__vector_dispatch_43)
c:/program files/microchip/xc32/v1.21/bin/../lib/gcc/pic32mx/4.5.2/../../../../pic32mx/lib/size\libpic32.a(vector44.o)
                              c:/program files/microchip/xc32/v1.21/bin/../lib/gcc/pic32mx/4.5.2/../../../../pic32mx/lib/./proc/32MX795F512L\default_isr_vectors.o (__vector_dispatch_44)
c:/program files/microchip/xc32/v1.21/bin/../lib/gcc/pic32mx/4.5.2/../../../../pic32mx/lib/size\libpic32.a(vector45.o)
                              c:/program files/microchip/xc32/v1.21/bin/../lib/gcc/pic32mx/4.5.2/../../../../pic32mx/lib/./proc/32MX795F512L\default_isr_vectors.o (__vector_dispatch_45)
c:/program files/microchip/xc32/v1.21/bin/../lib/gcc/pic32mx/4.5.2/../../../../pic32mx/lib/size\libpic32.a(vector46.o)
                              c:/program files/microchip/xc32/v1.21/bin/../lib/gcc/pic32mx/4.5.2/../../../../pic32mx/lib/./proc/32MX795F512L\default_isr_vectors.o (__vector_dispatch_46)
c:/program files/microchip/xc32/v1.21/bin/../lib/gcc/pic32mx/4.5.2/../../../../pic32mx/lib/size\libpic32.a(vector47.o)
                              c:/program files/microchip/xc32/v1.21/bin/../lib/gcc/pic32mx/4.5.2/../../../../pic32mx/lib/./proc/32MX795F512L\default_isr_vectors.o (__vector_dispatch_47)
c:/program files/microchip/xc32/v1.21/bin/../lib/gcc/pic32mx/4.5.2/../../../../pic32mx/lib/size\libpic32.a(vector49.o)
                              c:/program files/microchip/xc32/v1.21/bin/../lib/gcc/pic32mx/4.5.2/../../../../pic32mx/lib/./proc/32MX795F512L\default_isr_vectors.o (__vector_dispatch_49)
c:/program files/microchip/xc32/v1.21/bin/../lib/gcc/pic32mx/4.5.2/../../../../pic32mx/lib/size\libpic32.a(vector50.o)
                              c:/program files/microchip/xc32/v1.21/bin/../lib/gcc/pic32mx/4.5.2/../../../../pic32mx/lib/./proc/32MX795F512L\default_isr_vectors.o (__vector_dispatch_50)
c:/program files/microchip/xc32/v1.21/bin/../lib/gcc/pic32mx/4.5.2/../../../../pic32mx/lib/size\libpic32.a(vector51.o)
                              c:/program files/microchip/xc32/v1.21/bin/../lib/gcc/pic32mx/4.5.2/../../../../pic32mx/lib/./proc/32MX795F512L\default_isr_vectors.o (__vector_dispatch_51)
c:/program files/microchip/xc32/v1.21/bin/../lib/gcc/pic32mx/4.5.2/../../../../pic32mx/lib/size\libpic32.a(vector52.o)
                              c:/program files/microchip/xc32/v1.21/bin/../lib/gcc/pic32mx/4.5.2/../../../../pic32mx/lib/./proc/32MX795F512L\default_isr_vectors.o (__vector_dispatch_52)
c:/program files/microchip/xc32/v1.21/bin/../lib/gcc/pic32mx/4.5.2/../../../../pic32mx/lib/size\libpic32.a(vector53.o)
                              c:/program files/microchip/xc32/v1.21/bin/../lib/gcc/pic32mx/4.5.2/../../../../pic32mx/lib/./proc/32MX795F512L\default_isr_vectors.o (__vector_dispatch_53)
c:/program files/microchip/xc32/v1.21/bin/../lib/gcc/pic32mx/4.5.2/../../../../pic32mx/lib/size\libpic32.a(vector54.o)
                              c:/program files/microchip/xc32/v1.21/bin/../lib/gcc/pic32mx/4.5.2/../../../../pic32mx/lib/./proc/32MX795F512L\default_isr_vectors.o (__vector_dispatch_54)
c:/program files/microchip/xc32/v1.21/bin/../lib/gcc/pic32mx/4.5.2/../../../../pic32mx/lib/size\libpic32.a(vector55.o)
                              c:/program files/microchip/xc32/v1.21/bin/../lib/gcc/pic32mx/4.5.2/../../../../pic32mx/lib/./proc/32MX795F512L\default_isr_vectors.o (__vector_dispatch_55)
c:/program files/microchip/xc32/v1.21/bin/../lib/gcc/pic32mx/4.5.2/../../../../pic32mx/lib/size\libpic32.a(vector56.o)
                              c:/program files/microchip/xc32/v1.21/bin/../lib/gcc/pic32mx/4.5.2/../../../../pic32mx/lib/./proc/32MX795F512L\default_isr_vectors.o (__vector_dispatch_56)
c:/program files/microchip/xc32/v1.21/bin/../lib/gcc/pic32mx/4.5.2/../../../../pic32mx/lib/size\libpic32.a(vector57.o)
                              c:/program files/microchip/xc32/v1.21/bin/../lib/gcc/pic32mx/4.5.2/../../../../pic32mx/lib/./proc/32MX795F512L\default_isr_vectors.o (__vector_dispatch_57)
c:/program files/microchip/xc32/v1.21/bin/../lib/gcc/pic32mx/4.5.2/../../../../pic32mx/lib/size\libpic32.a(vector58.o)
                              c:/program files/microchip/xc32/v1.21/bin/../lib/gcc/pic32mx/4.5.2/../../../../pic32mx/lib/./proc/32MX795F512L\default_isr_vectors.o (__vector_dispatch_58)
c:/program files/microchip/xc32/v1.21/bin/../lib/gcc/pic32mx/4.5.2/../../../../pic32mx/lib/size\libpic32.a(vector59.o)
                              c:/program files/microchip/xc32/v1.21/bin/../lib/gcc/pic32mx/4.5.2/../../../../pic32mx/lib/./proc/32MX795F512L\default_isr_vectors.o (__vector_dispatch_59)
c:/program files/microchip/xc32/v1.21/bin/../lib/gcc/pic32mx/4.5.2/../../../../pic32mx/lib/size\libpic32.a(vector60.o)
                              c:/program files/microchip/xc32/v1.21/bin/../lib/gcc/pic32mx/4.5.2/../../../../pic32mx/lib/./proc/32MX795F512L\default_isr_vectors.o (__vector_dispatch_60)
c:/program files/microchip/xc32/v1.21/bin/../lib/gcc/pic32mx/4.5.2/../../../../pic32mx/lib/size\libpic32.a(vector61.o)
                              c:/program files/microchip/xc32/v1.21/bin/../lib/gcc/pic32mx/4.5.2/../../../../pic32mx/lib/./proc/32MX795F512L\default_isr_vectors.o (__vector_dispatch_61)
c:/program files/microchip/xc32/v1.21/bin/../lib/gcc/pic32mx/4.5.2/../../../../pic32mx/lib/size\libpic32.a(vector62.o)
                              c:/program files/microchip/xc32/v1.21/bin/../lib/gcc/pic32mx/4.5.2/../../../../pic32mx/lib/./proc/32MX795F512L\default_isr_vectors.o (__vector_dispatch_62)
c:/program files/microchip/xc32/v1.21/bin/../lib/gcc/pic32mx/4.5.2/../../../../pic32mx/lib/size\libpic32.a(vector63.o)
                              c:/program files/microchip/xc32/v1.21/bin/../lib/gcc/pic32mx/4.5.2/../../../../pic32mx/lib/./proc/32MX795F512L\default_isr_vectors.o (__vector_dispatch_63)
c:/program files/microchip/xc32/v1.21/bin/../lib/gcc/pic32mx/4.5.2/../../../../pic32mx/lib/size\libpic32.a(defaultinterrupt.o)
                              c:/program files/microchip/xc32/v1.21/bin/../lib/gcc/pic32mx/4.5.2/../../../../pic32mx/lib/size\libpic32.a(vector1.o) (_DefaultInterrupt)
c:/program files/microchip/xc32/v1.21/bin/../lib/gcc/pic32mx/4.5.2/../../../../pic32mx/lib/size\libdebug.a(db_utils.o)
                              build/default/debug/_ext/792872985/db_appio.o (_pic32mxsk_init)
c:/program files/microchip/xc32/v1.21/bin/../lib/gcc/pic32mx/4.5.2/../../../../pic32mx/lib/size\libm.a(fp32.o)
                              build/default/debug/_ext/427700826/iperf.o (fpsub)
c:/program files/microchip/xc32/v1.21/bin/../lib/gcc/pic32mx/4.5.2/../../../../pic32mx/lib/size\libpic32.a(xc32_uart.o)
                              c:/program files/microchip/xc32/v1.21/bin/../lib/gcc/pic32mx/4.5.2/../../../../pic32mx/lib/size\libdebug.a(db_utils.o) (__XC_UART)
c:/program files/microchip/xc32/v1.21/bin/../lib/gcc/pic32mx/4.5.2/../../../../pic32mx/lib/size\libc.a(_iob.o)
                              c:/program files/microchip/xc32/v1.21/bin/../lib/gcc/pic32mx/4.5.2/../../../../pic32mx/lib/size\libdebug.a(db_utils.o) (_iob)
c:/program files/microchip/xc32/v1.21/bin/../lib/gcc/pic32mx/4.5.2/../../../../pic32mx/lib/size\libc.a(atoi.o)
                              build/default/debug/_ext/427700826/smtp.o (atoi)
c:/program files/microchip/xc32/v1.21/bin/../lib/gcc/pic32mx/4.5.2/../../../../pic32mx/lib/size\libc.a(atol.o)
                              build/default/debug/_ext/427700826/http2.o (atol)
c:/program files/microchip/xc32/v1.21/bin/../lib/gcc/pic32mx/4.5.2/../../../../pic32mx/lib/size\libc.a(calloc.o)
                              build/default/debug/_ext/427700826/tcpip_commands.o (calloc)
c:/program files/microchip/xc32/v1.21/bin/../lib/gcc/pic32mx/4.5.2/../../../../pic32mx/lib/size\libc.a(ctype.o)
                              build/default/debug/_ext/427700826/tcpip_helpers.o (_ctype)
c:/program files/microchip/xc32/v1.21/bin/../lib/gcc/pic32mx/4.5.2/../../../../pic32mx/lib/size\libc.a(malloc.o)
                              build/default/debug/_ext/365611741/system_services.o (malloc)
c:/program files/microchip/xc32/v1.21/bin/../lib/gcc/pic32mx/4.5.2/../../../../pic32mx/lib/size\libc.a(rand.o)
                              build/default/debug/_ext/427700826/dhcp.o (rand)
c:/program files/microchip/xc32/v1.21/bin/../lib/gcc/pic32mx/4.5.2/../../../../pic32mx/lib/size\libc.a(setbuf.o)
                              c:/program files/microchip/xc32/v1.21/bin/../lib/gcc/pic32mx/4.5.2/../../../../pic32mx/lib/size\libdebug.a(db_utils.o) (setvbuf)
c:/program files/microchip/xc32/v1.21/bin/../lib/gcc/pic32mx/4.5.2/../../../../pic32mx/lib/size\libc.a(strcat.o)
                              build/default/debug/_ext/1472/ping_demo.o (strcat)
c:/program files/microchip/xc32/v1.21/bin/../lib/gcc/pic32mx/4.5.2/../../../../pic32mx/lib/size\libc.a(strchr.o)
                              build/default/debug/_ext/97638081/sys_fs.o (strchr)
c:/program files/microchip/xc32/v1.21/bin/../lib/gcc/pic32mx/4.5.2/../../../../pic32mx/lib/size\libc.a(strncmp.o)
                              build/default/debug/_ext/97638081/sys_fs.o (strncmp)
c:/program files/microchip/xc32/v1.21/bin/../lib/gcc/pic32mx/4.5.2/../../../../pic32mx/lib/size\libc.a(strncpy.o)
                              build/default/debug/_ext/101875047/helpers.o (strncpy)
c:/program files/microchip/xc32/v1.21/bin/../lib/gcc/pic32mx/4.5.2/../../../../pic32mx/lib/size\libc.a(strrchr.o)
                              build/default/debug/_ext/97638081/sys_fs.o (strrchr)
c:/program files/microchip/xc32/v1.21/bin/../lib/gcc/pic32mx/4.5.2/../../../../pic32mx/lib/size\libc.a(strstr.o)
                              build/default/debug/_ext/97638081/sys_fs.o (strstr)
c:/program files/microchip/xc32/v1.21/bin/../lib/gcc/pic32mx/4.5.2/../../../../pic32mx/lib/size\libc.a(strtok.o)
                              build/default/debug/_ext/427700826/telnet.o (strtok)
c:/program files/microchip/xc32/v1.21/bin/../lib/gcc/pic32mx/4.5.2/../../../../pic32mx/lib/size\libc.a(snprintf_cdnopsuxX.eo)
                              build/default/debug/_ext/365611741/system_debug.o (_snprintf_cdnopsuxX)
c:/program files/microchip/xc32/v1.21/bin/../lib/gcc/pic32mx/4.5.2/../../../../pic32mx/lib/size\libc.a(sprintf_cdnopsuxX.eo)
                              build/default/debug/_ext/334706090/wf_configData.o (_sprintf_cdnopsuxX)
c:/program files/microchip/xc32/v1.21/bin/../lib/gcc/pic32mx/4.5.2/../../../../pic32mx/lib/size\libc.a(sprintf_cdnopuxX.eo)
                              build/default/debug/_ext/427700826/tcpip_helpers.o (_sprintf_cdnopuxX)
c:/program files/microchip/xc32/v1.21/bin/../lib/gcc/pic32mx/4.5.2/../../../../pic32mx/lib/size\libc.a(vsnprintf_cdnopsuxX.eo)
                              c:/program files/microchip/xc32/v1.21/bin/../lib/gcc/pic32mx/4.5.2/../../../../pic32mx/lib/size\libc.a(snprintf_cdnopsuxX.eo) (_vsnprintf_cdnopsuxX)
c:/program files/microchip/xc32/v1.21/bin/../lib/gcc/pic32mx/4.5.2/../../../../pic32mx/lib/size\libc.a(vsnprintf.o)
                              build/default/debug/_ext/365611741/system_debug.o (vsnprintf)
c:/program files/microchip/xc32/v1.21/bin/../lib/gcc/pic32mx/4.5.2/../../../../pic32mx/lib/size\libc.a(buf.o)
                              c:/program files/microchip/xc32/v1.21/bin/../lib/gcc/pic32mx/4.5.2/../../../../pic32mx/lib/size\libc.a(setbuf.o) (_bufallo)
c:/program files/microchip/xc32/v1.21/bin/../lib/gcc/pic32mx/4.5.2/../../../../pic32mx/lib/size\libc.a(strcspn.o)
                              c:/program files/microchip/xc32/v1.21/bin/../lib/gcc/pic32mx/4.5.2/../../../../pic32mx/lib/size\libc.a(strtok.o) (strcspn)
c:/program files/microchip/xc32/v1.21/bin/../lib/gcc/pic32mx/4.5.2/../../../../pic32mx/lib/size\libc.a(strspn.o)
                              c:/program files/microchip/xc32/v1.21/bin/../lib/gcc/pic32mx/4.5.2/../../../../pic32mx/lib/size\libc.a(strtok.o) (strspn)
c:/program files/microchip/xc32/v1.21/bin/../lib/gcc/pic32mx/4.5.2/../../../../pic32mx/lib/size\libc.a(doprnt_cdnopsuxX.eo)
                              c:/program files/microchip/xc32/v1.21/bin/../lib/gcc/pic32mx/4.5.2/../../../../pic32mx/lib/size\libc.a(sprintf_cdnopsuxX.eo) (_vfprintf_cdnopsuxX)
c:/program files/microchip/xc32/v1.21/bin/../lib/gcc/pic32mx/4.5.2/../../../../pic32mx/lib/size\libc.a(doprnt_cdnopuxX.eo)
                              c:/program files/microchip/xc32/v1.21/bin/../lib/gcc/pic32mx/4.5.2/../../../../pic32mx/lib/size\libc.a(sprintf_cdnopuxX.eo) (_vfprintf_cdnopuxX)
c:/program files/microchip/xc32/v1.21/bin/../lib/gcc/pic32mx/4.5.2/../../../../pic32mx/lib/size\libc.a(doprnt.o)
                              c:/program files/microchip/xc32/v1.21/bin/../lib/gcc/pic32mx/4.5.2/../../../../pic32mx/lib/size\libc.a(vsnprintf.o) (vfprintf)
c:/program files/microchip/xc32/v1.21/bin/../lib/gcc/pic32mx/4.5.2/../../../../pic32mx/lib/size\libc.a(_fputc_simple.o)
                              c:/program files/microchip/xc32/v1.21/bin/../lib/gcc/pic32mx/4.5.2/../../../../pic32mx/lib/size\libc.a(doprnt_cdnopsuxX.eo) (fputc)
c:/program files/microchip/xc32/v1.21/bin/../lib/gcc/pic32mx/4.5.2/../../../../pic32mx/lib/size\libc.a(powersf.o)
                              c:/program files/microchip/xc32/v1.21/bin/../lib/gcc/pic32mx/4.5.2/../../../../pic32mx/lib/size\libc.a(doprnt.o) (_powers_f)
c:/program files/microchip/xc32/v1.21/bin/../lib/gcc/pic32mx/4.5.2/../../../../pic32mx/lib/size\libc.a(_flsbuf_simple.o)
                              c:/program files/microchip/xc32/v1.21/bin/../lib/gcc/pic32mx/4.5.2/../../../../pic32mx/lib/size\libc.a(_fputc_simple.o) (_flsbuf)
c:/program files/microchip/xc32/v1.21/bin/../lib/gcc/pic32mx/4.5.2/../../../../pic32mx/lib/size\libpic32.a(sbrk.o)
                              c:/program files/microchip/xc32/v1.21/bin/../lib/gcc/pic32mx/4.5.2/../../../../pic32mx/lib/size\libc.a(malloc.o) (sbrk)
c:/program files/microchip/xc32/v1.21/bin/../lib/gcc/pic32mx/4.5.2/../../../../pic32mx/lib/size\libpic32.a(write.o)
                              c:/program files/microchip/xc32/v1.21/bin/../lib/gcc/pic32mx/4.5.2/../../../../pic32mx/lib/size\libc.a(_fputc_simple.o) (write)
c:/program files/microchip/xc32/v1.21/bin/../lib/gcc/pic32mx/4.5.2/../../../../pic32mx/lib/size\libm.a(fpmod32.o)
                              c:/program files/microchip/xc32/v1.21/bin/../lib/gcc/pic32mx/4.5.2/../../../../pic32mx/lib/size\libc.a(doprnt.o) (frexpf)
c:/program files/microchip/xc32/v1.21/bin/../lib/gcc/pic32mx/4.5.2/../../../../pic32mx/lib/size\libe.a(_floatdisf.o)
                              c:/program files/microchip/xc32/v1.21/bin/../lib/gcc/pic32mx/4.5.2/../../../../pic32mx/lib/size\libc.a(doprnt.o) (__floatdisf)
c:/program files/microchip/xc32/v1.21/bin/../lib/gcc/pic32mx/4.5.2/size\libgcc.a(_lshrdi3.o)
                              c:/program files/microchip/xc32/v1.21/bin/../lib/gcc/pic32mx/4.5.2/../../../../pic32mx/lib/size\libc.a(doprnt_cdnopsuxX.eo) (__lshrdi3)
c:/program files/microchip/xc32/v1.21/bin/../lib/gcc/pic32mx/4.5.2/size\libgcc.a(_floatundisf.o)
                              c:/program files/microchip/xc32/v1.21/bin/../lib/gcc/pic32mx/4.5.2/../../../../pic32mx/lib/size\libc.a(doprnt.o) (__floatundisf)
c:/program files/microchip/xc32/v1.21/bin/../lib/gcc/pic32mx/4.5.2/size\libgcc.a(_umoddi3.o)
                              c:/program files/microchip/xc32/v1.21/bin/../lib/gcc/pic32mx/4.5.2/../../../../pic32mx/lib/size\libc.a(doprnt_cdnopsuxX.eo) (__umoddi3)

Allocating common symbols
Common symbol       size              file

g_savedPsPollContext
                    0x6               build/default/debug/_ext/334706090/wf_power_save.o
RawWindowState      0x2               build/default/debug/_ext/334706090/wf_driver_raw_24g.o
pNetIf              0x4               build/default/debug/_ext/1472/ping_demo.o
g_softAPEvent       0x8               build/default/debug/_ext/334706090/wf_event_handler.o
pingCount           0x1               build/default/debug/_ext/1472/ping_demo.o
targetAddressIPv4   0x4               build/default/debug/_ext/1472/ping_demo.o
hMac_softap_connect
                    0x4               build/default/debug/_ext/334706090/wf_scan.o
iwconfigCb          0x3               build/default/debug/_ext/334706090/wf_commands.o
g_pNetIf            0x4               build/default/debug/_ext/334706090/wf_mac_24g.o
pingTimer           0x4               build/default/debug/_ext/1472/ping_demo.o
RawMoveState        0x2               build/default/debug/_ext/334706090/wf_driver_com_24g.o
g_powerSaveState    0x1               build/default/debug/_ext/334706090/wf_driver_com_24g.o
wifi_ConfigData     0x8a              build/default/debug/_ext/334706090/wf_configData.o
_PhyAdd             0x4               build/default/debug/_ext/427700826/eth_pic32_ext_phy.o
firstHopAddress     0x4               build/default/debug/_ext/1472/ping_demo.o
lastBlock           0x40              build/default/debug/_ext/101875047/hashes.o
stackNotifyHandle   0x4               build/default/debug/_ext/1472/main_demo.o
remoteNode          0xa               build/default/debug/_ext/427700826/tcpip_manager.o
targetHostName      0x4               build/default/debug/_ext/1472/ping_demo.o
g_easyConfigCtx     0x98              build/default/debug/_ext/334706090/wf_easy_config.o
g_bfr               0x34              build/default/debug/_ext/427700826/iperf.o
targetMACAddr       0x6               build/default/debug/_ext/1472/ping_demo.o
g_rxBufferLength    0x2               build/default/debug/_ext/334706090/wf_mac_24g.o

Microchip PIC32 Memory-Usage Report

kseg0 Program-Memory Usage
section                    address  length [bytes]      (dec)  Description
-------                 ----------  -------------------------  -----------
.rodata                 0x9d000020         0x7d7c       32124  Read-only const 
.text._TcpHandleSeg     0x9d007d9c         0x1778        6008   
.text.HTTPProcess       0x9d009514         0x16d0        5840   
.text.SMTPClientTask    0x9d00abe4         0x15f4        5620   
.text.vfprintf          0x9d00c1d8         0x15a8        5544   
.text.DNSClientTask     0x9d00d780         0x1144        4420   
.rodata                 0x9d00e8c4         0x108c        4236  Read-only const 
.text.HTTPPostEmail     0x9d00f950          0xc4c        3148   
.text.mDNSProcessIncomi 0x9d01059c          0xbc8        3016   
.text.CommandIperfStart 0x9d011164          0xb50        2896   
.rodata                 0x9d011cb4          0xb48        2888  Read-only const 
.text.DHCPTask          0x9d0127fc          0xa74        2676   
.text._TcpSend          0x9d013270          0xa40        2624   
.dinit                  0x9d013cb0          0xa04        2564   
.text.TCPAdjustFIFOSize 0x9d0146b4          0x9fc        2556   
.text.SSLRxServerCertif 0x9d0150b0          0x99c        2460   
.text._RSAModExp        0x9d015a4c          0x94c        2380   
.rodata                 0x9d016398          0x900        2304  Read-only const 
.text                   0x9d016c98          0x8ec        2284  App's exec code 
.text._vfprintf_cdnopsu 0x9d017584          0x8b8        2232   
.text.TCPTick           0x9d017e3c          0x890        2192   
.text.ZeroconfLLProcess 0x9d0186cc          0x87c        2172   
.text.iwconfigDisplaySt 0x9d018f48          0x7f0        2032   
.rodata                 0x9d019738          0x7d4        2004  Read-only const 
.text.PIC32MACInitializ 0x9d019f0c          0x774        1908   
.text._DHCPReceive      0x9d01a680          0x748        1864   
.text.StateMachineUdpRx 0x9d01adc8          0x748        1864   
.text.NBNSTask          0x9d01b510          0x73c        1852   
.text.mDNSSendRR        0x9d01bc4c          0x70c        1804   
.text.mDNSProcessIntern 0x9d01c358          0x6dc        1756   
.text.HTTPPrint         0x9d01ca34          0x6ac        1708   
.text.HTTPPostConfig    0x9d01d0e0          0x694        1684   
.text.ReportBW_Jitter_L 0x9d01d774          0x614        1556   
.text.GenericTxStart    0x9d01dd88          0x610        1552   
.text.mDNSResponder     0x9d01e398          0x60c        1548   
.rodata                 0x9d01e9a4          0x5d4        1492  Read-only const 
.text._DHCPSend         0x9d01ef78          0x5c8        1480   
.rodata                 0x9d01f540          0x5bc        1468  Read-only const 
.text.mDNSProbe         0x9d01fafc          0x584        1412   
.text.TCPFindArray      0x9d020080          0x578        1400   
.text.SSLRxRecord       0x9d0205f8          0x528        1320   
.text.SHA1HashBlock     0x9d020b20          0x4fc        1276   
.text.EthPhyInit        0x9d02101c          0x4dc        1244   
.text.TCPIP_STACK_NetCo 0x9d0214f8          0x4d8        1240   
.text.SYS_Initialize    0x9d0219d0          0x4c8        1224   
.text.CommandIwConfig   0x9d021e98          0x4bc        1212   
.text.SHA1Calculate     0x9d022354          0x4b8        1208   
.text.WF_ConfigDataPrin 0x9d02280c          0x4b8        1208   
.text.RSAStep           0x9d022cc4          0x4a8        1192   
.rodata                 0x9d02316c          0x49c        1180  Read-only const 
.text.GenericTCPClient  0x9d023608          0x498        1176   
.text.GenericTxEnd      0x9d023aa0          0x498        1176   
.text.TCPIP_ANNOUNCE_Se 0x9d023f38          0x490        1168   
.text._TCPIP_HEAP_Free  0x9d0243c8          0x490        1168   
.text._TcpFindMatchingS 0x9d024858          0x480        1152   
.text.TCPIP_STACK_Init  0x9d024cd8          0x464        1124   
.text                   0x9d02513c          0x8a0        2208  App's exec code 
.text.TCPIP_STACK_Bring 0x9d0259dc          0x438        1080   
.text.TCPSSLHandleIncom 0x9d025e14          0x42c        1068   
.text.CommandHelp       0x9d026240          0x428        1064   
.text.TCPOpen           0x9d026668          0x428        1064   
.text.HTTPExecuteGet    0x9d026a90          0x414        1044   
.text                   0x9d026ea4          0x400        1024  App's exec code 
.text.ARPInitialize     0x9d0272a4          0x3f4        1012   
.text.CommandNetInfo    0x9d027698          0x3f4        1012   
.text.CommandStackOnOff 0x9d027a8c          0x3e4         996   
.text                   0x9d027e70          0x3dc         988  App's exec code 
.rodata                 0x9d02824c          0x3d4         980  Read-only const 
.text.StateMachineTcpRx 0x9d028620          0x3c8         968   
.rodata                 0x9d0289e8          0x3c0         960  Read-only const 
.text.WFProcessMgmtIndi 0x9d028da8          0x3b0         944   
.text.main              0x9d029158          0x3b0         944   
.text.MPFSSeek          0x9d029508          0x3ac         940   
.text.StateMachineUdpRx 0x9d0298b4          0x3a0         928   
.text.FindMatchingSocke 0x9d029c54          0x39c         924   
.text.TCPPutArray       0x9d029ff0          0x394         916   
.text.TCPIP_Helper_Base 0x9d02a384          0x394         916   
.text.CommandNetworkOnO 0x9d02a718          0x394         916   
.text.OutputSecurityMod 0x9d02aaac          0x38c         908   
.text.mDNSSDFillResReco 0x9d02ae38          0x374         884   
.text.TCPIP_STACK_Task  0x9d02b1ac          0x35c         860   
.text.SSLTxClientHello  0x9d02b508          0x358         856   
.text.SSLTxServerHello  0x9d02b860          0x358         856   
.text._SYS_COMMAND_TASK 0x9d02bbb8          0x354         852   
.text.CommandAddressSer 0x9d02bf0c          0x354         852   
.text.HTTPPostMD5       0x9d02c260          0x340         832   
.text.SSLTxCCSFin       0x9d02c5a0          0x33c         828   
.text.HTTPInit          0x9d02c8dc          0x330         816   
.text.UDPOpen           0x9d02cc0c          0x330         816   
.text.TelnetTask        0x9d02cf3c          0x324         804   
.text.TCPIP_HELPER_Stri 0x9d02d260          0x31c         796   
.text.OutputConnectionF 0x9d02d57c          0x31c         796   
.text.ARPTask           0x9d02d898          0x310         784   
.text.TCPIP_IPV4_PutArr 0x9d02dba8          0x310         784   
.text.MPFSOpen          0x9d02deb8          0x30c         780   
.text.CalculateFinished 0x9d02e1c4          0x308         776   
.text.UDPInit           0x9d02e4cc          0x300         768   
.text.TCPSSLInPlaceMACE 0x9d02e7cc          0x2f8         760   
.text.EthPhyGetNegotiat 0x9d02eac4          0x2f4         756   
.text.SSLTxClientKeyExc 0x9d02edb8          0x2e4         740   
.text.GenerateSessionKe 0x9d02f09c          0x2e4         740   
.text.iwconfigSetMode   0x9d02f380          0x2e0         736   
.text.mDNSDeCompress    0x9d02f660          0x2dc         732   
.text.StateMachineRxSta 0x9d02f93c          0x2d0         720   
.text.GenericTxHeaderPr 0x9d02fc0c          0x2d0         720   
.text.ProcessEscSequenc 0x9d02fedc          0x2c8         712   
.text.SSLRxAntiqueClien 0x9d0301a4          0x2c8         712   
.text.HTTPReadTo        0x9d03046c          0x2c4         708   
.text.MD5HashBlock      0x9d030730          0x2bc         700   
.text.SSLTxMessage      0x9d0309ec          0x2bc         700   
.text.mDNSInitialize    0x9d030ca8          0x2bc         700   
.text._PhyInitIo        0x9d030f64          0x2b8         696   
.text.TCPIP_Helper_Base 0x9d03121c          0x2b8         696   
.text.ICMPProcess       0x9d0314d4          0x2ac         684   
.text._TCPIsPutReady    0x9d031780          0x2ac         684   
.text.MD5Calculate      0x9d031a2c          0x2a8         680   
.text.SSLTxServerCertif 0x9d031cd4          0x2a8         680   
.text.iwconfigSetChanne 0x9d031f7c          0x2a8         680   
.text.ParseCmdBuffer    0x9d032224          0x2a4         676   
.text.TCPSSLDecryptMAC  0x9d0324c8          0x2a4         676   
.rodata                 0x9d03276c          0x2a4         676  Read-only const 
.text.SSLRxClientHello  0x9d032a10          0x290         656   
.text.CommandHeapInfo   0x9d032ca0          0x290         656   
.rodata                 0x9d032f30          0x28c         652  Read-only const 
.text.DRV_MEDIA_Open    0x9d0331bc          0x28c         652   
.text.SSLRxServerHello  0x9d033448          0x288         648   
.text._TcpDisconnect    0x9d0336d0          0x288         648   
.text.RSASetData        0x9d033958          0x284         644   
.text.SSLStartSession   0x9d033bdc          0x284         644   
.text.MPFSGetArray      0x9d033e60          0x280         640   
.text.UDPProcessIPv4    0x9d0340e0          0x278         632   
.text.Wifi_Connect      0x9d034358          0x278         632   
.text.SyncENCPtrRAWStat 0x9d0345d0          0x278         632   
.text.SYS_FS_mount      0x9d034848          0x274         628   
.text.GetMaxSegSizeOpti 0x9d034abc          0x274         628   
.text.WriteAnalogRegist 0x9d034d30          0x270         624   
.text.HSGetArray        0x9d034fa0          0x26c         620   
.text.GenericTCPServer  0x9d03520c          0x268         616   
.text.TCPIP_IPV4_Calcul 0x9d035474          0x268         616   
.text.SSLRxFinished     0x9d0356dc          0x268         616   
.text.SMTPDemo          0x9d035944          0x264         612   
.text.HTTPSendFile      0x9d035ba8          0x264         612   
.text.SSLRxCCS          0x9d035e0c          0x264         612   
.text.TCPGetArray       0x9d036070          0x260         608   
.text.SYS_GENERATE_RAND 0x9d0362d0          0x25c         604   
.text.SYS_CLK_OscClockG 0x9d03652c          0x258         600   
.text.SSLRxHandshake    0x9d036784          0x254         596   
.text.TCPIP_IPV4_CopyTx 0x9d0369d8          0x250         592   
.text.TCPProcessIPv4    0x9d036c28          0x250         592   
.text.ProcessTCPIPMacEv 0x9d036e78          0x250         592   
.text.ARPProcess        0x9d0370c8          0x248         584   
.text                   0x9d037310          0x248         584  App's exec code 
.text.LoadDefaultConfig 0x9d037558          0x244         580   
.text.malloc            0x9d03779c          0x240         576   
.text.StateMachineTCPTx 0x9d0379dc          0x238         568   
.text.MPFSGet           0x9d037c14          0x228         552   
.text.CommandSetIpAddre 0x9d037e3c          0x228         552   
.text.ARPEntryRemoveNet 0x9d038064          0x224         548   
.text.TCPIP_IPV4_GetDat 0x9d038288          0x224         548   
.text.SSLRxClientKeyExc 0x9d0384ac          0x224         548   
.text.EthRxBuffersAppen 0x9d0386d0          0x224         548   
.text.BigIntMod         0x9d0388f4          0x220         544   
.text.StateMachineTxArp 0x9d038b14          0x220         544   
.text.__floatdisf       0x9d038d34          0x220         544   
.text.EthPhyNegotiation 0x9d038f54          0x21c         540   
.text.StateMachineUDPTx 0x9d039170          0x21c         540   
.text.SSLPeriodic       0x9d03938c          0x218         536   
.text.GenerateHashRound 0x9d0395a4          0x218         536   
.text.HTTPHeaderParseCo 0x9d0397bc          0x214         532   
.text.TCPInit           0x9d0399d0          0x210         528   
.text.mDNSServiceRegist 0x9d039be0          0x210         528   
.text._TcpCloseSocket   0x9d039df0          0x20c         524   
.text.ARPIsResolved     0x9d039ffc          0x204         516   
.text.DHCPInit          0x9d03a200          0x204         516   
.text.iwconfigSetPower  0x9d03a404          0x204         516   
.text.HTTPIncFile       0x9d03a608          0x200         512   
.text.PIC32MACSetRXHash 0x9d03a808          0x200         512   
.text.UDPTask           0x9d03aa08          0x200         512   
.text.ZeroconfARPPktNot 0x9d03ac08          0x200         512   
.text._TcpSocketSetIdle 0x9d03ae08          0x1fc         508   
.text.SYS_USERIO_SetLED 0x9d03b004          0x1f8         504   
.text.TCPIP_ANNOUNCE_Ta 0x9d03b1fc          0x1f8         504   
.rodata                 0x9d03b3f4          0x1f4         500  Read-only const 
.text.TCPIP_IPERF_Task  0x9d03b5e8          0x1f0         496   
.text.TCPIP_IPV4_Flush  0x9d03b7d8          0x1ec         492   
.text.SYS_FS_ExtractFir 0x9d03b9c4          0x1e8         488   
.text.SYS_FS_initialize 0x9d03bbac          0x1e8         488   
.text.CommandIperfSize  0x9d03bd94          0x1e8         488   
.text._TCPIP_HEAP_Mallo 0x9d03bf7c          0x1e0         480   
.text.ascii_to_u32s     0x9d03c15c          0x1e0         480   
.text.StringToArgs      0x9d03c33c          0x1dc         476   
.text.HTTPURLDecode     0x9d03c518          0x1dc         476   
.text.PIC32MACGetHeader 0x9d03c6f4          0x1dc         476   
.text.TelnetCheckLogon  0x9d03c8d0          0x1dc         476   
.text._PhyDetectReset   0x9d03caac          0x1d8         472   
.text.TCPIP_IPV4_IsTxPu 0x9d03cc84          0x1d8         472   
.text.SSLTxRecord       0x9d03ce5c          0x1d8         472   
.text.SSLSessionNew     0x9d03d034          0x1d8         472   
.text.mDNSPutString     0x9d03d20c          0x1d8         472   
.text.SYS_FS_chdir      0x9d03d3e4          0x1d4         468   
.text.HTTPHeaderParseAu 0x9d03d5b8          0x1d4         468   
.text.UDPv4IsTxPutReady 0x9d03d78c          0x1d0         464   
.text.CommandSetMACAddr 0x9d03d95c          0x1d0         464   
.text.UDPDeInit         0x9d03db2c          0x1cc         460   
.text.HSEnd             0x9d03dcf8          0x1c4         452   
.text.mDNSSDFormatServi 0x9d03debc          0x1c4         452   
.text.HTTPPrint_ledSele 0x9d03e080          0x1c4         452   
.text.TCPIP_STACK_NetUp 0x9d03e244          0x1c0         448   
.text.RSAInit           0x9d03e404          0x1bc         444   
.text.FindEmailAddress  0x9d03e5c0          0x1bc         444   
.text.TelnetCheckUser   0x9d03e77c          0x1bc         444   
.text._EthAckPacket     0x9d03e938          0x1bc         444   
.text.SYS_USERIO_ReadIO 0x9d03eaf4          0x1b8         440   
.text.TCPSetOptions     0x9d03ecac          0x1b8         440   
.text.MRF24W_MACGetHead 0x9d03ee64          0x1b8         440   
.text.HTTPPrint_uploade 0x9d03f01c          0x1b8         440   
.text._SYS_COMMAND_ADDG 0x9d03f1d4          0x1b4         436   
.text.WF_ProcessEvent   0x9d03f388          0x1b4         436   
.text._SystemTickIntHan 0x9d03f53c          0x1b0         432   
.text.TCPPeekArray      0x9d03f6ec          0x1ac         428   
.text.SMTPPut           0x9d03f898          0x1a8         424   
.text.isNotifyApp       0x9d03fa40          0x1a8         424   
.text.SSLInit           0x9d03fbe8          0x1a4         420   
.text.DisplayNodeMsg    0x9d03fd8c          0x1a0         416   
.text.PIC32MACIsTxReady 0x9d03ff2c          0x1a0         416   
.text.CommandSetGateway 0x9d0400cc          0x1a0         416   
.text.CommandSetPriDNSA 0x9d04026c          0x1a0         416   
.text.HTTPPrint_led     0x9d04040c          0x1a0         416   
.text                   0x9d0405ac          0x1a0         416  App's exec code 
.text.TCPStartSSLServer 0x9d04074c          0x19c         412   
.text.StateMachineTCPTx 0x9d0408e8          0x19c         412   
.text.TCPStartSSLClient 0x9d040a84          0x198         408   
.text.NBNSGetName       0x9d040c1c          0x194         404   
.text.TCPSSLPutRecordHe 0x9d040db0          0x194         404   
.text._Sys_Ext1_Isr     0x9d040f44          0x190         400   
.text._Sys_Ext3_Isr     0x9d0410d4          0x190         400   
.text._Sys_CN_Isr       0x9d041264          0x190         400   
.text._Sys_Eth_Isr      0x9d0413f4          0x190         400   
.text.SSLMACBegin       0x9d041584          0x190         400   
.text.MRF24W_ChipReset  0x9d041714          0x190         400   
.text.RawMove           0x9d0418a4          0x190         400   
.rodata                 0x9d041a34          0x190         400  Read-only const 
.text.TCPIP_HELPER_Stri 0x9d041bc4          0x18c         396   
.text.WaitForRawMoveCom 0x9d041d50          0x18c         396   
.text.UDPGetArray       0x9d041edc          0x188         392   
.text.OutputBeaconTimeo 0x9d042064          0x188         392   
.text.DRV_MEDIA_Initial 0x9d0421ec          0x184         388   
.text._EthRxAckBuffer   0x9d042370          0x184         388   
.text.HTTPServer        0x9d0424f4          0x180         384   
.text._OAHashFindBkt    0x9d042674          0x180         384   
.text.PIC32MACEventClea 0x9d0427f4          0x180         384   
.text.TCPIP_IPV4_Alloca 0x9d042974          0x178         376   
.text.SSLHashAlloc      0x9d042aec          0x178         376   
.text.TCPIP_HEAP_Create 0x9d042c64          0x178         376   
.text.BSP_Initialize    0x9d042ddc          0x174         372   
.text.SSLStubAlloc      0x9d042f50          0x174         372   
.text.StateMachineRxDon 0x9d0430c4          0x174         372   
.text.SYS_FS_IsLegalDir 0x9d043238          0x170         368   
.text._ARPProbeAddress  0x9d0433a8          0x170         368   
.text.SpiChnOpen        0x9d043518          0x170         368   
.text.BigIntCompare     0x9d043688          0x16c         364   
.text.stricmppgm2ram    0x9d0437f4          0x16c         364   
.text.OAHashLookUpInser 0x9d043960          0x16c         364   
.text.SSLBufferAlloc    0x9d043acc          0x16c         364   
.text.UDPv4Flush        0x9d043c38          0x16c         364   
.text.mDNSRename        0x9d043da4          0x16c         364   
.text.mDNSProcess       0x9d043f10          0x16c         364   
.text.WFHardwareInit    0x9d04407c          0x168         360   
.text.RawSetIndex       0x9d0441e4          0x168         360   
.text                   0x9d04434c          0x2d0         720  App's exec code 
.text.MPFSOpenID        0x9d04461c          0x164         356   
.text.HSPutArray        0x9d044780          0x164         356   
.text.SYS_TICK_TimerDel 0x9d0448e4          0x160         352   
.text.USART_INIT        0x9d044a44          0x160         352   
.text.DRV_SPI_TxRx      0x9d044ba4          0x160         352   
.text.DNSPutString      0x9d044d04          0x160         352   
.text.TCPIP_IPV4_Transm 0x9d044e64          0x160         352   
.text.PIC32MACEventInit 0x9d044fc4          0x160         352   
.text.UDPBind           0x9d045124          0x160         352   
.text.WFEintHandler     0x9d045284          0x160         352   
.text._EthAppendBusyLis 0x9d0453e4          0x160         352   
.text.ARP_SendIfPkt     0x9d045544          0x15c         348   
.text.TCPIP_IPV4_GetHea 0x9d0456a0          0x15c         348   
.text.SSLStubSync       0x9d0457fc          0x15c         348   
.text.DRV_MEDIA_Read    0x9d045958          0x158         344   
.text.HTTPPrint_config_ 0x9d045ab0          0x158         344   
.text.CommandSetBIOSNam 0x9d045c08          0x154         340   
.text.ProcessInterruptS 0x9d045d5c          0x154         340   
.rodata                 0x9d045eb0          0x150         336  Read-only const 
.text._TCPIPStackIsLoca 0x9d046000          0x150         336   
.text.TCPIP_Helper_Calc 0x9d046150          0x150         336   
.text.CommandSetDefault 0x9d0462a0          0x150         336   
.text.CommandIperfNetIf 0x9d0463f0          0x150         336   
.text.OutputChannelList 0x9d046540          0x150         336   
.text.EthRxGetPacket    0x9d046690          0x150         336   
.text.scale             0x9d0467e0          0x150         336   
.text.TCPIPCommandsInit 0x9d046930          0x14c         332   
.text._sbrk_init        0x9d046a7c          0x14c         332   
.text._SYS_CMDIO_DELETE 0x9d046bc8          0x148         328   
.text.ARCFOURCrypt      0x9d046d10          0x148         328   
.text.TcpIpEthIsr       0x9d046e58          0x148         328   
.text.TCPIP_STACK_DeIni 0x9d046fa0          0x148         328   
.text.OutputConnectionT 0x9d0470e8          0x148         328   
.text.OutputConnectionP 0x9d047230          0x148         328   
.text.SendMgmtMsg       0x9d047378          0x148         328   
.text._MACCleanup       0x9d0474c0          0x144         324   
.text.OAHashLookUp      0x9d047604          0x144         324   
.rodata                 0x9d047748          0x140         320  Read-only const 
.text.SYS_USERIO_Button 0x9d047888          0x140         320   
.text.ARPProcessRxPkt   0x9d0479c8          0x140         320   
.text.SSLSessionMatchID 0x9d047b08          0x140         320   
.text.UDPSocketSetNet   0x9d047c48          0x140         320   
.text._WF_OutputConnect 0x9d047d88          0x140         320   
.text.PowerSaveTask     0x9d047ec8          0x140         320   
.text.PIC32MACGetConfig 0x9d048008          0x13c         316   
.text.WF_SetMultiCastFi 0x9d048144          0x13c         316   
.text._ARPUpdateEntry   0x9d048280          0x138         312   
.text.TCPIP_IPV4_Queued 0x9d0483b8          0x138         312   
.text.SSLTerminate      0x9d0484f0          0x138         312   
.text.UDPIsGetReady     0x9d048628          0x138         312   
.text._general_exceptio 0x9d048760          0x134         308   
.text.PIC32MACPutHeader 0x9d048894          0x134         308   
.text.TCPIP_IPV4_Insert 0x9d0489c8          0x134         308   
.text.SSLRxAlert        0x9d048afc          0x134         308   
.text.TCPIP_STACK_NetDo 0x9d048c30          0x134         308   
.text.SetSecurity       0x9d048d64          0x134         308   
.text.uitoa             0x9d048e98          0x130         304   
.text.PIC32MACEventSetN 0x9d048fc8          0x130         304   
.text.SSLTxServerHelloD 0x9d0490f8          0x130         304   
.text.SSLHashSync       0x9d049228          0x130         304   
.text.SSLSessionSync    0x9d049358          0x130         304   
.text.HSGet             0x9d049488          0x130         304   
.rodata                 0x9d0495b8          0x130         304  Read-only const 
.text.UDPSetBcastIPV4Ad 0x9d0496e8          0x130         304   
.text.EthDescriptorsPoo 0x9d049818          0x130         304   
.text.realloc           0x9d049948          0x130         304   
.text.PIC32MACEventAck  0x9d049a78          0x12c         300   
.text.HTTPPrint_btn     0x9d049ba4          0x12c         300   
.text.DNSBeginUsage     0x9d049cd0          0x128         296   
.text.SSLMACCalc        0x9d049df8          0x128         296   
.text.fputc             0x9d049f20          0x128         296   
.text.SYS_USERIO_Initia 0x9d04a048          0x124         292   
.text.HTTPDeInit        0x9d04a16c          0x124         292   
.text.ARCFOURInitialize 0x9d04a290          0x124         292   
.text._TCPSendWinIncUpd 0x9d04a3b4          0x124         292   
.text.mDNSTieBreaker    0x9d04a4d8          0x124         292   
.text.WaitForMgmtRespon 0x9d04a5fc          0x124         292   
.text.TCPIP_IPV4_QueueP 0x9d04a720          0x120         288   
.text.TCPOpenServer     0x9d04a840          0x120         288   
.text.UDPOpenServer     0x9d04a960          0x120         288   
.text.strcmp_local_igno 0x9d04aa80          0x120         288   
.text.WF_ConfigDataLoad 0x9d04aba0          0x120         288   
.text                   0x9d04acc0          0x120         288  App's exec code 
.text.fround            0x9d04ade0          0x120         288   
.text.SHA1AddData       0x9d04af00          0x11c         284   
.text.RSABeginUsage     0x9d04b01c          0x11c         284   
.text.SSLBufferSync     0x9d04b138          0x11c         284   
.text.TCPIP_IPV4_Initia 0x9d04b254          0x118         280   
.text.RSASetE           0x9d04b36c          0x118         280   
.text.SSLKeysSync       0x9d04b484          0x118         280   
.text.mDNSSetAddresses  0x9d04b59c          0x118         280   
.text.SYS_FS_FSFromAbsP 0x9d04b6b4          0x114         276   
.text.ARPResolve        0x9d04b7c8          0x114         276   
.text.TCPIP_IPV4_PutHea 0x9d04b8dc          0x114         276   
.text.MD5AddData        0x9d04b9f0          0x110         272   
.text.WF_PsPollEnable   0x9d04bb00          0x110         272   
.text._flsbuf           0x9d04bc10          0x110         272   
.text.strncpy_m         0x9d04bd20          0x10c         268   
.text._TcpSwapHeader    0x9d04be2c          0x10c         268   
.text.TCPIP_STACK_NetCo 0x9d04bf38          0x10c         268   
.text.TCPIP_STACK_Bring 0x9d04c044          0x108         264   
.text.OutputNetworkType 0x9d04c14c          0x108         264   
.text._DHCPClose        0x9d04c254          0x104         260   
.text.EthPhyReset       0x9d04c358          0x104         260   
.text.TelnetCheckMessag 0x9d04c45c          0x104         260   
.text.ResetIperfCounter 0x9d04c560          0x104         260   
.text.WF_ScanContextGet 0x9d04c664          0x104         260   
.text.iwconfigSetSsid   0x9d04c768          0x104         260   
.rodata                 0x9d04c86c          0x208         520  Read-only const 
.text.hexatob           0x9d04ca74          0x100         256   
.text.UDPGetSocketInfo  0x9d04cb74          0x100         256   
.text.DisplayIPValue    0x9d04cc74          0x100         256   
.text.TCPGetSocketInfo  0x9d04cd74           0xfc         252   
.text.WaitForMgmtRespon 0x9d04ce70           0xfc         252   
.text.SYS_FS_IsAbsolute 0x9d04cf6c           0xf8         248   
.text.PIC32MACEventDeIn 0x9d04d064           0xf8         248   
.text.TCPSSLGetPendingT 0x9d04d15c           0xf8         248   
.text._TCPIPStackAddres 0x9d04d254           0xf8         248   
.text.SingleListRemoveN 0x9d04d34c           0xf8         248   
.text.ZeroconfLLInitial 0x9d04d444           0xf8         248   
.text.mDNSHostRegister  0x9d04d53c           0xf8         248   
.text.HTTPExecutePost   0x9d04d634           0xf8         248   
.text.SYS_USERIO_Device 0x9d04d72c           0xf4         244   
.text.MPFSGetFilename   0x9d04d820           0xf4         244   
.text.PIC32MACEventSetN 0x9d04d914           0xf4         244   
.text.SSLSessionMatchIP 0x9d04da08           0xf4         244   
.text.TcpSSLMessageTran 0x9d04dafc           0xf4         244   
.text.UDPSetSourceIPAdd 0x9d04dbf0           0xf4         244   
.text.UDPSetDestination 0x9d04dce4           0xf4         244   
.text.TCPIP_HELPER_MACA 0x9d04ddd8           0xf4         244   
.text.CommandIperfStop  0x9d04decc           0xf4         244   
.text.WF_SecurityGet    0x9d04dfc0           0xf4         244   
.text.MRF24W_MACInitial 0x9d04e0b4           0xf4         244   
.text._ARPAddCompleteEn 0x9d04e1a8           0xf0         240   
.text.UDPDiscard        0x9d04e298           0xf0         240   
.text.NetConfigStringTo 0x9d04e388           0xf0         240   
.text.WF_ScanContextSet 0x9d04e478           0xf0         240   
.text.WF_Init           0x9d04e568           0xf0         240   
.text.iwconfigUpdateCb  0x9d04e658           0xf0         240   
.text.NBNSPutName       0x9d04e748           0xec         236   
.text.TCPIsPutReady     0x9d04e834           0xec         236   
.text._TCPIP_HEAP_Callo 0x9d04e920           0xec         236   
.text.TCPIP_HELPER_IPAd 0x9d04ea0c           0xec         236   
.text.TcpTxFillSegment  0x9d04eaf8           0xec         236   
.text.UdpTxFillDatagram 0x9d04ebe4           0xec         236   
.text.AllocateDataTxBuf 0x9d04ecd0           0xec         236   
.text.setvbuf           0x9d04edbc           0xec         236   
.text.HTTPReadPostValue 0x9d04eea8           0xe8         232   
.text.DNSIsResolved     0x9d04ef90           0xe8         232   
.text.TCPIP_IPV4_PutUpp 0x9d04f078           0xe8         232   
.text.SSLHashFree       0x9d04f160           0xe8         232   
.text.SSLBufferFree     0x9d04f248           0xe8         232   
.text.HSPut             0x9d04f330           0xe8         232   
.text.UDPSetRxOffset    0x9d04f418           0xe8         232   
.text.ProcessTCPIPTickE 0x9d04f500           0xe8         232   
.text.WF_GetDeviceInfo  0x9d04f5e8           0xe8         232   
.rodata                 0x9d04f6d0          0x1cc         460  Read-only const 
.text.TCPIP_IPV4_ResetT 0x9d04f89c           0xe4         228   
.text.TCPIP_IPV4_Alloca 0x9d04f980           0xe4         228   
.text.TCPDeInit         0x9d04fa64           0xe4         228   
.text.TCPIP_HEAP_Delete 0x9d04fb48           0xe4         228   
.text.SYS_TICK_TimerCre 0x9d04fc2c           0xe0         224   
.text._SYS_CMDIO_ADD    0x9d04fd0c           0xe0         224   
.text._ARPSetEntry      0x9d04fdec           0xe0         224   
.text.UDPPutArray       0x9d04fecc           0xe0         224   
.text.TCPIPMacEventCB   0x9d04ffac           0xe0         224   
.text.WiFiAsyncTask     0x9d05008c           0xe0         224   
.text._SYS_ERROR_PRINT  0x9d05016c           0xdc         220   
.text.HTTPHeaderParseCo 0x9d050248           0xdc         220   
.text.ARPHashDeleteEntr 0x9d050324           0xdc         220   
.text.DHCPConnectionHan 0x9d050400           0xdc         220   
.text._TcpCleanup       0x9d0504dc           0xdc         220   
.text.TCPOpenClient     0x9d0505b8           0xdc         220   
.text._TcpSocketInitial 0x9d050694           0xdc         220   
.text.TcpAllocateEpheme 0x9d050770           0xdc         220   
.text.UDPOpenClient     0x9d05084c           0xdc         220   
.text.UdpAllocateEpheme 0x9d050928           0xdc         220   
.text.OutputTxMode      0x9d050a04           0xdc         220   
.text.MACIFService      0x9d050ae0           0xdc         220   
.text.DHCPEnable        0x9d050bbc           0xd8         216   
.text.TCPIP_IPV4_GetPse 0x9d050c94           0xd8         216   
.text._TCPIP_HEAP_Mallo 0x9d050d6c           0xd8         216   
.text.TCPIP_IPERF_Initi 0x9d050e44           0xd8         216   
.text.StateMachineTcpLi 0x9d050f1c           0xd8         216   
.rodata                 0x9d050ff4           0xd8         216  Read-only const 
.text._SYS_RANDOM_INIT  0x9d0510cc           0xd4         212   
.text.TCPIP_ANNOUNCE_In 0x9d0511a0           0xd4         212   
.text.SSLStubFree       0x9d051274           0xd4         212   
.text._TcpAbort         0x9d051348           0xd4         212   
.text.TCPClose          0x9d05141c           0xd4         212   
.text.GenericTxDone     0x9d0514f0           0xd4         212   
.text.OutputDomain      0x9d0515c4           0xd4         212   
.text.AllocateMgmtTxBuf 0x9d051698           0xd4         212   
.text                   0x9d05176c           0xd4         212  App's exec code 
.text.HTTPGetArg        0x9d051840           0xd0         208   
.text._ARPDeleteResourc 0x9d051910           0xd0         208   
.text._LinkReconfigure  0x9d0519e0           0xd0         208   
.text.fnv_32_hash       0x9d051ab0           0xd0         208   
.text.UDPSetOptions     0x9d051b80           0xd0         208   
.text.TCPIP_STACK_Regis 0x9d051c50           0xd0         208   
.text.DhcpConfigTask    0x9d051d20           0xd0         208   
.text.OutputDeviceInfo  0x9d051df0           0xd0         208   
.text.MRF24W_MACPutHead 0x9d051ec0           0xd0         208   
.text.general_exception 0x9d051f90           0xd0         208   
.rodata                 0x9d052060           0xd0         208  Read-only const 
.text.EthPhyConfigureMd 0x9d052130           0xcc         204   
.text.TCPIP_IPV4_SetPay 0x9d0521fc           0xcc         204   
.text.HSGetWord         0x9d0522c8           0xcc         204   
.text._ZCLLEnable       0x9d052394           0xcc         204   
.text.DNSRetry          0x9d052460           0xc8         200   
.text.DNSDiscardName    0x9d052528           0xc8         200   
.text._XtlEventsTcp2Eth 0x9d0525f0           0xc8         200   
.text._XtlEventsEth2Tcp 0x9d0526b8           0xc8         200   
.text.TelnetSkipCommand 0x9d052780           0xc8         200   
.text.UDPClose          0x9d052848           0xc8         200   
.text.UDPSetTxOffset    0x9d052910           0xc8         200   
.text.InitNetConfig     0x9d0529d8           0xc8         200   
.text.TCPIP_Helper_Form 0x9d052aa0           0xc8         200   
.text.WF_ConnectionStat 0x9d052b68           0xc8         200   
.text.OutputDemoHeader  0x9d052c30           0xc8         200   
.text.HostInterruptRegI 0x9d052cf8           0xc8         200   
.text.HTTPPrintIP       0x9d052dc0           0xc8         200   
.text.CmdAddHead        0x9d052e88           0xc4         196   
.text.MPFSInit          0x9d052f4c           0xc4         196   
.text._LoadFATRecord    0x9d053010           0xc4         196   
.text._DHCPEnable       0x9d0530d4           0xc4         196   
.text.iwconfigSetRTS    0x9d053198           0xc4         196   
.text.MRF24W_MACGetArra 0x9d05325c           0xc4         196   
.text.SYS_TICK_Initiali 0x9d053320           0xc0         192   
.text.ARPRegisterCallba 0x9d0533e0           0xc0         192   
.text.PIC32MACCheckLink 0x9d0534a0           0xc0         192   
.text.SMTPEndUsage      0x9d053560           0xc0         192   
.text.SSLStartPartialRe 0x9d053620           0xc0         192   
.text.mDNSFillHostRecor 0x9d0536e0           0xc0         192   
.text.LowLevel_CPGetEle 0x9d0537a0           0xc0         192   
.text.ProcessMgmtRxMsg  0x9d053860           0xc0         192   
.text.SYS_INT_DynamicRe 0x9d053920           0xbc         188   
.text._SYS_COMMAND_INIT 0x9d0539dc           0xbc         188   
.text._ARPRemoveEntry   0x9d053a98           0xbc         188   
.text.OAHashRemoveAll   0x9d053b54           0xbc         188   
.text.UDPDiscardNet     0x9d053c10           0xbc         188   
.text.TCPIP_Helper_Stri 0x9d053ccc           0xbc         188   
.text.FindARPPktType    0x9d053d88           0xbc         188   
.text.LowLevel_CAGetEle 0x9d053e44           0xbc         188   
.text.MRF24W_MACEventSe 0x9d053f00           0xbc         188   
.text.OutputMacAddress  0x9d053fbc           0xbc         188   
.text._SYS_DEBUG_INIT   0x9d054078           0xb8         184   
.text._SYS_CONSOLE_INIT 0x9d054130           0xb8         184   
.text.TCPv4AllocateTxPa 0x9d0541e8           0xb8         184   
.text._TCPIsGetReady    0x9d0542a0           0xb8         184   
.text.UDPGetTxCount     0x9d054358           0xb8         184   
.text.OutputScanType    0x9d054410           0xb8         184   
.text.RawGetByte        0x9d0544c8           0xb8         184   
.text.RawSetByte        0x9d054580           0xb8         184   
.text.EthMACOpen        0x9d054638           0xb8         184   
.text.StarterKitIO      0x9d0546f0           0xb8         184   
.text.MPFSGetEndAddr    0x9d0547a8           0xb4         180   
.text._TcpMac2RamCopy   0x9d05485c           0xb4         180   
.text.UDPv4AllocateTxPa 0x9d054910           0xb4         180   
.text.UDPIsTxPutReady   0x9d0549c4           0xb4         180   
.text.WF_SsidSet        0x9d054a78           0xb4         180   
.text.MRF24W_MACEventIn 0x9d054b2c           0xb4         180   
.text.CommandQuit       0x9d054be0           0xb0         176   
.text.CmdRemoveTail     0x9d054c90           0xb0         176   
.text.TCPIP_ANNOUNCE_De 0x9d054d40           0xb0         176   
.text._ARPRemoveCacheEn 0x9d054df0           0xb0         176   
.text._ARPNotifyClients 0x9d054ea0           0xb0         176   
.text.PIC32MACOpen      0x9d054f50           0xb0         176   
.text._Tcpv4AckFnc      0x9d055000           0xb0         176   
.text.TCPIP_HEAP_MaxSiz 0x9d0550b0           0xb0         176   
.text._TCPIPStackSetNet 0x9d055160           0xb0         176   
.text._TCPIPStackIsBcas 0x9d055210           0xb0         176   
.text.HostInterrupt2Reg 0x9d0552c0           0xb0         176   
.text.EthTxSendBuffer   0x9d055370           0xb0         176   
.text.BigIntMSB         0x9d055420           0xac         172   
.text.MPFSGetFlags      0x9d0554cc           0xac         172   
.text.MPFSGetSize       0x9d055578           0xac         172   
.text.MPFSGetStartAddr  0x9d055624           0xac         172   
.text.EthPhyConfigureMI 0x9d0556d0           0xac         172   
.text.SSLTask           0x9d05577c           0xac         172   
.rodata                 0x9d055828           0xac         172  Read-only const 
.text.TCPIsConnected    0x9d0558d4           0xac         172   
.text.TelnetDeInit      0x9d055980           0xac         172   
.text._TCPIPStackString 0x9d055a2c           0xac         172   
.text._TCPIPStackAddres 0x9d055ad8           0xac         172   
.text.zgzc_wait_for     0x9d055b84           0xac         172   
.text.HTTPPrint_cookien 0x9d055c30           0xac         172   
.text.EthInit           0x9d055cdc           0xac         172   
.text._SYS_ERROR        0x9d055d88           0xa8         168   
.text.ARPDeinitialize   0x9d055e30           0xa8         168   
.text._TCPGetRxFIFOFree 0x9d055ed8           0xa8         168   
.text.StateMachineTcpTx 0x9d055f80           0xa8         168   
.text.StateMachineUdpTx 0x9d056028           0xa8         168   
.text.ZCLLEnable        0x9d0560d0           0xa8         168   
.text.WFConfigureLowPow 0x9d056178           0xa8         168   
.text.WF_OutputConnecti 0x9d056220           0xa8         168   
.text.EthClose          0x9d0562c8           0xa8         168   
.text                   0x9d056370           0xa8         168  App's exec code 
.text._Validate         0x9d056418           0xa4         164   
.text.DNSResolve        0x9d0564bc           0xa4         164   
.text._ICMPAllocateTxPa 0x9d056560           0xa4         164   
.text.TCPIP_IPV4_DeInit 0x9d056604           0xa4         164   
.text.RSADeInit         0x9d0566a8           0xa4         164   
.text.TCPRequestSSLMess 0x9d05674c           0xa4         164   
.text._TCPIPStackNetByA 0x9d0567f0           0xa4         164   
.text.StateMachineUdpRx 0x9d056894           0xa4         164   
.text.WF_ReconnectModeS 0x9d056938           0xa4         164   
.text.WF_LibInitialize  0x9d0569dc           0xa4         164   
.text.HTTPPrint_helloms 0x9d056a80           0xa4         164   
.text.strtok            0x9d056b24           0xa4         164   
.text._sbrk             0x9d056bc8           0xa4         164   
.text.USART_GETS        0x9d056c6c           0xa0         160   
.text._DHCPDiscard      0x9d056d0c           0xa0         160   
.text._DHCPNotifyClient 0x9d056dac           0xa0         160   
.text.PIC32MACDeinitial 0x9d056e4c           0xa0         160   
.text._UdpSocketDcpt    0x9d056eec           0xa0         160   
.text.HTTPPrint_buildda 0x9d056f8c           0xa0         160   
.text._EthTxSchedBuffer 0x9d05702c           0xa0         160   
.rodata                 0x9d0570cc           0xa0         160  Read-only const 
.text.BigIntSwapEndiann 0x9d05716c           0x9c         156   
.text.strupr            0x9d057208           0x9c         156   
.text.ANNOUNCE_Notify   0x9d0572a4           0x9c         156   
.text.DHCPRegisterHandl 0x9d057340           0x9c         156   
.text._MacCallocCallbac 0x9d0573dc           0x9c         156   
.text.SMTPPutString     0x9d057478           0x9c         156   
.text._TcpSocketKill    0x9d057514           0x9c         156   
.text.TCPIsAvailablePor 0x9d0575b0           0x9c         156   
.text.UdpIsAvailablePor 0x9d05764c           0x9c         156   
.text._TCPIPStackMacIdT 0x9d0576e8           0x9c         156   
.text.SingleListRemoveH 0x9d057784           0x9c         156   
.text.SetWpsSecurity    0x9d057820           0x9c         156   
.text.WF_SpiTxRx        0x9d0578bc           0x9c         156   
.text.OutputIpAddress   0x9d057958           0x9c         156   
.text.GetSpiPortWithBit 0x9d0579f4           0x9c         156   
.text.HTTPPrint_ddns_st 0x9d057a90           0x9c         156   
.text._SYS_DEBUG_OPEN   0x9d057b2c           0x98         152   
.text._SYS_ASSERT       0x9d057bc4           0x98         152   
.text._SYS_CONSOLE_OPEN 0x9d057c5c           0x98         152   
.text.PIC32MACFlush     0x9d057cf4           0x98         152   
.rodata                 0x9d057d8c           0x98         152  Read-only const 
.text.TCPAddSSLListener 0x9d057e24           0x98         152   
.text.TCPIP_STACK_Verif 0x9d057ebc           0x98         152   
.text.WF_ReconnectModeG 0x9d057f54           0x98         152   
.text.WF_ChannelListGet 0x9d057fec           0x98         152   
.text.WF_SsidGet        0x9d058084           0x98         152   
.text                   0x9d05811c           0x98         152  App's exec code 
.text.HashAddData       0x9d0581b4           0x94         148   
.text.BigIntMultiply    0x9d058248           0x94         148   
.text.HTTPHeaderParseLo 0x9d0582dc           0x94         148   
.text.TCPWasReset       0x9d058370           0x94         148   
.text.TCP_PutArray      0x9d058404           0x94         148   
.text.TelnetInit        0x9d058498           0x94         148   
.text.SingleListAddTail 0x9d05852c           0x94         148   
.rodata                 0x9d0585c0           0x94         148  Read-only const 
.text.LowLevel_CPSetEle 0x9d058654           0x94         148   
.text.MRF24W_SetUserEve 0x9d0586e8           0x94         148   
.text.RawMountRxBuffer  0x9d05877c           0x94         148   
.text.MRF24W_MACCalcRxC 0x9d058810           0x94         148   
.text.EthDescriptorsPoo 0x9d0588a4           0x94         148   
.text.USART_PRINT       0x9d058938           0x90         144   
.text._HttpCleanup      0x9d0589c8           0x90         144   
.text.TCPIP_IPV4_FreePa 0x9d058a58           0x90         144   
.text.NBNSDeInit        0x9d058ae8           0x90         144   
.text.TCPDiscard        0x9d058b78           0x90         144   
.text.TCP_SetPayload    0x9d058c08           0x90         144   
.text._TCPIPStackIsNetB 0x9d058c98           0x90         144   
.text.ARPAction         0x9d058d28           0x90         144   
.text.ZCLLDisable       0x9d058db8           0x90         144   
.text.WF_EintInit       0x9d058e48           0x90         144   
.text.OutputSsid        0x9d058ed8           0x90         144   
.text.ReadWFArray       0x9d058f68           0x90         144   
.text.SendGetParamMsg   0x9d058ff8           0x90         144   
.text.atol              0x9d059088           0x90         144   
.text.HTTPReadPostName  0x9d059118           0x8c         140   
.text.SwapARPPacket     0x9d0591a4           0x8c         140   
.text.DHCPDisable       0x9d059230           0x8c         140   
.text.DNSClientInit     0x9d0592bc           0x8c         140   
.text.PIC32MACDiscardRx 0x9d059348           0x8c         140   
.text.SwapIPV4Header    0x9d0593d4           0x8c         140   
.text.SMTPBeginUsage    0x9d059460           0x8c         140   
.text.SSLDeInit         0x9d0594ec           0x8c         140   
.text.HSPutWord         0x9d059578           0x8c         140   
.text.UDPFlush          0x9d059604           0x8c         140   
.text.UDPRemoteBind     0x9d059690           0x8c         140   
.text.TCPIP_STACK_SetNe 0x9d05971c           0x8c         140   
.text._TCPIPStackMACIdT 0x9d0597a8           0x8c         140   
.text.mDNSFetch         0x9d059834           0x8c         140   
.text.LowLevel_CASetEle 0x9d0598c0           0x8c         140   
.text.WF_Disconnect     0x9d05994c           0x8c         140   
.text.HTTPNeedsAuth     0x9d0599d8           0x8c         140   
.text.HTTPPrint_status_ 0x9d059a64           0x8c         140   
.text.HTTPPrint_status_ 0x9d059af0           0x8c         140   
.text.write             0x9d059b7c           0x8c         140   
.text.SHA1Initialize    0x9d059c08           0x88         136   
.text._SysGetCDevEntry  0x9d059c90           0x88         136   
.text.DHCPDeInit        0x9d059d18           0x88         136   
.text.PIC32MACGetArray  0x9d059da0           0x88         136   
.text._MacFreeCallback  0x9d059e28           0x88         136   
.text.TCP_IsTxPutReady  0x9d059eb0           0x88         136   
.text.TCP_PutHeader     0x9d059f38           0x88         136   
.text._TCPIPStackIpAddT 0x9d059fc0           0x88         136   
.text._TCPIPStackMacToN 0x9d05a048           0x88         136   
.text.TCPIP_STACK_NetBc 0x9d05a0d0           0x88         136   
.text.TcpipStackFindMac 0x9d05a158           0x88         136   
.text.mDNSDeinitialize  0x9d05a1e0           0x88         136   
.text.Read16BitWFRegist 0x9d05a268           0x88         136   
.text.Write16BitWFRegis 0x9d05a2f0           0x88         136   
.text.WriteWFArray      0x9d05a378           0x88         136   
.text.WF_RtsThresholdSe 0x9d05a400           0x88         136   
.text.SendSetParamMsg   0x9d05a488           0x88         136   
.text.LFSRSeedRand      0x9d05a510           0x84         132   
.text._SYS_CONSOLE_PRIN 0x9d05a594           0x84         132   
.text.SYS_RANDOM_GET    0x9d05a618           0x84         132   
.text.DRV_MEDIA_ReadSet 0x9d05a69c           0x84         132   
.text.EthPhyGetLinkStat 0x9d05a720           0x84         132   
.text.OAHashInit        0x9d05a7a4           0x84         132   
.text.SSLMACAdd         0x9d05a828           0x84         132   
.text._TCPIP_HEAP_Callo 0x9d05a8ac           0x84         132   
.text.TcpipStackFindMod 0x9d05a930           0x84         132   
.text.ZeroconfLLDeiniti 0x9d05a9b4           0x84         132   
.text.WF_AdhocContextSe 0x9d05aa38           0x84         132   
.text.mrf24w_MACPowerMo 0x9d05aabc           0x84         132   
.text.MRF24W_ISR        0x9d05ab40           0x84         132   
.rodata                 0x9d05abc4           0x84         132  Read-only const 
.text.HTTPCheckAuth     0x9d05ac48           0x84         132   
.text._EthTxSchedList   0x9d05accc           0x84         132   
.text.atoi              0x9d05ad50           0x84         132   
.text.EthPhyRestartNego 0x9d05add4           0x80         128   
.text.TCPIP_IPV4_FlushD 0x9d05ae54           0x80         128   
.text.TCPDisconnect     0x9d05aed4           0x80         128   
.text.TCPSocketSetNet   0x9d05af54           0x80         128   
.text.TCP_IsTxReady     0x9d05afd4           0x80         128   
.text.TCP_CopyTxPacketS 0x9d05b054           0x80         128   
.text._Udpv4AckFnc      0x9d05b0d4           0x80         128   
.text.TCPIP_STACK_SetNe 0x9d05b154           0x80         128   
.text.SetWpaSecurity    0x9d05b1d4           0x80         128   
.text.ValidateConfig    0x9d05b254           0x80         128   
.text.ScratchMount      0x9d05b2d4           0x80         128   
.text.ProcessNotificati 0x9d05b354           0x80         128   
.text._SYS_CMDIO_GET_HA 0x9d05b3d4           0x7c         124   
.text.SYS_FS_setdefdir  0x9d05b450           0x7c         124   
.text.RSASetN           0x9d05b4cc           0x7c         124   
.text.SSLRSAOperation   0x9d05b548           0x7c         124   
.text.TCPFind           0x9d05b5c4           0x7c         124   
.text.TCP_Flush         0x9d05b640           0x7c         124   
.text.TCPIP_STACK_SetNe 0x9d05b6bc           0x7c         124   
.text.TCPIPCommandsDeIn 0x9d05b738           0x7c         124   
.text._ZCLLDisable      0x9d05b7b4           0x7c         124   
.text.MRF24W_MACGetConf 0x9d05b830           0x7c         124   
.text.CommandIw_saveCon 0x9d05b8ac           0x7c         124   
.text.DeallocateDataRxB 0x9d05b928           0x7c         124   
.text.HTTPPrint_config_ 0x9d05b9a4           0x7c         124   
.text.LFSRRand          0x9d05ba20           0x78         120   
.text.SYS_TICK_TimerSet 0x9d05ba98           0x78         120   
.text.DHCPDeRegisterHan 0x9d05bb10           0x78         120   
.text.DNSClientDeInit   0x9d05bb88           0x78         120   
.rodata                 0x9d05bc00           0x78         120  Read-only const 
.text.PIC32MACPutArray  0x9d05bc78           0x78         120   
.text.TelnetGETC        0x9d05bcf0           0x78         120   
.text.SetWepSecurity    0x9d05bd68           0x78         120   
.text.ResetPll          0x9d05bde0           0x78         120   
.text.SendRAWDataFrame  0x9d05be58           0x78         120   
.text.MRF24W_MACFlush   0x9d05bed0           0x78         120   
.text.SoftReset         0x9d05bf48           0x78         120   
.text.rand              0x9d05bfc0           0x78         120   
.text.strstr            0x9d05c038           0x78         120   
.text.MD5Initialize     0x9d05c0b0           0x74         116   
.text.BigIntSquare      0x9d05c124           0x74         116   
.text.BigIntAdd         0x9d05c198           0x74         116   
.text.BigIntSubtract    0x9d05c20c           0x74         116   
.text.SYS_RANDOM_ADD    0x9d05c280           0x74         116   
.text.CommandCleanup    0x9d05c2f4           0x74         116   
.text.SYS_FS_IsLegalDir 0x9d05c368           0x74         116   
.text.TCPIP_IPV4_SetTxB 0x9d05c3dc           0x74         116   
.text.HSStart           0x9d05c450           0x74         116   
.text.TCPSSLIsHandshaki 0x9d05c4c4           0x74         116   
.text.TCPIsSSL          0x9d05c538           0x74         116   
.text.TCP_GetUpperLayer 0x9d05c5ac           0x74         116   
.text.TCP_IsPacketQueue 0x9d05c620           0x74         116   
.text.TCP_ResetTransmit 0x9d05c694           0x74         116   
.text._TCPIP_HEAP_FreeD 0x9d05c708           0x74         116   
.text.TelnetClose       0x9d05c77c           0x74         116   
.text.TelnetPUTC        0x9d05c7f0           0x74         116   
.text.TelnetPRINT       0x9d05c864           0x74         116   
.text.UDPIsConnected    0x9d05c8d8           0x74         116   
.text._TCPIPStackIsAddr 0x9d05c94c           0x74         116   
.text.WF_PsPollDisable  0x9d05c9c0           0x74         116   
.text.EnsureWFisAwake   0x9d05ca34           0x74         116   
.text.RawRead           0x9d05caa8           0x74         116   
.text.RawWrite          0x9d05cb1c           0x74         116   
.text.RawInit           0x9d05cb90           0x74         116   
.text.HTTPPrint_pot     0x9d05cc04           0x74         116   
.text.HTTPPrint_config_ 0x9d05cc78           0x74         116   
.text.BigInt            0x9d05ccec           0x70         112   
.text.BigIntCopy        0x9d05cd5c           0x70         112   
.text.SYS_INT_SourceRes 0x9d05cdcc           0x70         112   
.text._sys_CONSOLE_PRIN 0x9d05ce3c           0x70         112   
.text._ARPDeleteCache   0x9d05ceac           0x70         112   
.text.EthPhyGetHwConfig 0x9d05cf1c           0x70         112   
.text.PIC32MACCalcRxChe 0x9d05cf8c           0x70         112   
.text.ICMPInitialize    0x9d05cffc           0x70         112   
.text.TCPIP_IPV4_Single 0x9d05d06c           0x70         112   
.text.NBNSInit          0x9d05d0dc           0x70         112   
.text.RSAEndUsage       0x9d05d14c           0x70         112   
.text.TCPPutString      0x9d05d1bc           0x70         112   
.text.TelnetMSG         0x9d05d22c           0x70         112   
.text.TCPIP_STACK_SetDe 0x9d05d29c           0x70         112   
.text.WF_Connect        0x9d05d30c           0x70         112   
.text.MRF24W_MACOpen    0x9d05d37c           0x70         112   
.text.Write8BitWFRegist 0x9d05d3ec           0x70         112   
.text.HTTPPrint_config_ 0x9d05d45c           0x70         112   
.text.HTTPPrint_config_ 0x9d05d4cc           0x70         112   
.text.HTTPPrint_config_ 0x9d05d53c           0x70         112   
.text.HTTPPrint_config_ 0x9d05d5ac           0x70         112   
.text.HTTPPrint_config_ 0x9d05d61c           0x70         112   
.text.CommandReset      0x9d05d68c           0x6c         108   
.text._ARPRefreshEntry  0x9d05d6f8           0x6c         108   
.text.ARPDeRegisterCall 0x9d05d764           0x6c         108   
.text.TCPSSLHandshakeCo 0x9d05d7d0           0x6c         108   
.text.TcpClientIpv4Remo 0x9d05d83c           0x6c         108   
.text.TCPIP_HEAP_FreeSi 0x9d05d8a8           0x6c         108   
.text.TCPIP_HEAP_LastEr 0x9d05d914           0x6c         108   
.rodata                 0x9d05d980           0x6c         108  Read-only const 
.text.ProcessTCPIPMacGe 0x9d05d9ec           0x6c         108   
.text.TCPIP_STACK_NetGa 0x9d05da58           0x6c         108   
.text.TCPIP_STACK_NetPr 0x9d05dac4           0x6c         108   
.text.TCPIP_STACK_NetSe 0x9d05db30           0x6c         108   
.text.TCPIP_STACK_NetBI 0x9d05db9c           0x6c         108   
.text.TCPIP_STACK_Filte 0x9d05dc08           0x6c         108   
.text.StateMachineTxSta 0x9d05dc74           0x6c         108   
.text.TCPIP_Notificatio 0x9d05dce0           0x6c         108   
.text.SendPowerModeMsg  0x9d05dd4c           0x6c         108   
.text.WIFICommandsInit  0x9d05ddb8           0x6c         108   
.text.Read8BitWFRegiste 0x9d05de24           0x6c         108   
.text.MRF24W_MACInit    0x9d05de90           0x6c         108   
.text._EthPoolFreeDcptL 0x9d05defc           0x6c         108   
.text.BigIntZero        0x9d05df68           0x68         104   
.text.SYS_USERIO_Button 0x9d05dfd0           0x68         104   
.text.MPFSGetPosition   0x9d05e038           0x68         104   
.text.OAHashGetEntry    0x9d05e0a0           0x68         104   
.text.TCPIP_IPV4_FreePa 0x9d05e108           0x68         104   
.text.RSASetResult      0x9d05e170           0x68         104   
.text._TcpSocketBind    0x9d05e1d8           0x68         104   
.text._TcpSocketChk     0x9d05e240           0x68         104   
.text._TcpFlush         0x9d05e2a8           0x68         104   
.text.TCPIsGetReady     0x9d05e310           0x68         104   
.text.TCPGetRxFIFOFree  0x9d05e378           0x68         104   
.text.TelnetDATA_RDY    0x9d05e3e0           0x68         104   
.text._UdpSocketBind    0x9d05e448           0x68         104   
.text.UDPSocketGetNet   0x9d05e4b0           0x68         104   
.text.MACPutHeader      0x9d05e518           0x68         104   
.text.TCPIP_STACK_NetNa 0x9d05e580           0x68         104   
.text.StateMachineTcpRx 0x9d05e5e8           0x68         104   
.text.TCPIP_Notificatio 0x9d05e650           0x68         104   
.text.isDisconnectAllow 0x9d05e6b8           0x68         104   
.rodata                 0x9d05e720           0x68         104  Read-only const 
.text.MRF24W_MACEventDe 0x9d05e788           0x68         104   
.text.CommandIw_eraseCo 0x9d05e7f0           0x68         104   
.text.CommandIw_readCon 0x9d05e858           0x68         104   
.text.RawCalculateCheck 0x9d05e8c0           0x68         104   
.text.MRF24W_MACPutArra 0x9d05e928           0x68         104   
.rodata                 0x9d05e990           0x68         104  Read-only const 
.text.btohexa_high      0x9d05e9f8           0x64         100   
.text.btohexa_low       0x9d05ea5c           0x64         100   
.text.MPFSClose         0x9d05eac0           0x64         100   
.text.DRV_MEDIA_ReadByt 0x9d05eb24           0x64         100   
.text.DHCPIsEnabled     0x9d05eb88           0x64         100   
.text.TCPIP_IPV4_GetDat 0x9d05ebec           0x64         100   
.text.TCPSocketGetNet   0x9d05ec50           0x64         100   
.text._TCPIPStackIsNetL 0x9d05ecb4           0x64         100   
.text.TCPIP_Notificatio 0x9d05ed18           0x64         100   
.text.ZCLLIsEnabled     0x9d05ed7c           0x64         100   
.text.WF_CPCreate       0x9d05ede0           0x64         100   
.text.MRF24W_MACEventSe 0x9d05ee44           0x64         100   
.text.WF_RtsThresholdGe 0x9d05eea8           0x64         100   
.text._sprintf_cdnopsux 0x9d05ef0c           0x64         100   
.text.SYS_DRIVERS_Initi 0x9d05ef70           0x60          96   
.text.USART_PUTC        0x9d05efd0           0x60          96   
.text.ICMPDeinitialize  0x9d05f030           0x60          96   
.text.TCPIP_IPV4_SetRxB 0x9d05f090           0x60          96   
.text.TcpSocketGetSSLId 0x9d05f0f0           0x60          96   
.text.TCP_FreePacket    0x9d05f150           0x60          96   
.text.TCPIP_HEAP_Size   0x9d05f1b0           0x60          96   
.text.MACCalcRxChecksum 0x9d05f210           0x60          96   
.rodata                 0x9d05f270           0x60          96  Read-only const 
.text.mDNSResetCounters 0x9d05f2d0           0x60          96   
.text.mDNSAnnounce      0x9d05f330           0x60          96   
.text.ConfigureSpiMRF24 0x9d05f390           0x60          96   
.text.MRF24W_MACDeiniti 0x9d05f3f0           0x60          96   
.text.mrf24w_MACSetRXHa 0x9d05f450           0x60          96   
.text.WiFi_EintTask     0x9d05f4b0           0x60          96   
.text.HTTPPrint_reboota 0x9d05f510           0x60          96   
.text.EthMIIMConfig     0x9d05f570           0x60          96   
.text.strcspn           0x9d05f5d0           0x60          96   
.text.strspn            0x9d05f630           0x60          96   
.text.SYS_INT_SourceDis 0x9d05f690           0x5c          92   
.text.SYS_INT_PriorityS 0x9d05f6ec           0x5c          92   
.text.SYS_INT_Subpriori 0x9d05f748           0x5c          92   
.text.MPFSGetLong       0x9d05f7a4           0x5c          92   
.text.ARPProbe          0x9d05f800           0x5c          92   
.text._DHCPCleanup      0x9d05f85c           0x5c          92   
.text.PIC32MACCalcIPBuf 0x9d05f8b8           0x5c          92   
.text.OAHashRemoveEntry 0x9d05f914           0x5c          92   
.text.TCPFlush          0x9d05f970           0x5c          92   
.text.MACGetArray       0x9d05f9cc           0x5c          92   
.text.MACPutArray       0x9d05fa28           0x5c          92   
.text.MACEventSetNotify 0x9d05fa84           0x5c          92   
.text.TCPIP_STACK_SetNe 0x9d05fae0           0x5c          92   
.text.TCPIP_STACK_SetNe 0x9d05fb3c           0x5c          92   
.text._TCPIPStackNetAdd 0x9d05fb98           0x5c          92   
.text._TCPIPStackNetMas 0x9d05fbf4           0x5c          92   
.text._TCPIPStackNetMac 0x9d05fc50           0x5c          92   
.text.SetListenInterval 0x9d05fcac           0x5c          92   
.text.SetDtimInterval   0x9d05fd08           0x5c          92   
.text.WF_SecurityWepSet 0x9d05fd64           0x5c          92   
.text.WF_SecurityWpaSet 0x9d05fdc0           0x5c          92   
.text.WF_SecurityWpsSet 0x9d05fe1c           0x5c          92   
.text.WF_EintIsPending  0x9d05fe78           0x5c          92   
.text.mrf24w_MACPutHead 0x9d05fed4           0x5c          92   
.text.SignalWiFiConnect 0x9d05ff30           0x5c          92   
.text.MRF24W_MACIsTxRea 0x9d05ff8c           0x5c          92   
.text.BigIntMagnitudeDi 0x9d05ffe8           0x58          88   
.text.SYS_INT_SourceEna 0x9d060040           0x58          88   
.text.USART_OPEN        0x9d060098           0x58          88   
.text.USART_GETC        0x9d0600f0           0x58          88   
.text.WaitForDataByte   0x9d060148           0x58          88   
.text.DB_APPIO_PRINT    0x9d0601a0           0x58          88   
.text.ARPHashKeyHash    0x9d0601f8           0x58          88   
.text._MACDeinit        0x9d060250           0x58          88   
.text._TcpipHeapHandleT 0x9d0602a8           0x58          88   
.text.TelnetDeregister  0x9d060300           0x58          88   
.text.TCPIP_STACK_IxToN 0x9d060358           0x58          88   
.text._TCPIPStackIsNetU 0x9d0603b0           0x58          88   
.text.TCPIP_HELPER_Powe 0x9d060408           0x58          88   
.text.StateMachineTcpTx 0x9d060460           0x58          88   
.text.WF_NetworkTypeSet 0x9d0604b8           0x58          88   
.text.mrf24w_MACCalcRxC 0x9d060510           0x58          88   
.text.MRF24W_MACCalcIPB 0x9d060568           0x58          88   
.text.WF_ConfigDataEras 0x9d0605c0           0x58          88   
.text.HTTPPrint_ddns_st 0x9d060618           0x58          88   
.text.HTTPPrint_smtps_e 0x9d060670           0x58          88   
.text.HTTPPrint_snmp_en 0x9d0606c8           0x58          88   
.text.SYS_INT_SourceSta 0x9d060720           0x54          84   
.text._SYS_CONSOLE_PUTC 0x9d060774           0x54          84   
.text.DB_APPIO_INIT     0x9d0607c8           0x54          84   
.text._Phy2LinkStat     0x9d06081c           0x54          84   
.text.PIC32MACGetTxBase 0x9d060870           0x54          84   
.text._ICMPAckPacket    0x9d0608c4           0x54          84   
.text.SMTPIsPutReady    0x9d060918           0x54          84   
.text._TcpDiscardTx     0x9d06096c           0x54          84   
.text.TCPPut            0x9d0609c0           0x54          84   
.text._UdpSocketInit    0x9d060a14           0x54          84   
.text.UDPPut            0x9d060a68           0x54          84   
.text.MACGetHeader      0x9d060abc           0x54          84   
.text.MACSetReadPtrInRx 0x9d060b10           0x54          84   
.text.MACCalcIPBufferCh 0x9d060b64           0x54          84   
.text.MACSetRXHashTable 0x9d060bb8           0x54          84   
.text.MACEventSetNotify 0x9d060c0c           0x54          84   
.text.MACEventAck       0x9d060c60           0x54          84   
.text._TCPIPStackAddres 0x9d060cb4           0x54          84   
.text._TCPIPStackAddres 0x9d060d08           0x54          84   
.text.mrf24w_MACDeiniti 0x9d060d5c           0x54          84   
.text.HTTPPrint_version 0x9d060db0           0x54          84   
.rodata                 0x9d060e04           0x54          84  Read-only const 
.text.calloc            0x9d060e58           0x54          84   
.text._vsnprintf_cdnops 0x9d060eac           0x54          84   
.text.vsnprintf         0x9d060f00           0x54          84   
.text.BigIntMagnitude   0x9d060f54           0x50          80   
.rodata                 0x9d060fa4           0x50          80  Read-only const 
.text._SYS_CONSOLE_MESS 0x9d060ff4           0x50          80   
.text._FlashMediaRead   0x9d061044           0x50          80   
.text._TCPIP_AnnounceCl 0x9d061094           0x50          80   
.text.HTTPPrint_        0x9d0610e4           0x50          80   
.text.ARPHashKeyCompare 0x9d061134           0x50          80   
.text._DNSReleaseSocket 0x9d061184           0x50          80   
.text.PIC32MACSetReadPt 0x9d0611d4           0x50          80   
.text.SMTPSendMail      0x9d061224           0x50          80   
.text.SSLSave           0x9d061274           0x50          80   
.text.SSLLoad           0x9d0612c4           0x50          80   
.text._ZCLLCleanup      0x9d061314           0x50          80   
.text.WF_SpiInit        0x9d061364           0x50          80   
.text.mrf24w_MACEventSe 0x9d0613b4           0x50          80   
.text.MRF24W_GetTraffic 0x9d061404           0x50          80   
.text.MRF24W_GetMgmtEve 0x9d061454           0x50          80   
.text.SignalDHCPSuccess 0x9d0614a4           0x50          80   
.text.MRF24W_MACSetWrit 0x9d0614f4           0x50          80   
.text.MRF24W_MACSetRead 0x9d061544           0x50          80   
.text.MRF24W_MACSetBase 0x9d061594           0x50          80   
.text.StackNotification 0x9d0615e4           0x50          80   
.text.strncpy           0x9d061634           0x50          80   
.text.DRV_SPI_Initializ 0x9d061684           0x4c          76   
.text.DB_APPIO_GETS     0x9d0616d0           0x4c          76   
.text.PIC32MACSetWriteP 0x9d06171c           0x4c          76   
.text.PIC32MACSetReadPt 0x9d061768           0x4c          76   
.text.PIC32MACSetBaseRe 0x9d0617b4           0x4c          76   
.text.PIC32MACEventGetP 0x9d061800           0x4c          76   
.text.TCPGet            0x9d06184c           0x4c          76   
.text.UDPGet            0x9d061898           0x4c          76   
.text.MACSetWritePtr    0x9d0618e4           0x4c          76   
.text.MACSetReadPtr     0x9d061930           0x4c          76   
.text.MACEventGetPendin 0x9d06197c           0x4c          76   
.text.CommandDhcpOnOff  0x9d0619c8           0x4c          76   
.text.CommandDhcpSOnOff 0x9d061a14           0x4c          76   
.text.CommandZcllOnOff  0x9d061a60           0x4c          76   
.text.WF_ChannelListSet 0x9d061aac           0x4c          76   
.text.WF_EintEnable     0x9d061af8           0x4c          76   
.text.DhcpEventHandler  0x9d061b44           0x4c          76   
.text.mrf24w_MACPutArra 0x9d061b90           0x4c          76   
.text.mrf24w_MACGetArra 0x9d061bdc           0x4c          76   
.text.MRF24W_MACEventAc 0x9d061c28           0x4c          76   
.text.SendRAWManagement 0x9d061c74           0x4c          76   
.text.ScratchUnmount    0x9d061cc0           0x4c          76   
.text.MRF24W_MACSetRead 0x9d061d0c           0x4c          76   
.text.EthMACSetAddress  0x9d061d58           0x4c          76   
.text.INTEnable         0x9d061da4           0x4c          76   
.text                   0x9d061df0           0x4c          76  App's exec code 
.text._bufallo          0x9d061e3c           0x4c          76   
.text.SYS_CLK_Periphera 0x9d061e88           0x48          72   
.text._SYS_CONSOLE_DATA 0x9d061ed0           0x48          72   
.text._SYS_CONSOLE_GETC 0x9d061f18           0x48          72   
.rodata                 0x9d061f60           0x48          72  Read-only const 
.text.DB_APPIO_GETC     0x9d061fa8           0x48          72   
.text.DB_APPIO_PUTC     0x9d061ff0           0x48          72   
.text.HTTPCurConnection 0x9d062038           0x48          72   
.text.ARPHashKeyCopy    0x9d062080           0x48          72   
.text.DNSEndUsage       0x9d0620c8           0x48          72   
.text._PhyReadReg       0x9d062110           0x48          72   
.text.PIC32MACClose     0x9d062158           0x48          72   
.text.TCPIP_IPV4_SetSou 0x9d0621a0           0x48          72   
.text.TCPIP_STACK_NetIx 0x9d0621e8           0x48          72   
.text.TCPIP_STACK_NetAd 0x9d062230           0x48          72   
.text.TCPIP_STACK_NetMa 0x9d062278           0x48          72   
.text.TCPIP_STACK_NetMa 0x9d0622c0           0x48          72   
.text.TCPIP_STACK_IsNet 0x9d062308           0x48          72   
.text.StateMachineUdpTx 0x9d062350           0x48          72   
.text.SetHiddenSsid     0x9d062398           0x48          72   
.text.isEventNotifyBitS 0x9d0623e0           0x48          72   
.text.mrf24w_MACCalcIPB 0x9d062428           0x48          72   
.text.mrf24w_MACEventSe 0x9d062470           0x48          72   
.text.mrf24w_MACEventCl 0x9d0624b8           0x48          72   
.text.mrf24w_MACEventAc 0x9d062500           0x48          72   
.text.MRF24W_MACEventCl 0x9d062548           0x48          72   
.text.OutputPowerSaveMo 0x9d062590           0x48          72   
.text.WFEnableMRF24WMod 0x9d0625d8           0x48          72   
.text._DefaultInterrupt 0x9d062620           0x48          72   
.text.sbrk              0x9d062668           0x48          72   
.text.SYS_CLK_ClockGet  0x9d0626b0           0x44          68   
.text._sys_CONSOLE_PUTC 0x9d0626f4           0x44          68   
.text.MPFSGetID         0x9d062738           0x44          68   
.text.USART_DATA_RDY    0x9d06277c           0x44          68   
.text.TCPIP_IPV4_SetPac 0x9d0627c0           0x44          68   
.text.SSLGetBuffer      0x9d062804           0x44          68   
.text.MACClose          0x9d062848           0x44          68   
.text.MACDiscardRx      0x9d06288c           0x44          68   
.text.MACIsTxReady      0x9d0628d0           0x44          68   
.text.MACFlush          0x9d062914           0x44          68   
.text.MACCheckLink      0x9d062958           0x44          68   
.text.MACGetTxBaseAddr  0x9d06299c           0x44          68   
.text.TCPIP_STACK_NetHa 0x9d0629e0           0x44          68   
.text._TCPIPStackNetIx  0x9d062a24           0x44          68   
.text._TCPIPStackSetGat 0x9d062a68           0x44          68   
.text._TCPIPStackSetPri 0x9d062aac           0x44          68   
.text._TCPIPStackSetSec 0x9d062af0           0x44          68   
.text._TCPIPStackNetMac 0x9d062b34           0x44          68   
.text._TCPIPStackNetToM 0x9d062b78           0x44          68   
.text.SingleListInit    0x9d062bbc           0x44          68   
.text.WF_ConnectContext 0x9d062c00           0x44          68   
.rodata                 0x9d062c44           0x44          68  Read-only const 
.text.WF_NetworkTypeGet 0x9d062c88           0x44          68   
.text.WF_WepKeyTypeGet  0x9d062ccc           0x44          68   
.text.SetAdHocMode      0x9d062d10           0x44          68   
.rodata                 0x9d062d54           0x44          68  Read-only const 
.text.mrf24w_MACGetHead 0x9d062d98           0x44          68   
.text.mrf24w_MACSetRead 0x9d062ddc           0x44          68   
.text.MRF24W_MACProcess 0x9d062e20           0x44          68   
.text.RawGetMgmtRxBuffe 0x9d062e64           0x44          68   
.text.WF_SetWPATimeout  0x9d062ea8           0x44          68   
.text.WF_SetTxMode      0x9d062eec           0x44          68   
.text.WF_SetTxDataConfi 0x9d062f30           0x44          68   
.text.EthMIIMReadStart  0x9d062f74           0x44          68   
.text.strncmp           0x9d062fb8           0x44          68   
.text                   0x9d062ffc           0x44          68  App's exec code 
.text.DB_APPIO_OPEN     0x9d063040           0x40          64   
.text.HTTPCurConnection 0x9d063080           0x40          64   
.text.HTTPCurConnection 0x9d0630c0           0x40          64   
.rodata                 0x9d063100           0x40          64  Read-only const 
.text._TxAckCallback    0x9d063140           0x40          64   
.text.TCPIP_IPV4_Task   0x9d063180           0x40          64   
.text.UDPResetHeader    0x9d0631c0           0x40          64   
.text.WF_CASetEventNoti 0x9d063200           0x40          64   
.text.WF_SecurityOpenSe 0x9d063240           0x40          64   
.text.MRF24W_MACConnect 0x9d063280           0x40          64   
.text.mrf24w_MACEventGe 0x9d0632c0           0x40          64   
.text.DeallocateMgmtRxB 0x9d063300           0x40          64   
.text.MRF24W_MACDiscard 0x9d063340           0x40          64   
.text.WF_GetTxMode      0x9d063380           0x40          64   
.text.WF_MacAddressSet  0x9d0633c0           0x40          64   
.text.WF_MacAddressGet  0x9d063400           0x40          64   
.text.WF_RegionalDomain 0x9d063440           0x40          64   
.text.SpiChnDataRdy     0x9d063480           0x40          64   
.text._sys_CONSOLE_MESS 0x9d0634c0           0x3c          60   
.text.HTTPCurConnection 0x9d0634fc           0x3c          60   
.text.HTTPCurConnection 0x9d063538           0x3c          60   
.text._ARPDeleteClients 0x9d063574           0x3c          60   
.text.ARPTmoHandler     0x9d0635b0           0x3c          60   
.text.TCPIP_IPV4_GetUpp 0x9d0635ec           0x3c          60   
.text.TCPIP_IPV4_GetPay 0x9d063628           0x3c          60   
.rodata                 0x9d063664           0x78         120  Read-only const 
.text.WifiAsyncSetEvent 0x9d0636dc           0x3c          60   
.text.mrf24w_MACSetWrit 0x9d063718           0x3c          60   
.text.mrf24w_MACSetRead 0x9d063754           0x3c          60   
.text.mrf24w_MACSetBase 0x9d063790           0x3c          60   
.text.EthRxGetBuffer    0x9d0637cc           0x3c          60   
.text.EthMIIMWriteStart 0x9d063808           0x3c          60   
.text.PORTSetPinsDigita 0x9d063844           0x3c          60   
.text.PORTSetPinsDigita 0x9d063880           0x3c          60   
.text                   0x9d0638bc           0x38          56  App's exec code 
.text.SYS_Tasks         0x9d0638f4           0x38          56   
.text._OAHashProbeStep  0x9d06392c           0x38          56   
.text.SMTPFlush         0x9d063964           0x38          56   
.rodata                 0x9d06399c           0x38          56  Read-only const 
.text.RenewDhcp         0x9d0639d4           0x38          56   
.text.mrf24w_MACClose   0x9d063a0c           0x38          56   
.rodata                 0x9d063a44           0x70         112  Read-only const 
.text.INTSetVectorPrior 0x9d063ab4           0x38          56   
.text.INTSetVectorSubPr 0x9d063aec           0x38          56   
.text._sys_CONSOLE_DATA 0x9d063b24           0x34          52   
.text._sys_CONSOLE_GETC 0x9d063b58           0x34          52   
.text.DRV_MEDIA_ClientS 0x9d063b8c           0x34          52   
.text.HTTPCurConnection 0x9d063bc0           0x34          52   
.text.HTTPCurConnection 0x9d063bf4           0x34          52   
.text.HTTPCurConnection 0x9d063c28           0x34          52   
.text.HTTPCurConnection 0x9d063c5c           0x34          52   
.text.HTTPCurConnection 0x9d063c90           0x34          52   
.text.PIC32MACGetReadPt 0x9d063cc4           0x34          52   
.text.TCPIP_IPV4_SetDes 0x9d063cf8           0x34          52   
.text.TCPIP_IPV4_GetDes 0x9d063d2c           0x34          52   
.text.TCPIP_IPV4_GetSou 0x9d063d60           0x34          52   
.text.ProcessTCPIPMacEr 0x9d063d94           0x34          52   
.rodata                 0x9d063dc8           0x34          52  Read-only const 
.text.WF_EintIsDisabled 0x9d063dfc           0x34          52   
.text.WF_DeInit         0x9d063e30           0x34          52   
.text.WF_SpiDisableChip 0x9d063e64           0x34          52   
.text.mrf24w_MACGetRead 0x9d063e98           0x34          52   
.text.mrf24w_MACIsTxRea 0x9d063ecc           0x34          52   
.text.mrf24w_MACFlush   0x9d063f00           0x34          52   
.text.mrf24w_MACDiscard 0x9d063f34           0x34          52   
.text.mrf24w_MACCheckLi 0x9d063f68           0x34          52   
.text.SetNetworkConfig  0x9d063f9c           0x34          52   
.rodata                 0x9d063fd0           0x34          52  Read-only const 
.text.HTTPPrint_reboot  0x9d064004           0x34          52   
.text.INTEnableSystemMu 0x9d064038           0x34          52   
.text.SYS_USERIO_Tasks  0x9d06406c           0x30          48   
.text.SYS_FS_mpfs2fs_In 0x9d06409c           0x30          48   
.text.TCPIP_IPV4_TmoHan 0x9d0640cc           0x30          48   
.text.SMTPPutDone       0x9d0640fc           0x30          48   
.text._TcpTmoHandler    0x9d06412c           0x30          48   
.text.TCPIP_HEAP_TraceG 0x9d06415c           0x30          48   
.text.TCPIP_HEAP_TraceG 0x9d06418c           0x30          48   
.text.TCPIP_STACK_TickH 0x9d0641bc           0x30          48   
.text.SetEventNotificat 0x9d0641ec           0x30          48   
.text.SetLogicalConnect 0x9d06421c           0x30          48   
.text.SetAppPowerSaveMo 0x9d06424c           0x30          48   
.text.WF_GetPowerSaveSt 0x9d06427c           0x30          48   
.text.SetPowerSaveState 0x9d0642ac           0x30          48   
.text.WF_SpiEnableChipS 0x9d0642dc           0x30          48   
.rodata                 0x9d06430c           0x30          48  Read-only const 
.text.MRF24W_MACCheckLi 0x9d06433c           0x30          48   
.text.EthTxAcknowledgeB 0x9d06436c           0x30          48   
.text.EthRxSetBufferSiz 0x9d06439c           0x30          48   
.text.strcat            0x9d0643cc           0x30          48   
.text.SYS_WDT_Clear     0x9d0643fc           0x2c          44   
.text.TCPIP_ANNOUNCE_Ta 0x9d064428           0x2c          44   
.text.ARPTaskPending    0x9d064454           0x2c          44   
.text.PIC32MACPowerMode 0x9d064480           0x2c          44   
.text.TCPIP_IPV4_TaskPe 0x9d0644ac           0x2c          44   
.text.SMTPClientInit    0x9d0644d8           0x2c          44   
.text.SMTPIsBusy        0x9d064504           0x2c          44   
.text.SSLTaskPending    0x9d064530           0x2c          44   
.text.TCPTaskPending    0x9d06455c           0x2c          44   
.text.WF_EintDisable    0x9d064588           0x2c          44   
.text.WiFiAsyncTaskPend 0x9d0645b4           0x2c          44   
.rodata                 0x9d0645e0           0x2c          44  Read-only const 
.text.MRF24W_MACEventGe 0x9d06460c           0x2c          44   
.text.HTTPPrint_read_co 0x9d064638           0x2c          44   
.text.HTTPPrint_write_c 0x9d064664           0x2c          44   
.text.HTTPPrint_ddns_se 0x9d064690           0x2c          44   
.text.EthMIIMReadResult 0x9d0646bc           0x2c          44   
.text.strchr            0x9d0646e8           0x2c          44   
.text._stub_sbd_memlayo 0x9d064714           0x2c          44   
.text.SYS_FS_GenError   0x9d064740           0x28          40   
.rodata                 0x9d064768           0x28          40  Read-only const 
.text.DB_APPIO_DATA_RDY 0x9d064790           0x28          40   
.text._FlashMediaInit   0x9d0647b8           0x28          40   
.text.DHCPServerDisable 0x9d0647e0           0x28          40   
.text.DHCPServerEnable  0x9d064808           0x28          40   
.text.DHCPServerIsEnabl 0x9d064830           0x28          40   
.text.EthPhyMIIMClock   0x9d064858           0x28          40   
.text.SetSleepNeeded    0x9d064880           0x28          40   
.text.mrf24w_MACGetTxBa 0x9d0648a8           0x28          40   
.text.WF_OutputConnecti 0x9d0648d0           0x28          40   
.text.SetDhcpProgressSt 0x9d0648f8           0x28          40   
.text.SignalMgmtConfirm 0x9d064920           0x28          40   
.text.WiFiMemory_write  0x9d064948           0x28          40   
.text.WiFiMemory_read   0x9d064970           0x28          40   
.text.INTClearFlag      0x9d064998           0x28          40   
.text.EthPhyMIIMAddress 0x9d0649c0           0x24          36   
.text.SMTPClientDeInit  0x9d0649e4           0x24          36   
.text.TCPSocketsNo      0x9d064a08           0x24          36   
.text.TCPIP_STACK_GetDe 0x9d064a2c           0x24          36   
.text.TCPIP_STACK_Netwo 0x9d064a50           0x24          36   
.text.TCPIP_IPERF_Deini 0x9d064a74           0x24          36   
.text.zcll_rand         0x9d064a98           0x24          36   
.text.GetEventNotificat 0x9d064abc           0x24          36   
.text.WFisConnected     0x9d064ae0           0x24          36   
.text.GetWiFiNetworkTyp 0x9d064b04           0x24          36   
.text.WifiAsyncClearAll 0x9d064b28           0x24          36   
.text.WF_ConfigDataSave 0x9d064b4c           0x24          36   
.text.isSleepNeeded     0x9d064b70           0x24          36   
.text.ClearSleepNeeded  0x9d064b94           0x24          36   
.text.GetAppPowerSaveMo 0x9d064bb8           0x24          36   
.text.InitPowerSaveTask 0x9d064bdc           0x24          36   
.text.isDhcpInProgress  0x9d064c00           0x24          36   
.text.GetReadPtrRawWind 0x9d064c24           0x24          36   
.text.GetNetworkConfig  0x9d064c48           0x24          36   
.text.MRF24W_MACGetRead 0x9d064c6c           0x24          36   
.text.HTTPPrint_lcdtext 0x9d064c90           0x24          36   
.text.HTTPPrint_ddns_us 0x9d064cb4           0x24          36   
.text.HTTPPrint_ddns_pa 0x9d064cd8           0x24          36   
.text.HTTPPrint_ddns_ho 0x9d064cfc           0x24          36   
.text._snprintf_cdnopsu 0x9d064d20           0x24          36   
.text.SetEapSecurity    0x9d064d44           0x20          32   
.text.MRF24W_MACPowerDo 0x9d064d64           0x20          32   
.text.MRF24W_MACPowerUp 0x9d064d84           0x20          32   
.text.SpiChnReadC       0x9d064da4           0x20          32   
.text.SpiChnWriteC      0x9d064dc4           0x20          32   
.text.SpiChnTxBuffEmpty 0x9d064de4           0x20          32   
.text.EthRxAcknowledgeB 0x9d064e04           0x1c          28   
.text.INTRestoreInterru 0x9d064e20           0x1c          28   
.text.free              0x9d064e3c           0x1c          28   
.text.srand             0x9d064e58           0x1c          28   
.text.SYS_Reboot        0x9d064e74           0x18          24   
.text.EthRxFiltersHTSet 0x9d064e8c           0x18          24   
.text.CheKseg0CacheOn   0x9d064ea4           0x18          24   
.text                   0x9d064ebc           0x18          24  App's exec code 
.rodata                 0x9d064ed4           0x14          20  Read-only const 
.text._buffree          0x9d064ee8           0x14          20   
.rodata                 0x9d064efc           0x20          32  Read-only const 
.text.EthEventsEnableSe 0x9d064f1c           0x10          16   
.text.EthEventsEnableCl 0x9d064f2c           0x10          16   
.text.EthRxFiltersSet   0x9d064f3c           0x10          16   
.text.EthRxFiltersClr   0x9d064f4c           0x10          16   
.rodata                 0x9d064f5c           0x1c          28  Read-only const 
.text.OpenCoreTimer     0x9d064f78            0xc          12   
.text._bootstrap_except 0x9d064f84            0xc          12   
.text.INTDisableInterru 0x9d064f90            0x8           8   
.text.INTEnableInterrup 0x9d064f98            0x8           8   
.text._on_reset         0x9d064fa0            0x8           8   
.text._on_bootstrap     0x9d064fa8            0x8           8   
.rodata                 0x9d064fb0            0xc          12  Read-only const 
      Total kseg0_program_mem used  :     0x64f9c      413596  78.9% of 0x80000

kseg0 Boot-Memory Usage
section                    address  length [bytes]      (dec)  Description
-------                 ----------  -------------------------  -----------
         Total kseg0_boot_mem used  :           0           0  <1% of 0x970

Exception-Memory Usage 
section                    address  length [bytes]      (dec)  Description
-------                 ----------  -------------------------  -----------
.app_excpt              0x9fc01180           0x10          16  General-Exception 
.vector_0               0x9fc01200            0x8           8  Interrupt Vector 0 
.vector_1               0x9fc01220            0x8           8  Interrupt Vector 1 
.vector_2               0x9fc01240            0x8           8  Interrupt Vector 2 
.vector_3               0x9fc01260            0x8           8  Interrupt Vector 3 
.vector_4               0x9fc01280            0x8           8  Interrupt Vector 4 
.vector_5               0x9fc012a0            0x8           8  Interrupt Vector 5 
.vector_6               0x9fc012c0            0x8           8  Interrupt Vector 6 
.vector_7               0x9fc012e0            0x8           8  Interrupt Vector 7 
.vector_8               0x9fc01300            0x8           8  Interrupt Vector 8 
.vector_9               0x9fc01320            0x8           8  Interrupt Vector 9 
.vector_10              0x9fc01340            0x8           8  Interrupt Vector 10 
.vector_11              0x9fc01360            0x8           8  Interrupt Vector 11 
.vector_12              0x9fc01380            0x8           8  Interrupt Vector 12 
.vector_13              0x9fc013a0            0x8           8  Interrupt Vector 13 
.vector_14              0x9fc013c0            0x8           8  Interrupt Vector 14 
.vector_15              0x9fc013e0            0x8           8  Interrupt Vector 15 
.vector_16              0x9fc01400            0x8           8  Interrupt Vector 16 
.vector_17              0x9fc01420            0x8           8  Interrupt Vector 17 
.vector_18              0x9fc01440            0x8           8  Interrupt Vector 18 
.vector_19              0x9fc01460            0x8           8  Interrupt Vector 19 
.vector_20              0x9fc01480            0x8           8  Interrupt Vector 20 
.vector_21              0x9fc014a0            0x8           8  Interrupt Vector 21 
.vector_22              0x9fc014c0            0x8           8  Interrupt Vector 22 
.vector_23              0x9fc014e0            0x8           8  Interrupt Vector 23 
.vector_24              0x9fc01500            0x8           8  Interrupt Vector 24 
.vector_25              0x9fc01520            0x8           8  Interrupt Vector 25 
.vector_26              0x9fc01540            0x8           8  Interrupt Vector 26 
.vector_27              0x9fc01560            0x8           8  Interrupt Vector 27 
.vector_28              0x9fc01580            0x8           8  Interrupt Vector 28 
.vector_29              0x9fc015a0            0x8           8  Interrupt Vector 29 
.vector_30              0x9fc015c0            0x8           8  Interrupt Vector 30 
.vector_31              0x9fc015e0            0x8           8  Interrupt Vector 31 
.vector_32              0x9fc01600            0x8           8  Interrupt Vector 32 
.vector_33              0x9fc01620            0x8           8  Interrupt Vector 33 
.vector_34              0x9fc01640            0x8           8  Interrupt Vector 34 
.vector_35              0x9fc01660            0x8           8  Interrupt Vector 35 
.vector_36              0x9fc01680            0x8           8  Interrupt Vector 36 
.vector_37              0x9fc016a0            0x8           8  Interrupt Vector 37 
.vector_38              0x9fc016c0            0x8           8  Interrupt Vector 38 
.vector_39              0x9fc016e0            0x8           8  Interrupt Vector 39 
.vector_40              0x9fc01700            0x8           8  Interrupt Vector 40 
.vector_41              0x9fc01720            0x8           8  Interrupt Vector 41 
.vector_42              0x9fc01740            0x8           8  Interrupt Vector 42 
.vector_43              0x9fc01760            0x8           8  Interrupt Vector 43 
.vector_44              0x9fc01780            0x8           8  Interrupt Vector 44 
.vector_45              0x9fc017a0            0x8           8  Interrupt Vector 45 
.vector_46              0x9fc017c0            0x8           8  Interrupt Vector 46 
.vector_47              0x9fc017e0            0x8           8  Interrupt Vector 47 
.vector_48              0x9fc01800            0x8           8  Interrupt Vector 48 
.vector_49              0x9fc01820            0x8           8  Interrupt Vector 49 
.vector_50              0x9fc01840            0x8           8  Interrupt Vector 50 
.vector_51              0x9fc01860            0x8           8  Interrupt Vector 51 
.vector_52              0x9fc01880            0x8           8  Interrupt Vector 52 
.vector_53              0x9fc018a0            0x8           8  Interrupt Vector 53 
.vector_54              0x9fc018c0            0x8           8  Interrupt Vector 54 
.vector_55              0x9fc018e0            0x8           8  Interrupt Vector 55 
.vector_56              0x9fc01900            0x8           8  Interrupt Vector 56 
.vector_57              0x9fc01920            0x8           8  Interrupt Vector 57 
.vector_58              0x9fc01940            0x8           8  Interrupt Vector 58 
.vector_59              0x9fc01960            0x8           8  Interrupt Vector 59 
.vector_60              0x9fc01980            0x8           8  Interrupt Vector 60 
.vector_61              0x9fc019a0            0x8           8  Interrupt Vector 61 
.vector_62              0x9fc019c0            0x8           8  Interrupt Vector 62 
.vector_63              0x9fc019e0            0x8           8  Interrupt Vector 63 
          Total exception_mem used  :       0x210         528  12.9% of 0x1000

kseg1 Boot-Memory Usage
section                    address  length [bytes]      (dec)  Description
-------                 ----------  -------------------------  -----------
.reset                  0xbfc00000          0x1f4         500  Reset handler 
.bev_excpt              0xbfc00380           0x10          16  BEV-Exception 
         Total kseg1_boot_mem used  :       0x204         516  44.2% of 0x490
        --------------------------------------------------------------------------
         Total Program Memory used  :     0x653b0      414640  77.9% of 0x81e00
        --------------------------------------------------------------------------


kseg1 Data-Memory Usage
section                    address  length [bytes]      (dec)  Description
-------                 ----------  -------------------------  -----------
.eh_frame               0xa0000200           0x30          48   
.sdata                  0xa0000230          0x288         648  Small init data 
.sbss                   0xa00004b8          0x4fc        1276  Small uninit data 
.bss                    0xa00009b4          0x10c         268  Uninitialized data 
.bss                    0xa0000ac0          0x210         528  Uninitialized data 
.data                   0xa0000cd0          0x174         372  Initialized data 
.bss                    0xa0000e44          0x29c         668  Uninitialized data 
.data                   0xa00010e0          0x160         352  Initialized data 
.bss                    0xa0001240          0x1fc         508  Uninitialized data 
.bss                    0xa000143c            0x4           4  Uninitialized data 
.bss                    0xa0001440           0x10          16  Uninitialized data 
.bss                    0xa0001450            0x4           4  Uninitialized data 
         Total kseg1_data_mem used  :      0x1254        4692  3.6% of 0x20000
        --------------------------------------------------------------------------
            Total Data Memory used  :      0x1254        4692  3.6% of 0x20000
        --------------------------------------------------------------------------


Dynamic Data-Memory Reservation
section                    address  length [bytes]      (dec)  Description
-------                 ----------  -------------------------  -----------
heap                    0xa0001458         0xa3e8       41960  Reserved for heap 
stack                   0xa000b858        0x14798       83864  Reserved for stack 

        --------------------------------------------------------------------------

Discarded input sections

 .data          0x00000000        0x0 c:/program files/microchip/xc32/v1.21/bin/../lib/gcc/pic32mx/4.5.2/../../../../pic32mx/lib/size/crt0.o
 .bss           0x00000000        0x0 c:/program files/microchip/xc32/v1.21/bin/../lib/gcc/pic32mx/4.5.2/../../../../pic32mx/lib/size/crt0.o
 .pdr           0x00000000       0xa0 c:/program files/microchip/xc32/v1.21/bin/../lib/gcc/pic32mx/4.5.2/../../../../pic32mx/lib/size/crt0.o
 .text          0x00000000        0x0 build/default/debug/_ext/979510709/bsp.o
 .data          0x00000000        0x0 build/default/debug/_ext/979510709/bsp.o
 .bss           0x00000000        0x0 build/default/debug/_ext/979510709/bsp.o
 .reginfo       0x00000000       0x18 build/default/debug/_ext/979510709/bsp.o
 .pdr           0x00000000       0x80 build/default/debug/_ext/979510709/bsp.o
 .discard       0x00000000       0x74 build/default/debug/_ext/979510709/bsp.o
 .text          0x00000000        0x0 build/default/debug/_ext/101875047/lfsr.o
 .data          0x00000000        0x0 build/default/debug/_ext/101875047/lfsr.o
 .bss           0x00000000        0x0 build/default/debug/_ext/101875047/lfsr.o
 .reginfo       0x00000000       0x18 build/default/debug/_ext/101875047/lfsr.o
 .pdr           0x00000000       0x40 build/default/debug/_ext/101875047/lfsr.o
 .text          0x00000000        0x0 build/default/debug/_ext/101875047/hashes.o
 .data          0x00000000        0x0 build/default/debug/_ext/101875047/hashes.o
 .bss           0x00000000        0x0 build/default/debug/_ext/101875047/hashes.o
 .reginfo       0x00000000       0x18 build/default/debug/_ext/101875047/hashes.o
 .pdr           0x00000000      0x120 build/default/debug/_ext/101875047/hashes.o
 .text          0x00000000        0x0 build/default/debug/_ext/101875047/big_int.o
 .data          0x00000000        0x0 build/default/debug/_ext/101875047/big_int.o
 .bss           0x00000000        0x0 build/default/debug/_ext/101875047/big_int.o
 .reginfo       0x00000000       0x18 build/default/debug/_ext/101875047/big_int.o
 .pdr           0x00000000      0x200 build/default/debug/_ext/101875047/big_int.o
 .discard       0x00000000       0x74 build/default/debug/_ext/101875047/big_int.o
 .data          0x00000000        0x0 build/default/debug/_ext/101875047/big_int_helper_c32.o
 .reginfo       0x00000000       0x18 build/default/debug/_ext/101875047/big_int_helper_c32.o
 .pdr           0x00000000      0x100 build/default/debug/_ext/101875047/big_int_helper_c32.o
 .text          0x00000000        0x0 build/default/debug/_ext/101875047/helpers.o
 .data          0x00000000        0x0 build/default/debug/_ext/101875047/helpers.o
 .bss           0x00000000        0x0 build/default/debug/_ext/101875047/helpers.o
 .reginfo       0x00000000       0x18 build/default/debug/_ext/101875047/helpers.o
 .pdr           0x00000000      0x100 build/default/debug/_ext/101875047/helpers.o
 .text.strnchr  0x00000000       0xb4 build/default/debug/_ext/101875047/helpers.o
 .text          0x00000000        0x0 build/default/debug/_ext/1472/berkeley_tcp_client_demo.o
 .data          0x00000000        0x0 build/default/debug/_ext/1472/berkeley_tcp_client_demo.o
 .bss           0x00000000        0x0 build/default/debug/_ext/1472/berkeley_tcp_client_demo.o
 .reginfo       0x00000000       0x18 build/default/debug/_ext/1472/berkeley_tcp_client_demo.o
 .pdr           0x00000000        0x0 build/default/debug/_ext/1472/berkeley_tcp_client_demo.o
 .text          0x00000000        0x0 build/default/debug/_ext/1472/berkeley_tcp_server_demo.o
 .data          0x00000000        0x0 build/default/debug/_ext/1472/berkeley_tcp_server_demo.o
 .bss           0x00000000        0x0 build/default/debug/_ext/1472/berkeley_tcp_server_demo.o
 .reginfo       0x00000000       0x18 build/default/debug/_ext/1472/berkeley_tcp_server_demo.o
 .pdr           0x00000000        0x0 build/default/debug/_ext/1472/berkeley_tcp_server_demo.o
 .text          0x00000000        0x0 build/default/debug/_ext/1472/berkeley_udp_client_demo.o
 .data          0x00000000        0x0 build/default/debug/_ext/1472/berkeley_udp_client_demo.o
 .bss           0x00000000        0x0 build/default/debug/_ext/1472/berkeley_udp_client_demo.o
 .reginfo       0x00000000       0x18 build/default/debug/_ext/1472/berkeley_udp_client_demo.o
 .pdr           0x00000000        0x0 build/default/debug/_ext/1472/berkeley_udp_client_demo.o
 .text          0x00000000        0x0 build/default/debug/_ext/1472/generic_tcp_client.o
 .data          0x00000000        0x0 build/default/debug/_ext/1472/generic_tcp_client.o
 .bss           0x00000000        0x0 build/default/debug/_ext/1472/generic_tcp_client.o
 .reginfo       0x00000000       0x18 build/default/debug/_ext/1472/generic_tcp_client.o
 .pdr           0x00000000       0x80 build/default/debug/_ext/1472/generic_tcp_client.o
 .discard       0x00000000       0x74 build/default/debug/_ext/1472/generic_tcp_client.o
 .text          0x00000000        0x0 build/default/debug/_ext/1472/generic_tcp_server.o
 .data          0x00000000        0x0 build/default/debug/_ext/1472/generic_tcp_server.o
 .bss           0x00000000        0x0 build/default/debug/_ext/1472/generic_tcp_server.o
 .reginfo       0x00000000       0x18 build/default/debug/_ext/1472/generic_tcp_server.o
 .pdr           0x00000000       0x80 build/default/debug/_ext/1472/generic_tcp_server.o
 .discard       0x00000000       0x74 build/default/debug/_ext/1472/generic_tcp_server.o
 .text          0x00000000        0x0 build/default/debug/_ext/1472/ping_demo.o
 .data          0x00000000        0x0 build/default/debug/_ext/1472/ping_demo.o
 .bss           0x00000000        0x0 build/default/debug/_ext/1472/ping_demo.o
 .reginfo       0x00000000       0x18 build/default/debug/_ext/1472/ping_demo.o
 .pdr           0x00000000       0xc0 build/default/debug/_ext/1472/ping_demo.o
 .discard       0x00000000       0x74 build/default/debug/_ext/1472/ping_demo.o
 .sbss          0x00000000        0x8 build/default/debug/_ext/1472/ping_demo.o
 .sdata         0x00000000        0x4 build/default/debug/_ext/1472/ping_demo.o
 .text.Ping4    0x00000000       0x90 build/default/debug/_ext/1472/ping_demo.o
 .text.PingDemoTask
                0x00000000       0x20 build/default/debug/_ext/1472/ping_demo.o
 .rodata        0x00000000        0xc build/default/debug/_ext/1472/ping_demo.o
 .text.PingProcessIPv4
                0x00000000      0x188 build/default/debug/_ext/1472/ping_demo.o
 .text          0x00000000        0x0 build/default/debug/_ext/1472/smtp_demo.o
 .data          0x00000000        0x0 build/default/debug/_ext/1472/smtp_demo.o
 .bss           0x00000000        0x0 build/default/debug/_ext/1472/smtp_demo.o
 .reginfo       0x00000000       0x18 build/default/debug/_ext/1472/smtp_demo.o
 .pdr           0x00000000       0x80 build/default/debug/_ext/1472/smtp_demo.o
 .discard       0x00000000       0x74 build/default/debug/_ext/1472/smtp_demo.o
 .text          0x00000000        0x0 build/default/debug/_ext/365611741/system_services.o
 .data          0x00000000        0x0 build/default/debug/_ext/365611741/system_services.o
 .bss           0x00000000        0x0 build/default/debug/_ext/365611741/system_services.o
 .reginfo       0x00000000       0x18 build/default/debug/_ext/365611741/system_services.o
 .pdr           0x00000000      0x4c0 build/default/debug/_ext/365611741/system_services.o
 .discard       0x00000000       0x74 build/default/debug/_ext/365611741/system_services.o
 .text.SYS_RTCC_Initialize
                0x00000000       0xf4 build/default/debug/_ext/365611741/system_services.o
 .text.SYS_RTCC_DateGet
                0x00000000       0x4c build/default/debug/_ext/365611741/system_services.o
 .text.SYS_RTCC_TimeGet
                0x00000000       0x4c build/default/debug/_ext/365611741/system_services.o
 .text.SYS_TICK_MsDelay
                0x00000000       0x8c build/default/debug/_ext/365611741/system_services.o
 .text.SYS_TICK_UsDelay
                0x00000000       0x8c build/default/debug/_ext/365611741/system_services.o
 .text.SYS_TICK_NsDelay
                0x00000000       0xa4 build/default/debug/_ext/365611741/system_services.o
 .text          0x00000000        0x0 build/default/debug/_ext/365611741/system_debug.o
 .data          0x00000000        0x0 build/default/debug/_ext/365611741/system_debug.o
 .bss           0x00000000        0x0 build/default/debug/_ext/365611741/system_debug.o
 .reginfo       0x00000000       0x18 build/default/debug/_ext/365611741/system_debug.o
 .pdr           0x00000000      0x280 build/default/debug/_ext/365611741/system_debug.o
 .discard       0x00000000       0x74 build/default/debug/_ext/365611741/system_debug.o
 .text.__sys_assert
                0x00000000       0x3c build/default/debug/_ext/365611741/system_debug.o
 .text._SYS_PRINT
                0x00000000       0xcc build/default/debug/_ext/365611741/system_debug.o
 .text._SYS_CONSOLE_GETLINE
                0x00000000       0x58 build/default/debug/_ext/365611741/system_debug.o
 .text          0x00000000        0x0 build/default/debug/_ext/365611741/system_random.o
 .data          0x00000000        0x0 build/default/debug/_ext/365611741/system_random.o
 .reginfo       0x00000000       0x18 build/default/debug/_ext/365611741/system_random.o
 .pdr           0x00000000      0x100 build/default/debug/_ext/365611741/system_random.o
 .discard       0x00000000       0x74 build/default/debug/_ext/365611741/system_random.o
 .text._SYS_RANDOM_DE_INIT
                0x00000000       0x20 build/default/debug/_ext/365611741/system_random.o
 .text          0x00000000        0x0 build/default/debug/_ext/365611741/system_command.o
 .data          0x00000000        0x0 build/default/debug/_ext/365611741/system_command.o
 .reginfo       0x00000000       0x18 build/default/debug/_ext/365611741/system_command.o
 .pdr           0x00000000      0x300 build/default/debug/_ext/365611741/system_command.o
 .discard       0x00000000       0x74 build/default/debug/_ext/365611741/system_command.o
 .text          0x00000000        0x0 build/default/debug/_ext/365611741/system_userio.o
 .data          0x00000000        0x0 build/default/debug/_ext/365611741/system_userio.o
 .reginfo       0x00000000       0x18 build/default/debug/_ext/365611741/system_userio.o
 .pdr           0x00000000      0x160 build/default/debug/_ext/365611741/system_userio.o
 .discard       0x00000000       0x74 build/default/debug/_ext/365611741/system_userio.o
 .text.SYS_USERIO_ButtonsTest
                0x00000000       0xa8 build/default/debug/_ext/365611741/system_userio.o
 .text          0x00000000        0x0 build/default/debug/_ext/97638081/sys_fs.o
 .data          0x00000000        0x0 build/default/debug/_ext/97638081/sys_fs.o
 .reginfo       0x00000000       0x18 build/default/debug/_ext/97638081/sys_fs.o
 .pdr           0x00000000      0x900 build/default/debug/_ext/97638081/sys_fs.o
 .discard       0x00000000       0x74 build/default/debug/_ext/97638081/sys_fs.o
 .text.SYS_FS_mpfs2fs_Deinit
                0x00000000       0x30 build/default/debug/_ext/97638081/sys_fs.o
 .text.SYS_FS_mpfs2fs_Open
                0x00000000       0x3c build/default/debug/_ext/97638081/sys_fs.o
 .text.SYS_FS_mpfs2fs_OpenID
                0x00000000       0x40 build/default/debug/_ext/97638081/sys_fs.o
 .text.SYS_FS_mpfs2fs_Close
                0x00000000       0x40 build/default/debug/_ext/97638081/sys_fs.o
 .text.SYS_FS_mpfs2fs_Get
                0x00000000       0x48 build/default/debug/_ext/97638081/sys_fs.o
 .text.SYS_FS_mpfs2fs_ArrayGet
                0x00000000       0x50 build/default/debug/_ext/97638081/sys_fs.o
 .text.SYS_FS_mpfs2fs_LongGet
                0x00000000       0x48 build/default/debug/_ext/97638081/sys_fs.o
 .text.SYS_FS_mpfs2fs_Seek
                0x00000000       0x50 build/default/debug/_ext/97638081/sys_fs.o
 .text.SYS_FS_mpfs2fs_Format
                0x00000000       0x30 build/default/debug/_ext/97638081/sys_fs.o
 .text.SYS_FS_mpfs2fs_ArrayPut
                0x00000000       0x50 build/default/debug/_ext/97638081/sys_fs.o
 .text.SYS_FS_mpfs2fs_PutEnd
                0x00000000       0x50 build/default/debug/_ext/97638081/sys_fs.o
 .text.SYS_FS_mpfs2fs_TimestampGet
                0x00000000       0x40 build/default/debug/_ext/97638081/sys_fs.o
 .text.SYS_FS_mpfs2fs_MicrotimeGet
                0x00000000       0x40 build/default/debug/_ext/97638081/sys_fs.o
 .text.SYS_FS_mpfs2fs_FlagsGet
                0x00000000       0x40 build/default/debug/_ext/97638081/sys_fs.o
 .text.SYS_FS_mpfs2fs_SizeGet
                0x00000000       0x40 build/default/debug/_ext/97638081/sys_fs.o
 .text.SYS_FS_mpfs2fs_BytesRemGet
                0x00000000       0x40 build/default/debug/_ext/97638081/sys_fs.o
 .text.SYS_FS_mpfs2fs_StartAddrGet
                0x00000000       0x40 build/default/debug/_ext/97638081/sys_fs.o
 .text.SYS_FS_mpfs2fs_EndAddrGet
                0x00000000       0x40 build/default/debug/_ext/97638081/sys_fs.o
 .text.SYS_FS_mpfs2fs_FilenameGet
                0x00000000       0x58 build/default/debug/_ext/97638081/sys_fs.o
 .text.SYS_FS_mpfs2fs_PositionGet
                0x00000000       0x40 build/default/debug/_ext/97638081/sys_fs.o
 .text.SYS_FS_mpfs2fs_IDGet
                0x00000000       0x40 build/default/debug/_ext/97638081/sys_fs.o
 .text.SYS_FS_IsLegalFileString
                0x00000000      0x144 build/default/debug/_ext/97638081/sys_fs.o
 .text.SYS_FS_IsLegalFileChar
                0x00000000       0x7c build/default/debug/_ext/97638081/sys_fs.o
 .text.SYS_FS_ExtractFilename
                0x00000000      0x104 build/default/debug/_ext/97638081/sys_fs.o
 .text.SYS_FS_IsBadString
                0x00000000       0xd8 build/default/debug/_ext/97638081/sys_fs.o
 .text.SYS_FS_ExtractPathname
                0x00000000      0x198 build/default/debug/_ext/97638081/sys_fs.o
 .text.SYS_FS_createMBR
                0x00000000       0x64 build/default/debug/_ext/97638081/sys_fs.o
 .text.SYS_FS_format
                0x00000000       0x6c build/default/debug/_ext/97638081/sys_fs.o
 .text.SYS_FS_open
                0x00000000      0x374 build/default/debug/_ext/97638081/sys_fs.o
 .text.SYS_FS_close
                0x00000000      0x198 build/default/debug/_ext/97638081/sys_fs.o
 .text.SYS_FS_Loc2SysDesc
                0x00000000       0x74 build/default/debug/_ext/97638081/sys_fs.o
 .text.SYS_FS_Sys2LocDesc
                0x00000000       0x90 build/default/debug/_ext/97638081/sys_fs.o
 .text.SYS_FS_NextDescriptorGet
                0x00000000      0x150 build/default/debug/_ext/97638081/sys_fs.o
 .text.SYS_FS_DescriptorIndexGet
                0x00000000      0x158 build/default/debug/_ext/97638081/sys_fs.o
 .text.SYS_FS_DescriptorNameGet
                0x00000000      0x150 build/default/debug/_ext/97638081/sys_fs.o
 .text.SYS_FS_fsize
                0x00000000       0xe0 build/default/debug/_ext/97638081/sys_fs.o
 .text.SYS_FS_ftell
                0x00000000       0xe0 build/default/debug/_ext/97638081/sys_fs.o
 .text.SYS_FS_fgetname
                0x00000000      0x11c build/default/debug/_ext/97638081/sys_fs.o
 .text.SYS_FS_fstat
                0x00000000      0x114 build/default/debug/_ext/97638081/sys_fs.o
 .text.SYS_FS_read
                0x00000000      0x18c build/default/debug/_ext/97638081/sys_fs.o
 .text.SYS_FS_write
                0x00000000      0x134 build/default/debug/_ext/97638081/sys_fs.o
 .text.SYS_FS_FSFromMountName
                0x00000000       0xc8 build/default/debug/_ext/97638081/sys_fs.o
 .text.SYS_FS_FileTypeGet
                0x00000000       0xcc build/default/debug/_ext/97638081/sys_fs.o
 .text.FS_MountRecGet
                0x00000000       0xd4 build/default/debug/_ext/97638081/sys_fs.o
 .text.SYS_FS_fclose
                0x00000000       0x28 build/default/debug/_ext/97638081/sys_fs.o
 .text.SYS_FS_fflush
                0x00000000       0x28 build/default/debug/_ext/97638081/sys_fs.o
 .text.SYS_FS_fread
                0x00000000       0x34 build/default/debug/_ext/97638081/sys_fs.o
 .text.SYS_FS_fwrite
                0x00000000       0x34 build/default/debug/_ext/97638081/sys_fs.o
 .text.SYS_FS_remove
                0x00000000       0x28 build/default/debug/_ext/97638081/sys_fs.o
 .text.SYS_FS_deinitialize
                0x00000000      0x128 build/default/debug/_ext/97638081/sys_fs.o
 .text.SYS_FS_reinitialize
                0x00000000       0x58 build/default/debug/_ext/97638081/sys_fs.o
 .text.SYS_FS_mkdir
                0x00000000       0xe0 build/default/debug/_ext/97638081/sys_fs.o
 .text.SYS_FS_rmdir
                0x00000000       0xe8 build/default/debug/_ext/97638081/sys_fs.o
 .text.SYS_FS_getcwd
                0x00000000       0x64 build/default/debug/_ext/97638081/sys_fs.o
 .text.SYS_FS_lseek
                0x00000000      0x150 build/default/debug/_ext/97638081/sys_fs.o
 .text.SYS_FS_unmount
                0x00000000       0x28 build/default/debug/_ext/97638081/sys_fs.o
 .text.SYS_FS_error
                0x00000000       0x24 build/default/debug/_ext/97638081/sys_fs.o
 .text.SYS_FS_clearerror
                0x00000000       0x24 build/default/debug/_ext/97638081/sys_fs.o
 .text          0x00000000        0x0 build/default/debug/_ext/97638081/mpfs2.o
 .data          0x00000000        0x0 build/default/debug/_ext/97638081/mpfs2.o
 .reginfo       0x00000000       0x18 build/default/debug/_ext/97638081/mpfs2.o
 .pdr           0x00000000      0x360 build/default/debug/_ext/97638081/mpfs2.o
 .discard       0x00000000       0x74 build/default/debug/_ext/97638081/mpfs2.o
 .text.MPFSDeinit
                0x00000000       0x98 build/default/debug/_ext/97638081/mpfs2.o
 .text.MPFSFormat
                0x00000000       0xdc build/default/debug/_ext/97638081/mpfs2.o
 .text.MPFSPutArray
                0x00000000       0x68 build/default/debug/_ext/97638081/mpfs2.o
 .text.MPFSPutEnd
                0x00000000       0x94 build/default/debug/_ext/97638081/mpfs2.o
 .text.MPFSGetTimestamp
                0x00000000       0xac build/default/debug/_ext/97638081/mpfs2.o
 .text.MPFSGetMicrotime
                0x00000000       0xac build/default/debug/_ext/97638081/mpfs2.o
 .text.MPFSGetBytesRem
                0x00000000       0x94 build/default/debug/_ext/97638081/mpfs2.o
 .text          0x00000000        0x0 build/default/debug/_ext/792872985/usart.o
 .data          0x00000000        0x0 build/default/debug/_ext/792872985/usart.o
 .bss           0x00000000        0x0 build/default/debug/_ext/792872985/usart.o
 .reginfo       0x00000000       0x18 build/default/debug/_ext/792872985/usart.o
 .pdr           0x00000000      0x140 build/default/debug/_ext/792872985/usart.o
 .discard       0x00000000       0x74 build/default/debug/_ext/792872985/usart.o
 .text          0x00000000        0x0 build/default/debug/_ext/792872985/lcd.o
 .data          0x00000000        0x0 build/default/debug/_ext/792872985/lcd.o
 .bss           0x00000000        0x0 build/default/debug/_ext/792872985/lcd.o
 .reginfo       0x00000000       0x18 build/default/debug/_ext/792872985/lcd.o
 .pdr           0x00000000        0x0 build/default/debug/_ext/792872985/lcd.o
 .text          0x00000000        0x0 build/default/debug/_ext/792872985/drv_spi.o
 .data          0x00000000        0x0 build/default/debug/_ext/792872985/drv_spi.o
 .bss           0x00000000        0x0 build/default/debug/_ext/792872985/drv_spi.o
 .reginfo       0x00000000       0x18 build/default/debug/_ext/792872985/drv_spi.o
 .pdr           0x00000000       0xc0 build/default/debug/_ext/792872985/drv_spi.o
 .discard       0x00000000       0x74 build/default/debug/_ext/792872985/drv_spi.o
 .text          0x00000000        0x0 build/default/debug/_ext/792872985/db_appio.o
 .data          0x00000000        0x0 build/default/debug/_ext/792872985/db_appio.o
 .bss           0x00000000        0x0 build/default/debug/_ext/792872985/db_appio.o
 .reginfo       0x00000000       0x18 build/default/debug/_ext/792872985/db_appio.o
 .pdr           0x00000000      0x140 build/default/debug/_ext/792872985/db_appio.o
 .discard       0x00000000       0x74 build/default/debug/_ext/792872985/db_appio.o
 .text          0x00000000        0x0 build/default/debug/_ext/792872985/spi_ram.o
 .data          0x00000000        0x0 build/default/debug/_ext/792872985/spi_ram.o
 .bss           0x00000000        0x0 build/default/debug/_ext/792872985/spi_ram.o
 .reginfo       0x00000000       0x18 build/default/debug/_ext/792872985/spi_ram.o
 .pdr           0x00000000       0x60 build/default/debug/_ext/792872985/spi_ram.o
 .discard       0x00000000       0x74 build/default/debug/_ext/792872985/spi_ram.o
 .text          0x00000000        0x0 build/default/debug/_ext/792872985/spi_eeprom.o
 .data          0x00000000        0x0 build/default/debug/_ext/792872985/spi_eeprom.o
 .bss           0x00000000        0x0 build/default/debug/_ext/792872985/spi_eeprom.o
 .reginfo       0x00000000       0x18 build/default/debug/_ext/792872985/spi_eeprom.o
 .pdr           0x00000000       0x60 build/default/debug/_ext/792872985/spi_eeprom.o
 .discard       0x00000000       0x74 build/default/debug/_ext/792872985/spi_eeprom.o
 .text          0x00000000        0x0 build/default/debug/_ext/792872985/spi_flash.o
 .data          0x00000000        0x0 build/default/debug/_ext/792872985/spi_flash.o
 .bss           0x00000000        0x0 build/default/debug/_ext/792872985/spi_flash.o
 .reginfo       0x00000000       0x18 build/default/debug/_ext/792872985/spi_flash.o
 .pdr           0x00000000       0x60 build/default/debug/_ext/792872985/spi_flash.o
 .discard       0x00000000       0x74 build/default/debug/_ext/792872985/spi_flash.o
 .text          0x00000000        0x0 build/default/debug/_ext/792872985/drv_media.o
 .data          0x00000000        0x0 build/default/debug/_ext/792872985/drv_media.o
 .bss           0x00000000        0x0 build/default/debug/_ext/792872985/drv_media.o
 .reginfo       0x00000000       0x18 build/default/debug/_ext/792872985/drv_media.o
 .pdr           0x00000000      0x260 build/default/debug/_ext/792872985/drv_media.o
 .discard       0x00000000       0x74 build/default/debug/_ext/792872985/drv_media.o
 .text.DRV_MEDIA_Deinitialize
                0x00000000       0x34 build/default/debug/_ext/792872985/drv_media.o
 .text.DRV_MEDIA_Close
                0x00000000       0x38 build/default/debug/_ext/792872985/drv_media.o
 .text.DRV_MEDIA_ClientSizeGet
                0x00000000       0x40 build/default/debug/_ext/792872985/drv_media.o
 .text.DRV_MEDIA_ClientRangeSet
                0x00000000       0xfc build/default/debug/_ext/792872985/drv_media.o
 .text.DRV_MEDIA_WriteSetOffset
                0x00000000       0xcc build/default/debug/_ext/792872985/drv_media.o
 .text.DRV_MEDIA_Write
                0x00000000      0x130 build/default/debug/_ext/792872985/drv_media.o
 .text.DRV_MEDIA_WriteByte
                0x00000000       0xec build/default/debug/_ext/792872985/drv_media.o
 .text.DRV_MEDIA_WriteFlush
                0x00000000       0x3c build/default/debug/_ext/792872985/drv_media.o
 .text          0x00000000        0x0 build/default/debug/_ext/427700826/tcpip_announce.o
 .data          0x00000000        0x0 build/default/debug/_ext/427700826/tcpip_announce.o
 .bss           0x00000000        0x0 build/default/debug/_ext/427700826/tcpip_announce.o
 .reginfo       0x00000000       0x18 build/default/debug/_ext/427700826/tcpip_announce.o
 .pdr           0x00000000      0x140 build/default/debug/_ext/427700826/tcpip_announce.o
 .discard       0x00000000       0x74 build/default/debug/_ext/427700826/tcpip_announce.o
 .text          0x00000000        0x0 build/default/debug/_ext/427700826/http2.o
 .data          0x00000000        0x0 build/default/debug/_ext/427700826/http2.o
 .bss           0x00000000        0x0 build/default/debug/_ext/427700826/http2.o
 .reginfo       0x00000000       0x18 build/default/debug/_ext/427700826/http2.o
 .pdr           0x00000000      0x4a0 build/default/debug/_ext/427700826/http2.o
 .discard       0x00000000       0x74 build/default/debug/_ext/427700826/http2.o
 .text.HTTPCurConnectionCallbackPosGet
                0x00000000       0x34 build/default/debug/_ext/427700826/http2.o
 .text.HTTPCurConnectionByteCountSet
                0x00000000       0x3c build/default/debug/_ext/427700826/http2.o
 .text.HTTPCurConnectionIsAuthorizedGet
                0x00000000       0x34 build/default/debug/_ext/427700826/http2.o
 .text.HTTPCurConnectionIsAuthorizedSet
                0x00000000       0x40 build/default/debug/_ext/427700826/http2.o
 .text.HTTPCurConnectionUserDataSet
                0x00000000       0x3c build/default/debug/_ext/427700826/http2.o
 .text.HTTPCurConnectionUserDataGet
                0x00000000       0x34 build/default/debug/_ext/427700826/http2.o
 .text          0x00000000        0x0 build/default/debug/_ext/427700826/arcfour.o
 .data          0x00000000        0x0 build/default/debug/_ext/427700826/arcfour.o
 .bss           0x00000000        0x0 build/default/debug/_ext/427700826/arcfour.o
 .reginfo       0x00000000       0x18 build/default/debug/_ext/427700826/arcfour.o
 .pdr           0x00000000       0xa0 build/default/debug/_ext/427700826/arcfour.o
 .discard       0x00000000       0x74 build/default/debug/_ext/427700826/arcfour.o
 .text          0x00000000        0x0 build/default/debug/_ext/427700826/arp.o
 .data          0x00000000        0x0 build/default/debug/_ext/427700826/arp.o
 .bss           0x00000000        0x0 build/default/debug/_ext/427700826/arp.o
 .reginfo       0x00000000       0x18 build/default/debug/_ext/427700826/arp.o
 .pdr           0x00000000      0x540 build/default/debug/_ext/427700826/arp.o
 .discard       0x00000000       0x74 build/default/debug/_ext/427700826/arp.o
 .text.ARPRegisterHandler
                0x00000000       0x9c build/default/debug/_ext/427700826/arp.o
 .text.ARPDeRegisterHandler
                0x00000000       0x78 build/default/debug/_ext/427700826/arp.o
 .text.ARPEntrySet
                0x00000000      0x24c build/default/debug/_ext/427700826/arp.o
 .text.ARPEntryGet
                0x00000000       0x7c build/default/debug/_ext/427700826/arp.o
 .text.ARPEntryRemove
                0x00000000       0xd0 build/default/debug/_ext/427700826/arp.o
 .text.ARPEntryRemoveAll
                0x00000000       0x90 build/default/debug/_ext/427700826/arp.o
 .text.ARPEntryQuery
                0x00000000      0x1a8 build/default/debug/_ext/427700826/arp.o
 .text.ARPCacheGetEntriesNo
                0x00000000      0x15c build/default/debug/_ext/427700826/arp.o
 .text.ARPCacheSetThreshold
                0x00000000       0xcc build/default/debug/_ext/427700826/arp.o
 .text          0x00000000        0x0 build/default/debug/_ext/427700826/berkeley_api.o
 .data          0x00000000        0x0 build/default/debug/_ext/427700826/berkeley_api.o
 .bss           0x00000000        0x0 build/default/debug/_ext/427700826/berkeley_api.o
 .reginfo       0x00000000       0x18 build/default/debug/_ext/427700826/berkeley_api.o
 .pdr           0x00000000       0x60 build/default/debug/_ext/427700826/berkeley_api.o
 .discard       0x00000000       0x74 build/default/debug/_ext/427700826/berkeley_api.o
 .text          0x00000000        0x0 build/default/debug/_ext/427700826/dhcp.o
 .data          0x00000000        0x0 build/default/debug/_ext/427700826/dhcp.o
 .bss           0x00000000        0x0 build/default/debug/_ext/427700826/dhcp.o
 .reginfo       0x00000000       0x18 build/default/debug/_ext/427700826/dhcp.o
 .pdr           0x00000000      0x2c0 build/default/debug/_ext/427700826/dhcp.o
 .discard       0x00000000       0x74 build/default/debug/_ext/427700826/dhcp.o
 .text.DHCPIsBound
                0x00000000       0x90 build/default/debug/_ext/427700826/dhcp.o
 .text.DHCPIsServerDetected
                0x00000000       0x90 build/default/debug/_ext/427700826/dhcp.o
 .text.DHCPSetRequestTimeout
                0x00000000       0x2c build/default/debug/_ext/427700826/dhcp.o
 .text          0x00000000        0x0 build/default/debug/_ext/427700826/dhcps.o
 .data          0x00000000        0x0 build/default/debug/_ext/427700826/dhcps.o
 .bss           0x00000000        0x0 build/default/debug/_ext/427700826/dhcps.o
 .reginfo       0x00000000       0x18 build/default/debug/_ext/427700826/dhcps.o
 .pdr           0x00000000       0xc0 build/default/debug/_ext/427700826/dhcps.o
 .discard       0x00000000       0x74 build/default/debug/_ext/427700826/dhcps.o
 .text          0x00000000        0x0 build/default/debug/_ext/427700826/dns.o
 .data          0x00000000        0x0 build/default/debug/_ext/427700826/dns.o
 .bss           0x00000000        0x0 build/default/debug/_ext/427700826/dns.o
 .reginfo       0x00000000       0x18 build/default/debug/_ext/427700826/dns.o
 .pdr           0x00000000      0x1c0 build/default/debug/_ext/427700826/dns.o
 .discard       0x00000000       0x74 build/default/debug/_ext/427700826/dns.o
 .text          0x00000000        0x0 build/default/debug/_ext/427700826/dnss.o
 .data          0x00000000        0x0 build/default/debug/_ext/427700826/dnss.o
 .bss           0x00000000        0x0 build/default/debug/_ext/427700826/dnss.o
 .reginfo       0x00000000       0x18 build/default/debug/_ext/427700826/dnss.o
 .pdr           0x00000000       0x60 build/default/debug/_ext/427700826/dnss.o
 .discard       0x00000000       0x74 build/default/debug/_ext/427700826/dnss.o
 .text          0x00000000        0x0 build/default/debug/_ext/427700826/dyn_dns.o
 .data          0x00000000        0x0 build/default/debug/_ext/427700826/dyn_dns.o
 .bss           0x00000000        0x0 build/default/debug/_ext/427700826/dyn_dns.o
 .reginfo       0x00000000       0x18 build/default/debug/_ext/427700826/dyn_dns.o
 .pdr           0x00000000       0x60 build/default/debug/_ext/427700826/dyn_dns.o
 .discard       0x00000000       0x74 build/default/debug/_ext/427700826/dyn_dns.o
 .text          0x00000000        0x0 build/default/debug/_ext/427700826/enc28_mac.o
 .data          0x00000000        0x0 build/default/debug/_ext/427700826/enc28_mac.o
 .bss           0x00000000        0x0 build/default/debug/_ext/427700826/enc28_mac.o
 .reginfo       0x00000000       0x18 build/default/debug/_ext/427700826/enc28_mac.o
 .pdr           0x00000000       0x60 build/default/debug/_ext/427700826/enc28_mac.o
 .discard       0x00000000       0x74 build/default/debug/_ext/427700826/enc28_mac.o
 .text          0x00000000        0x0 build/default/debug/_ext/427700826/enc28j60.o
 .data          0x00000000        0x0 build/default/debug/_ext/427700826/enc28j60.o
 .bss           0x00000000        0x0 build/default/debug/_ext/427700826/enc28j60.o
 .reginfo       0x00000000       0x18 build/default/debug/_ext/427700826/enc28j60.o
 .pdr           0x00000000       0x60 build/default/debug/_ext/427700826/enc28j60.o
 .discard       0x00000000       0x74 build/default/debug/_ext/427700826/enc28j60.o
 .text          0x00000000        0x0 build/default/debug/_ext/427700826/encs24j600.o
 .data          0x00000000        0x0 build/default/debug/_ext/427700826/encs24j600.o
 .bss           0x00000000        0x0 build/default/debug/_ext/427700826/encs24j600.o
 .reginfo       0x00000000       0x18 build/default/debug/_ext/427700826/encs24j600.o
 .pdr           0x00000000       0x60 build/default/debug/_ext/427700826/encs24j600.o
 .discard       0x00000000       0x74 build/default/debug/_ext/427700826/encs24j600.o
 .text          0x00000000        0x0 build/default/debug/_ext/427700826/encx24_mac.o
 .data          0x00000000        0x0 build/default/debug/_ext/427700826/encx24_mac.o
 .bss           0x00000000        0x0 build/default/debug/_ext/427700826/encx24_mac.o
 .reginfo       0x00000000       0x18 build/default/debug/_ext/427700826/encx24_mac.o
 .pdr           0x00000000       0x60 build/default/debug/_ext/427700826/encx24_mac.o
 .discard       0x00000000       0x74 build/default/debug/_ext/427700826/encx24_mac.o
 .text          0x00000000        0x0 build/default/debug/_ext/427700826/eth_pic32_ext_phy.o
 .data          0x00000000        0x0 build/default/debug/_ext/427700826/eth_pic32_ext_phy.o
 .bss           0x00000000        0x0 build/default/debug/_ext/427700826/eth_pic32_ext_phy.o
 .reginfo       0x00000000       0x18 build/default/debug/_ext/427700826/eth_pic32_ext_phy.o
 .pdr           0x00000000      0x220 build/default/debug/_ext/427700826/eth_pic32_ext_phy.o
 .discard       0x00000000       0x74 build/default/debug/_ext/427700826/eth_pic32_ext_phy.o
 .text.EthPhyScanLinkStart
                0x00000000       0x3c build/default/debug/_ext/427700826/eth_pic32_ext_phy.o
 .text.EthPhyScanLinkRead
                0x00000000       0x40 build/default/debug/_ext/427700826/eth_pic32_ext_phy.o
 .text.EthPhyScanLinkStop
                0x00000000       0x28 build/default/debug/_ext/427700826/eth_pic32_ext_phy.o
 .text          0x00000000        0x0 build/default/debug/_ext/427700826/eth_pic32_ext_phy_dp83848.o
 .data          0x00000000        0x0 build/default/debug/_ext/427700826/eth_pic32_ext_phy_dp83848.o
 .bss           0x00000000        0x0 build/default/debug/_ext/427700826/eth_pic32_ext_phy_dp83848.o
 .reginfo       0x00000000       0x18 build/default/debug/_ext/427700826/eth_pic32_ext_phy_dp83848.o
 .pdr           0x00000000       0xe0 build/default/debug/_ext/427700826/eth_pic32_ext_phy_dp83848.o
 .discard       0x00000000       0x74 build/default/debug/_ext/427700826/eth_pic32_ext_phy_dp83848.o
 .text          0x00000000        0x0 build/default/debug/_ext/427700826/eth_pic32_int_mac.o
 .bss           0x00000000        0x0 build/default/debug/_ext/427700826/eth_pic32_int_mac.o
 .reginfo       0x00000000       0x18 build/default/debug/_ext/427700826/eth_pic32_int_mac.o
 .pdr           0x00000000      0x400 build/default/debug/_ext/427700826/eth_pic32_int_mac.o
 .discard       0x00000000       0x74 build/default/debug/_ext/427700826/eth_pic32_int_mac.o
 .text          0x00000000        0x0 build/default/debug/_ext/427700826/ftp.o
 .data          0x00000000        0x0 build/default/debug/_ext/427700826/ftp.o
 .bss           0x00000000        0x0 build/default/debug/_ext/427700826/ftp.o
 .reginfo       0x00000000       0x18 build/default/debug/_ext/427700826/ftp.o
 .pdr           0x00000000       0x60 build/default/debug/_ext/427700826/ftp.o
 .discard       0x00000000       0x74 build/default/debug/_ext/427700826/ftp.o
 .text          0x00000000        0x0 build/default/debug/_ext/427700826/hash_fnv.o
 .data          0x00000000        0x0 build/default/debug/_ext/427700826/hash_fnv.o
 .bss           0x00000000        0x0 build/default/debug/_ext/427700826/hash_fnv.o
 .reginfo       0x00000000       0x18 build/default/debug/_ext/427700826/hash_fnv.o
 .pdr           0x00000000       0x40 build/default/debug/_ext/427700826/hash_fnv.o
 .text.fnv_32a_hash
                0x00000000       0xd0 build/default/debug/_ext/427700826/hash_fnv.o
 .text          0x00000000        0x0 build/default/debug/_ext/427700826/hash_tbl.o
 .data          0x00000000        0x0 build/default/debug/_ext/427700826/hash_tbl.o
 .bss           0x00000000        0x0 build/default/debug/_ext/427700826/hash_tbl.o
 .reginfo       0x00000000       0x18 build/default/debug/_ext/427700826/hash_tbl.o
 .pdr           0x00000000      0x100 build/default/debug/_ext/427700826/hash_tbl.o
 .text          0x00000000        0x0 build/default/debug/_ext/427700826/icmp.o
 .data          0x00000000        0x0 build/default/debug/_ext/427700826/icmp.o
 .bss           0x00000000        0x0 build/default/debug/_ext/427700826/icmp.o
 .reginfo       0x00000000       0x18 build/default/debug/_ext/427700826/icmp.o
 .pdr           0x00000000      0x140 build/default/debug/_ext/427700826/icmp.o
 .discard       0x00000000       0x74 build/default/debug/_ext/427700826/icmp.o
 .text.ICMPRegisterCallback
                0x00000000       0x28 build/default/debug/_ext/427700826/icmp.o
 .text.ICMPDeRegisterCallback
                0x00000000       0x28 build/default/debug/_ext/427700826/icmp.o
 .text          0x00000000        0x0 build/default/debug/_ext/427700826/icmpv6.o
 .data          0x00000000        0x0 build/default/debug/_ext/427700826/icmpv6.o
 .bss           0x00000000        0x0 build/default/debug/_ext/427700826/icmpv6.o
 .reginfo       0x00000000       0x18 build/default/debug/_ext/427700826/icmpv6.o
 .pdr           0x00000000       0x60 build/default/debug/_ext/427700826/icmpv6.o
 .discard       0x00000000       0x74 build/default/debug/_ext/427700826/icmpv6.o
 .text          0x00000000        0x0 build/default/debug/_ext/427700826/ipv4.o
 .data          0x00000000        0x0 build/default/debug/_ext/427700826/ipv4.o
 .bss           0x00000000        0x0 build/default/debug/_ext/427700826/ipv4.o
 .reginfo       0x00000000       0x18 build/default/debug/_ext/427700826/ipv4.o
 .pdr           0x00000000      0x540 build/default/debug/_ext/427700826/ipv4.o
 .discard       0x00000000       0x74 build/default/debug/_ext/427700826/ipv4.o
 .text.TCPIP_IPV4_Put
                0x00000000       0x5c build/default/debug/_ext/427700826/ipv4.o
 .text          0x00000000        0x0 build/default/debug/_ext/427700826/ipv6.o
 .data          0x00000000        0x0 build/default/debug/_ext/427700826/ipv6.o
 .bss           0x00000000        0x0 build/default/debug/_ext/427700826/ipv6.o
 .reginfo       0x00000000       0x18 build/default/debug/_ext/427700826/ipv6.o
 .pdr           0x00000000       0x60 build/default/debug/_ext/427700826/ipv6.o
 .discard       0x00000000       0x74 build/default/debug/_ext/427700826/ipv6.o
 .text          0x00000000        0x0 build/default/debug/_ext/427700826/mac_events_pic32.o
 .data          0x00000000        0x0 build/default/debug/_ext/427700826/mac_events_pic32.o
 .bss           0x00000000        0x0 build/default/debug/_ext/427700826/mac_events_pic32.o
 .reginfo       0x00000000       0x18 build/default/debug/_ext/427700826/mac_events_pic32.o
 .pdr           0x00000000      0x1a0 build/default/debug/_ext/427700826/mac_events_pic32.o
 .discard       0x00000000       0x74 build/default/debug/_ext/427700826/mac_events_pic32.o
 .text          0x00000000        0x0 build/default/debug/_ext/427700826/nbns.o
 .data          0x00000000        0x0 build/default/debug/_ext/427700826/nbns.o
 .bss           0x00000000        0x0 build/default/debug/_ext/427700826/nbns.o
 .reginfo       0x00000000       0x18 build/default/debug/_ext/427700826/nbns.o
 .pdr           0x00000000      0x100 build/default/debug/_ext/427700826/nbns.o
 .discard       0x00000000       0x74 build/default/debug/_ext/427700826/nbns.o
 .text          0x00000000        0x0 build/default/debug/_ext/427700826/ndp.o
 .data          0x00000000        0x0 build/default/debug/_ext/427700826/ndp.o
 .bss           0x00000000        0x0 build/default/debug/_ext/427700826/ndp.o
 .reginfo       0x00000000       0x18 build/default/debug/_ext/427700826/ndp.o
 .pdr           0x00000000       0x60 build/default/debug/_ext/427700826/ndp.o
 .discard       0x00000000       0x74 build/default/debug/_ext/427700826/ndp.o
 .text          0x00000000        0x0 build/default/debug/_ext/427700826/tcpip_reboot.o
 .data          0x00000000        0x0 build/default/debug/_ext/427700826/tcpip_reboot.o
 .bss           0x00000000        0x0 build/default/debug/_ext/427700826/tcpip_reboot.o
 .reginfo       0x00000000       0x18 build/default/debug/_ext/427700826/tcpip_reboot.o
 .pdr           0x00000000       0x60 build/default/debug/_ext/427700826/tcpip_reboot.o
 .discard       0x00000000       0x74 build/default/debug/_ext/427700826/tcpip_reboot.o
 .text          0x00000000        0x0 build/default/debug/_ext/427700826/rsa.o
 .data          0x00000000        0x0 build/default/debug/_ext/427700826/rsa.o
 .bss           0x00000000        0x0 build/default/debug/_ext/427700826/rsa.o
 .reginfo       0x00000000       0x18 build/default/debug/_ext/427700826/rsa.o
 .pdr           0x00000000      0x1a0 build/default/debug/_ext/427700826/rsa.o
 .discard       0x00000000       0x74 build/default/debug/_ext/427700826/rsa.o
 .text          0x00000000        0x0 build/default/debug/_ext/427700826/smtp.o
 .data          0x00000000        0x0 build/default/debug/_ext/427700826/smtp.o
 .bss           0x00000000        0x0 build/default/debug/_ext/427700826/smtp.o
 .reginfo       0x00000000       0x18 build/default/debug/_ext/427700826/smtp.o
 .pdr           0x00000000      0x220 build/default/debug/_ext/427700826/smtp.o
 .discard       0x00000000       0x74 build/default/debug/_ext/427700826/smtp.o
 .text.SMTPPutArray
                0x00000000       0xb8 build/default/debug/_ext/427700826/smtp.o
 .text          0x00000000        0x0 build/default/debug/_ext/427700826/snmp.o
 .data          0x00000000        0x0 build/default/debug/_ext/427700826/snmp.o
 .bss           0x00000000        0x0 build/default/debug/_ext/427700826/snmp.o
 .reginfo       0x00000000       0x18 build/default/debug/_ext/427700826/snmp.o
 .pdr           0x00000000       0x60 build/default/debug/_ext/427700826/snmp.o
 .discard       0x00000000       0x74 build/default/debug/_ext/427700826/snmp.o
 .text          0x00000000        0x0 build/default/debug/_ext/427700826/snmpv3.o
 .data          0x00000000        0x0 build/default/debug/_ext/427700826/snmpv3.o
 .bss           0x00000000        0x0 build/default/debug/_ext/427700826/snmpv3.o
 .reginfo       0x00000000       0x18 build/default/debug/_ext/427700826/snmpv3.o
 .pdr           0x00000000       0x60 build/default/debug/_ext/427700826/snmpv3.o
 .discard       0x00000000       0x74 build/default/debug/_ext/427700826/snmpv3.o
 .text          0x00000000        0x0 build/default/debug/_ext/427700826/snmpv3_usm.o
 .data          0x00000000        0x0 build/default/debug/_ext/427700826/snmpv3_usm.o
 .bss           0x00000000        0x0 build/default/debug/_ext/427700826/snmpv3_usm.o
 .reginfo       0x00000000       0x18 build/default/debug/_ext/427700826/snmpv3_usm.o
 .pdr           0x00000000       0x60 build/default/debug/_ext/427700826/snmpv3_usm.o
 .discard       0x00000000       0x74 build/default/debug/_ext/427700826/snmpv3_usm.o
 .text          0x00000000        0x0 build/default/debug/_ext/427700826/sntp.o
 .data          0x00000000        0x0 build/default/debug/_ext/427700826/sntp.o
 .bss           0x00000000        0x0 build/default/debug/_ext/427700826/sntp.o
 .reginfo       0x00000000       0x18 build/default/debug/_ext/427700826/sntp.o
 .pdr           0x00000000       0x60 build/default/debug/_ext/427700826/sntp.o
 .discard       0x00000000       0x74 build/default/debug/_ext/427700826/sntp.o
 .text          0x00000000        0x0 build/default/debug/_ext/427700826/ssl.o
 .data          0x00000000        0x0 build/default/debug/_ext/427700826/ssl.o
 .bss           0x00000000        0x0 build/default/debug/_ext/427700826/ssl.o
 .reginfo       0x00000000       0x18 build/default/debug/_ext/427700826/ssl.o
 .pdr           0x00000000      0x7a0 build/default/debug/_ext/427700826/ssl.o
 .discard       0x00000000       0x74 build/default/debug/_ext/427700826/ssl.o
 .text          0x00000000        0x0 build/default/debug/_ext/427700826/tcp.o
 .data          0x00000000        0x0 build/default/debug/_ext/427700826/tcp.o
 .bss           0x00000000        0x0 build/default/debug/_ext/427700826/tcp.o
 .reginfo       0x00000000       0x18 build/default/debug/_ext/427700826/tcp.o
 .pdr           0x00000000      0xc00 build/default/debug/_ext/427700826/tcp.o
 .discard       0x00000000       0x74 build/default/debug/_ext/427700826/tcp.o
 .text.TCPSetConnectionMSS
                0x00000000       0x44 build/default/debug/_ext/427700826/tcp.o
 .text.TCPAbort
                0x00000000       0x6c build/default/debug/_ext/427700826/tcp.o
 .text.TCPGetTxFIFOFull
                0x00000000       0xa4 build/default/debug/_ext/427700826/tcp.o
 .text.TCPPeek  0x00000000       0x60 build/default/debug/_ext/427700826/tcp.o
 .text.TCPStartSSLClientEx
                0x00000000      0x1a8 build/default/debug/_ext/427700826/tcp.o
 .text.TCPBind  0x00000000      0x1c4 build/default/debug/_ext/427700826/tcp.o
 .text.TCPRemoteBind
                0x00000000       0x9c build/default/debug/_ext/427700826/tcp.o
 .text.TCPGetOptions
                0x00000000      0x1b8 build/default/debug/_ext/427700826/tcp.o
 .text.TCPSetDestinationIPAddress
                0x00000000       0xc4 build/default/debug/_ext/427700826/tcp.o
 .text.TCPSetSourceIPAddress
                0x00000000       0xc4 build/default/debug/_ext/427700826/tcp.o
 .text          0x00000000        0x0 build/default/debug/_ext/427700826/tcpip_heap_alloc.o
 .data          0x00000000        0x0 build/default/debug/_ext/427700826/tcpip_heap_alloc.o
 .bss           0x00000000        0x0 build/default/debug/_ext/427700826/tcpip_heap_alloc.o
 .reginfo       0x00000000       0x18 build/default/debug/_ext/427700826/tcpip_heap_alloc.o
 .pdr           0x00000000      0x260 build/default/debug/_ext/427700826/tcpip_heap_alloc.o
 .discard       0x00000000       0x74 build/default/debug/_ext/427700826/tcpip_heap_alloc.o
 .text.TCPIP_HEAP_SetNoMemHandler
                0x00000000       0x5c build/default/debug/_ext/427700826/tcpip_heap_alloc.o
 .text          0x00000000        0x0 build/default/debug/_ext/427700826/tcpip_storage.o
 .data          0x00000000        0x0 build/default/debug/_ext/427700826/tcpip_storage.o
 .bss           0x00000000        0x0 build/default/debug/_ext/427700826/tcpip_storage.o
 .reginfo       0x00000000       0x18 build/default/debug/_ext/427700826/tcpip_storage.o
 .pdr           0x00000000       0x60 build/default/debug/_ext/427700826/tcpip_storage.o
 .discard       0x00000000       0x74 build/default/debug/_ext/427700826/tcpip_storage.o
 .text          0x00000000        0x0 build/default/debug/_ext/427700826/telnet.o
 .data          0x00000000        0x0 build/default/debug/_ext/427700826/telnet.o
 .bss           0x00000000        0x0 build/default/debug/_ext/427700826/telnet.o
 .reginfo       0x00000000       0x18 build/default/debug/_ext/427700826/telnet.o
 .pdr           0x00000000      0x220 build/default/debug/_ext/427700826/telnet.o
 .discard       0x00000000       0x74 build/default/debug/_ext/427700826/telnet.o
 .text          0x00000000        0x0 build/default/debug/_ext/427700826/tftpc.o
 .data          0x00000000        0x0 build/default/debug/_ext/427700826/tftpc.o
 .bss           0x00000000        0x0 build/default/debug/_ext/427700826/tftpc.o
 .reginfo       0x00000000       0x18 build/default/debug/_ext/427700826/tftpc.o
 .pdr           0x00000000       0x60 build/default/debug/_ext/427700826/tftpc.o
 .discard       0x00000000       0x74 build/default/debug/_ext/427700826/tftpc.o
 .text          0x00000000        0x0 build/default/debug/_ext/427700826/udp.o
 .data          0x00000000        0x0 build/default/debug/_ext/427700826/udp.o
 .bss           0x00000000        0x0 build/default/debug/_ext/427700826/udp.o
 .reginfo       0x00000000       0x18 build/default/debug/_ext/427700826/udp.o
 .pdr           0x00000000      0x5c0 build/default/debug/_ext/427700826/udp.o
 .discard       0x00000000       0x74 build/default/debug/_ext/427700826/udp.o
 .text.UDPPutString
                0x00000000       0xa0 build/default/debug/_ext/427700826/udp.o
 .text.UDPGetOptions
                0x00000000       0xdc build/default/debug/_ext/427700826/udp.o
 .text          0x00000000        0x0 build/default/debug/_ext/427700826/tcpip_mac_object.o
 .data          0x00000000        0x0 build/default/debug/_ext/427700826/tcpip_mac_object.o
 .bss           0x00000000        0x0 build/default/debug/_ext/427700826/tcpip_mac_object.o
 .reginfo       0x00000000       0x18 build/default/debug/_ext/427700826/tcpip_mac_object.o
 .pdr           0x00000000      0x360 build/default/debug/_ext/427700826/tcpip_mac_object.o
 .discard       0x00000000       0x74 build/default/debug/_ext/427700826/tcpip_mac_object.o
 .text.MACGetReadPtrInRx
                0x00000000       0x44 build/default/debug/_ext/427700826/tcpip_mac_object.o
 .text.MACSetBaseReadPtr
                0x00000000       0x4c build/default/debug/_ext/427700826/tcpip_mac_object.o
 .text.MACPowerMode
                0x00000000       0x4c build/default/debug/_ext/427700826/tcpip_mac_object.o
 .text.MACEventClearNotifyEvents
                0x00000000       0x54 build/default/debug/_ext/427700826/tcpip_mac_object.o
 .text          0x00000000        0x0 build/default/debug/_ext/427700826/tcpip_manager.o
 .data          0x00000000        0x0 build/default/debug/_ext/427700826/tcpip_manager.o
 .bss           0x00000000        0x0 build/default/debug/_ext/427700826/tcpip_manager.o
 .reginfo       0x00000000       0x18 build/default/debug/_ext/427700826/tcpip_manager.o
 .pdr           0x00000000      0xa60 build/default/debug/_ext/427700826/tcpip_manager.o
 .discard       0x00000000       0x74 build/default/debug/_ext/427700826/tcpip_manager.o
 .text._TCPIPStackIpAddFromNet
                0x00000000       0xec build/default/debug/_ext/427700826/tcpip_manager.o
 .text._TCPIPStackMacToNetIx
                0x00000000       0x88 build/default/debug/_ext/427700826/tcpip_manager.o
 .text.TCPIP_STACK_SetNetSecondDNSAddress
                0x00000000       0x5c build/default/debug/_ext/427700826/tcpip_manager.o
 .text.TCPIP_STACK_SetLocalMasksType
                0x00000000       0x98 build/default/debug/_ext/427700826/tcpip_manager.o
 .text.TCPIP_STACK_SetLocalMasks
                0x00000000       0x70 build/default/debug/_ext/427700826/tcpip_manager.o
 .text.TCPIP_STACK_NetMACId
                0x00000000       0x44 build/default/debug/_ext/427700826/tcpip_manager.o
 .text.TCPIP_STACK_ModuleGetConfig
                0x00000000       0xc4 build/default/debug/_ext/427700826/tcpip_manager.o
 .text.TCPIP_STACK_IsNetLinked
                0x00000000       0x48 build/default/debug/_ext/427700826/tcpip_manager.o
 .text.TCPIP_STACK_GetPendingEvents
                0x00000000       0x6c build/default/debug/_ext/427700826/tcpip_manager.o
 .text.TCPIP_STACK_DeRegisterHandler
                0x00000000       0x7c build/default/debug/_ext/427700826/tcpip_manager.o
 .text          0x00000000        0x0 build/default/debug/_ext/427700826/tcpip_helpers.o
 .data          0x00000000        0x0 build/default/debug/_ext/427700826/tcpip_helpers.o
 .bss           0x00000000        0x0 build/default/debug/_ext/427700826/tcpip_helpers.o
 .reginfo       0x00000000       0x18 build/default/debug/_ext/427700826/tcpip_helpers.o
 .pdr           0x00000000      0x3c0 build/default/debug/_ext/427700826/tcpip_helpers.o
 .discard       0x00000000       0x74 build/default/debug/_ext/427700826/tcpip_helpers.o
 .text.TCPIP_Helper_FindCommonPrefix
                0x00000000      0x110 build/default/debug/_ext/427700826/tcpip_helpers.o
 .text.SingleListAddHead
                0x00000000       0x74 build/default/debug/_ext/427700826/tcpip_helpers.o
 .text.SingleListAddMid
                0x00000000       0x5c build/default/debug/_ext/427700826/tcpip_helpers.o
 .text.SingleListRemoveNext
                0x00000000       0xb0 build/default/debug/_ext/427700826/tcpip_helpers.o
 .text.SingleListAppendList
                0x00000000       0x64 build/default/debug/_ext/427700826/tcpip_helpers.o
 .text.DoubleListInit
                0x00000000       0x44 build/default/debug/_ext/427700826/tcpip_helpers.o
 .text.DoubleListAddHead
                0x00000000       0xbc build/default/debug/_ext/427700826/tcpip_helpers.o
 .text.DoubleListAddTail
                0x00000000       0xbc build/default/debug/_ext/427700826/tcpip_helpers.o
 .text.DoubleListAddMid
                0x00000000       0x78 build/default/debug/_ext/427700826/tcpip_helpers.o
 .text.DoubleListRemoveHead
                0x00000000       0xa8 build/default/debug/_ext/427700826/tcpip_helpers.o
 .text.DoubleListRemoveTail
                0x00000000       0xa8 build/default/debug/_ext/427700826/tcpip_helpers.o
 .text.DoubleListRemoveMid
                0x00000000       0x64 build/default/debug/_ext/427700826/tcpip_helpers.o
 .text.DoubleListRemoveNode
                0x00000000       0x90 build/default/debug/_ext/427700826/tcpip_helpers.o
 .text          0x00000000        0x0 build/default/debug/_ext/427700826/tcpip_commands.o
 .data          0x00000000        0x0 build/default/debug/_ext/427700826/tcpip_commands.o
 .bss           0x00000000        0x0 build/default/debug/_ext/427700826/tcpip_commands.o
 .reginfo       0x00000000       0x18 build/default/debug/_ext/427700826/tcpip_commands.o
 .pdr           0x00000000      0x260 build/default/debug/_ext/427700826/tcpip_commands.o
 .discard       0x00000000       0x74 build/default/debug/_ext/427700826/tcpip_commands.o
 .text          0x00000000        0x0 build/default/debug/_ext/427700826/iperf.o
 .data          0x00000000        0x0 build/default/debug/_ext/427700826/iperf.o
 .reginfo       0x00000000       0x18 build/default/debug/_ext/427700826/iperf.o
 .pdr           0x00000000      0x480 build/default/debug/_ext/427700826/iperf.o
 .discard       0x00000000       0x74 build/default/debug/_ext/427700826/iperf.o
 .data          0x00000000        0x0 build/default/debug/_ext/427700826/tcpip_helper_c32.o
 .bss           0x00000000        0x0 build/default/debug/_ext/427700826/tcpip_helper_c32.o
 .reginfo       0x00000000       0x18 build/default/debug/_ext/427700826/tcpip_helper_c32.o
 .pdr           0x00000000       0x60 build/default/debug/_ext/427700826/tcpip_helper_c32.o
 .text          0x00000000        0x0 build/default/debug/_ext/427700826/tcpip_notify.o
 .data          0x00000000        0x0 build/default/debug/_ext/427700826/tcpip_notify.o
 .bss           0x00000000        0x0 build/default/debug/_ext/427700826/tcpip_notify.o
 .reginfo       0x00000000       0x18 build/default/debug/_ext/427700826/tcpip_notify.o
 .pdr           0x00000000       0x60 build/default/debug/_ext/427700826/tcpip_notify.o
 .text          0x00000000        0x0 build/default/debug/_ext/427700826/zero_conf_helper.o
 .data          0x00000000        0x0 build/default/debug/_ext/427700826/zero_conf_helper.o
 .bss           0x00000000        0x0 build/default/debug/_ext/427700826/zero_conf_helper.o
 .reginfo       0x00000000       0x18 build/default/debug/_ext/427700826/zero_conf_helper.o
 .pdr           0x00000000       0x80 build/default/debug/_ext/427700826/zero_conf_helper.o
 .discard       0x00000000       0x74 build/default/debug/_ext/427700826/zero_conf_helper.o
 .sdata         0x00000000        0x1 build/default/debug/_ext/427700826/zero_conf_helper.o
 .text          0x00000000        0x0 build/default/debug/_ext/427700826/zero_conf_link_local.o
 .data          0x00000000        0x0 build/default/debug/_ext/427700826/zero_conf_link_local.o
 .bss           0x00000000        0x0 build/default/debug/_ext/427700826/zero_conf_link_local.o
 .reginfo       0x00000000       0x18 build/default/debug/_ext/427700826/zero_conf_link_local.o
 .pdr           0x00000000      0x200 build/default/debug/_ext/427700826/zero_conf_link_local.o
 .discard       0x00000000       0x74 build/default/debug/_ext/427700826/zero_conf_link_local.o
 .text          0x00000000        0x0 build/default/debug/_ext/427700826/zero_conf_multicast_dns.o
 .data          0x00000000        0x0 build/default/debug/_ext/427700826/zero_conf_multicast_dns.o
 .bss           0x00000000        0x0 build/default/debug/_ext/427700826/zero_conf_multicast_dns.o
 .reginfo       0x00000000       0x18 build/default/debug/_ext/427700826/zero_conf_multicast_dns.o
 .pdr           0x00000000      0x360 build/default/debug/_ext/427700826/zero_conf_multicast_dns.o
 .discard       0x00000000       0x74 build/default/debug/_ext/427700826/zero_conf_multicast_dns.o
 .text.mDNSServiceUpdate
                0x00000000      0x13c build/default/debug/_ext/427700826/zero_conf_multicast_dns.o
 .text.mDNSServiceDeRegister
                0x00000000      0x188 build/default/debug/_ext/427700826/zero_conf_multicast_dns.o
 .text          0x00000000        0x0 build/default/debug/_ext/334706090/wf_tx_power.o
 .data          0x00000000        0x0 build/default/debug/_ext/334706090/wf_tx_power.o
 .bss           0x00000000        0x0 build/default/debug/_ext/334706090/wf_tx_power.o
 .reginfo       0x00000000       0x18 build/default/debug/_ext/334706090/wf_tx_power.o
 .pdr           0x00000000       0xc0 build/default/debug/_ext/334706090/wf_tx_power.o
 .discard       0x00000000       0x74 build/default/debug/_ext/334706090/wf_tx_power.o
 .rodata        0x00000000       0x30 build/default/debug/_ext/334706090/wf_tx_power.o
 .text.WF_TxPowerSetMax
                0x00000000       0xb0 build/default/debug/_ext/334706090/wf_tx_power.o
 .text.WF_TxPowerGetMax
                0x00000000       0x74 build/default/debug/_ext/334706090/wf_tx_power.o
 .text.WF_TxPowerGetFactoryMax
                0x00000000       0x54 build/default/debug/_ext/334706090/wf_tx_power.o
 .text          0x00000000        0x0 build/default/debug/_ext/334706090/wf_connect.o
 .data          0x00000000        0x0 build/default/debug/_ext/334706090/wf_connect.o
 .bss           0x00000000        0x0 build/default/debug/_ext/334706090/wf_connect.o
 .reginfo       0x00000000       0x18 build/default/debug/_ext/334706090/wf_connect.o
 .pdr           0x00000000      0x100 build/default/debug/_ext/334706090/wf_connect.o
 .discard       0x00000000       0x74 build/default/debug/_ext/334706090/wf_connect.o
 .text          0x00000000        0x0 build/default/debug/_ext/334706090/wf_connection_algorithm.o
 .data          0x00000000        0x0 build/default/debug/_ext/334706090/wf_connection_algorithm.o
 .bss           0x00000000        0x0 build/default/debug/_ext/334706090/wf_connection_algorithm.o
 .reginfo       0x00000000       0x18 build/default/debug/_ext/334706090/wf_connection_algorithm.o
 .pdr           0x00000000      0x2a0 build/default/debug/_ext/334706090/wf_connection_algorithm.o
 .discard       0x00000000       0x74 build/default/debug/_ext/334706090/wf_connection_algorithm.o
 .text.WF_RssiSet
                0x00000000       0x44 build/default/debug/_ext/334706090/wf_connection_algorithm.o
 .text.WF_RssiGet
                0x00000000       0x44 build/default/debug/_ext/334706090/wf_connection_algorithm.o
 .text.WF_CAGetEventNotificationAction
                0x00000000       0x40 build/default/debug/_ext/334706090/wf_connection_algorithm.o
 .text.WF_AdhocContextGet
                0x00000000       0x98 build/default/debug/_ext/334706090/wf_connection_algorithm.o
 .text          0x00000000        0x0 build/default/debug/_ext/334706090/wf_connection_manager.o
 .data          0x00000000        0x0 build/default/debug/_ext/334706090/wf_connection_manager.o
 .bss           0x00000000        0x0 build/default/debug/_ext/334706090/wf_connection_manager.o
 .reginfo       0x00000000       0x18 build/default/debug/_ext/334706090/wf_connection_manager.o
 .pdr           0x00000000      0x140 build/default/debug/_ext/334706090/wf_connection_manager.o
 .discard       0x00000000       0x74 build/default/debug/_ext/334706090/wf_connection_manager.o
 .text          0x00000000        0x0 build/default/debug/_ext/334706090/wf_connection_profile.o
 .data          0x00000000        0x0 build/default/debug/_ext/334706090/wf_connection_profile.o
 .bss           0x00000000        0x0 build/default/debug/_ext/334706090/wf_connection_profile.o
 .reginfo       0x00000000       0x18 build/default/debug/_ext/334706090/wf_connection_profile.o
 .pdr           0x00000000      0x360 build/default/debug/_ext/334706090/wf_connection_profile.o
 .discard       0x00000000       0x74 build/default/debug/_ext/334706090/wf_connection_profile.o
 .text.WF_BssidSet
                0x00000000       0x40 build/default/debug/_ext/334706090/wf_connection_profile.o
 .text.WF_BssidGet
                0x00000000       0x44 build/default/debug/_ext/334706090/wf_connection_profile.o
 .text.WF_CPSetWepKeyType
                0x00000000       0x50 build/default/debug/_ext/334706090/wf_connection_profile.o
 .text.WF_WPSCredentialsGet
                0x00000000       0x48 build/default/debug/_ext/334706090/wf_connection_profile.o
 .text.GetHiddenSsid
                0x00000000       0x48 build/default/debug/_ext/334706090/wf_connection_profile.o
 .text.GetAdHocMode
                0x00000000       0x48 build/default/debug/_ext/334706090/wf_connection_profile.o
 .text          0x00000000        0x0 build/default/debug/_ext/334706090/wf_easy_config.o
 .data          0x00000000        0x0 build/default/debug/_ext/334706090/wf_easy_config.o
 .bss           0x00000000        0x0 build/default/debug/_ext/334706090/wf_easy_config.o
 .reginfo       0x00000000       0x18 build/default/debug/_ext/334706090/wf_easy_config.o
 .pdr           0x00000000       0x80 build/default/debug/_ext/334706090/wf_easy_config.o
 .discard       0x00000000       0x74 build/default/debug/_ext/334706090/wf_easy_config.o
 .rodata        0x00000000       0x7c build/default/debug/_ext/334706090/wf_easy_config.o
 .text.WFDisplayScanMgr
                0x00000000      0x308 build/default/debug/_ext/334706090/wf_easy_config.o
 COMMON         0x00000000       0x98 build/default/debug/_ext/334706090/wf_easy_config.o
 .text          0x00000000        0x0 build/default/debug/_ext/334706090/wf_eint.o
 .data          0x00000000        0x0 build/default/debug/_ext/334706090/wf_eint.o
 .bss           0x00000000        0x0 build/default/debug/_ext/334706090/wf_eint.o
 .reginfo       0x00000000       0x18 build/default/debug/_ext/334706090/wf_eint.o
 .pdr           0x00000000      0x100 build/default/debug/_ext/334706090/wf_eint.o
 .discard       0x00000000       0x74 build/default/debug/_ext/334706090/wf_eint.o
 .text          0x00000000        0x0 build/default/debug/_ext/334706090/wf_event_handler.o
 .data          0x00000000        0x0 build/default/debug/_ext/334706090/wf_event_handler.o
 .bss           0x00000000        0x0 build/default/debug/_ext/334706090/wf_event_handler.o
 .reginfo       0x00000000       0x18 build/default/debug/_ext/334706090/wf_event_handler.o
 .pdr           0x00000000      0x1a0 build/default/debug/_ext/334706090/wf_event_handler.o
 .discard       0x00000000       0x74 build/default/debug/_ext/334706090/wf_event_handler.o
 .text.WF_GetSoftApEventInfo
                0x00000000       0x24 build/default/debug/_ext/334706090/wf_event_handler.o
 .text          0x00000000        0x0 build/default/debug/_ext/334706090/wf_init.o
 .data          0x00000000        0x0 build/default/debug/_ext/334706090/wf_init.o
 .bss           0x00000000        0x0 build/default/debug/_ext/334706090/wf_init.o
 .reginfo       0x00000000       0x18 build/default/debug/_ext/334706090/wf_init.o
 .pdr           0x00000000      0x100 build/default/debug/_ext/334706090/wf_init.o
 .discard       0x00000000       0x74 build/default/debug/_ext/334706090/wf_init.o
 .text          0x00000000        0x0 build/default/debug/_ext/334706090/wf_power_save.o
 .data          0x00000000        0x0 build/default/debug/_ext/334706090/wf_power_save.o
 .bss           0x00000000        0x0 build/default/debug/_ext/334706090/wf_power_save.o
 .reginfo       0x00000000       0x18 build/default/debug/_ext/334706090/wf_power_save.o
 .pdr           0x00000000      0x240 build/default/debug/_ext/334706090/wf_power_save.o
 .discard       0x00000000       0x74 build/default/debug/_ext/334706090/wf_power_save.o
 .text.WFisPsPollEnabled
                0x00000000       0x50 build/default/debug/_ext/334706090/wf_power_save.o
 .text.WFIsPsPollActive
                0x00000000       0x24 build/default/debug/_ext/334706090/wf_power_save.o
 .text.WF_HibernateEnable
                0x00000000       0x44 build/default/debug/_ext/334706090/wf_power_save.o
 .text          0x00000000        0x0 build/default/debug/_ext/334706090/wf_scan.o
 .data          0x00000000        0x0 build/default/debug/_ext/334706090/wf_scan.o
 .bss           0x00000000        0x0 build/default/debug/_ext/334706090/wf_scan.o
 .reginfo       0x00000000       0x18 build/default/debug/_ext/334706090/wf_scan.o
 .pdr           0x00000000       0xc0 build/default/debug/_ext/334706090/wf_scan.o
 .discard       0x00000000       0x74 build/default/debug/_ext/334706090/wf_scan.o
 .text.isHostScanAllowed
                0x00000000       0x68 build/default/debug/_ext/334706090/wf_scan.o
 .text.WF_Scan  0x00000000       0xb8 build/default/debug/_ext/334706090/wf_scan.o
 .text.WF_ScanGetResult
                0x00000000       0xcc build/default/debug/_ext/334706090/wf_scan.o
 .text          0x00000000        0x0 build/default/debug/_ext/334706090/wf_spi.o
 .data          0x00000000        0x0 build/default/debug/_ext/334706090/wf_spi.o
 .bss           0x00000000        0x0 build/default/debug/_ext/334706090/wf_spi.o
 .reginfo       0x00000000       0x18 build/default/debug/_ext/334706090/wf_spi.o
 .pdr           0x00000000      0x100 build/default/debug/_ext/334706090/wf_spi.o
 .discard       0x00000000       0x74 build/default/debug/_ext/334706090/wf_spi.o
 .text          0x00000000        0x0 build/default/debug/_ext/334706090/mrf24w_mac_pic32.o
 .data          0x00000000        0x0 build/default/debug/_ext/334706090/mrf24w_mac_pic32.o
 .bss           0x00000000        0x0 build/default/debug/_ext/334706090/mrf24w_mac_pic32.o
 .reginfo       0x00000000       0x18 build/default/debug/_ext/334706090/mrf24w_mac_pic32.o
 .pdr           0x00000000      0x420 build/default/debug/_ext/334706090/mrf24w_mac_pic32.o
 .discard       0x00000000       0x74 build/default/debug/_ext/334706090/mrf24w_mac_pic32.o
 .text          0x00000000        0x0 build/default/debug/_ext/334706090/mrf24w_events.o
 .data          0x00000000        0x0 build/default/debug/_ext/334706090/mrf24w_events.o
 .bss           0x00000000        0x0 build/default/debug/_ext/334706090/mrf24w_events.o
 .reginfo       0x00000000       0x18 build/default/debug/_ext/334706090/mrf24w_events.o
 .pdr           0x00000000      0x1c0 build/default/debug/_ext/334706090/mrf24w_events.o
 .discard       0x00000000       0x74 build/default/debug/_ext/334706090/mrf24w_events.o
 .text          0x00000000        0x0 build/default/debug/_ext/334706090/wf_debug_output.o
 .bss           0x00000000        0x0 build/default/debug/_ext/334706090/wf_debug_output.o
 .reginfo       0x00000000       0x18 build/default/debug/_ext/334706090/wf_debug_output.o
 .pdr           0x00000000      0x2e0 build/default/debug/_ext/334706090/wf_debug_output.o
 .discard       0x00000000       0x74 build/default/debug/_ext/334706090/wf_debug_output.o
 .text          0x00000000        0x0 build/default/debug/_ext/334706090/wf_commands.o
 .data          0x00000000        0x0 build/default/debug/_ext/334706090/wf_commands.o
 .bss           0x00000000        0x0 build/default/debug/_ext/334706090/wf_commands.o
 .reginfo       0x00000000       0x18 build/default/debug/_ext/334706090/wf_commands.o
 .pdr           0x00000000      0x240 build/default/debug/_ext/334706090/wf_commands.o
 .discard       0x00000000       0x74 build/default/debug/_ext/334706090/wf_commands.o
 .text.HexToBin
                0x00000000       0x9c build/default/debug/_ext/334706090/wf_commands.o
 .text.ConvertASCIIHexToBinary
                0x00000000      0x144 build/default/debug/_ext/334706090/wf_commands.o
 .text.convertAsciiToHexInPlace
                0x00000000      0x134 build/default/debug/_ext/334706090/wf_commands.o
 .text          0x00000000        0x0 build/default/debug/_ext/334706090/wf_pbkdf2.o
 .data          0x00000000        0x0 build/default/debug/_ext/334706090/wf_pbkdf2.o
 .bss           0x00000000        0x0 build/default/debug/_ext/334706090/wf_pbkdf2.o
 .reginfo       0x00000000       0x18 build/default/debug/_ext/334706090/wf_pbkdf2.o
 .pdr           0x00000000       0x60 build/default/debug/_ext/334706090/wf_pbkdf2.o
 .discard       0x00000000       0x74 build/default/debug/_ext/334706090/wf_pbkdf2.o
 .text          0x00000000        0x0 build/default/debug/_ext/334706090/wf_driver_com_24g.o
 .data          0x00000000        0x0 build/default/debug/_ext/334706090/wf_driver_com_24g.o
 .bss           0x00000000        0x0 build/default/debug/_ext/334706090/wf_driver_com_24g.o
 .reginfo       0x00000000       0x18 build/default/debug/_ext/334706090/wf_driver_com_24g.o
 .pdr           0x00000000      0x360 build/default/debug/_ext/334706090/wf_driver_com_24g.o
 .discard       0x00000000       0x74 build/default/debug/_ext/334706090/wf_driver_com_24g.o
 .text.ReenablePowerSaveMode
                0x00000000       0x28 build/default/debug/_ext/334706090/wf_driver_com_24g.o
 .text          0x00000000        0x0 build/default/debug/_ext/334706090/wf_driver_raw_24g.o
 .data          0x00000000        0x0 build/default/debug/_ext/334706090/wf_driver_raw_24g.o
 .bss           0x00000000        0x0 build/default/debug/_ext/334706090/wf_driver_raw_24g.o
 .reginfo       0x00000000       0x18 build/default/debug/_ext/334706090/wf_driver_raw_24g.o
 .pdr           0x00000000      0x300 build/default/debug/_ext/334706090/wf_driver_raw_24g.o
 .discard       0x00000000       0x74 build/default/debug/_ext/334706090/wf_driver_raw_24g.o
 .text.RawToRawCopy
                0x00000000       0x98 build/default/debug/_ext/334706090/wf_driver_raw_24g.o
 .text.PushRawWindow
                0x00000000       0x4c build/default/debug/_ext/334706090/wf_driver_raw_24g.o
 .text.PopRawWindow
                0x00000000       0x54 build/default/debug/_ext/334706090/wf_driver_raw_24g.o
 .text.RawGetIndex
                0x00000000       0x60 build/default/debug/_ext/334706090/wf_driver_raw_24g.o
 .text          0x00000000        0x0 build/default/debug/_ext/334706090/wf_mac_24g.o
 .data          0x00000000        0x0 build/default/debug/_ext/334706090/wf_mac_24g.o
 .bss           0x00000000        0x0 build/default/debug/_ext/334706090/wf_mac_24g.o
 .reginfo       0x00000000       0x18 build/default/debug/_ext/334706090/wf_mac_24g.o
 .pdr           0x00000000      0x3a0 build/default/debug/_ext/334706090/wf_mac_24g.o
 .discard       0x00000000       0x74 build/default/debug/_ext/334706090/wf_mac_24g.o
 .text          0x00000000        0x0 build/default/debug/_ext/334706090/wf_mgmt_msg_24g.o
 .data          0x00000000        0x0 build/default/debug/_ext/334706090/wf_mgmt_msg_24g.o
 .bss           0x00000000        0x0 build/default/debug/_ext/334706090/wf_mgmt_msg_24g.o
 .reginfo       0x00000000       0x18 build/default/debug/_ext/334706090/wf_mgmt_msg_24g.o
 .pdr           0x00000000      0x100 build/default/debug/_ext/334706090/wf_mgmt_msg_24g.o
 .discard       0x00000000       0x74 build/default/debug/_ext/334706090/wf_mgmt_msg_24g.o
 .text.WFSetFuncState
                0x00000000       0x80 build/default/debug/_ext/334706090/wf_mgmt_msg_24g.o
 .text          0x00000000        0x0 build/default/debug/_ext/334706090/wf_param_msg_24g.o
 .data          0x00000000        0x0 build/default/debug/_ext/334706090/wf_param_msg_24g.o
 .bss           0x00000000        0x0 build/default/debug/_ext/334706090/wf_param_msg_24g.o
 .reginfo       0x00000000       0x18 build/default/debug/_ext/334706090/wf_param_msg_24g.o
 .pdr           0x00000000      0x3a0 build/default/debug/_ext/334706090/wf_param_msg_24g.o
 .discard       0x00000000       0x74 build/default/debug/_ext/334706090/wf_param_msg_24g.o
 .text.WFEnableBroadcastProbeResponse
                0x00000000       0x48 build/default/debug/_ext/334706090/wf_param_msg_24g.o
 .text.WF_SetLinkDownThreshold
                0x00000000       0x44 build/default/debug/_ext/334706090/wf_param_msg_24g.o
 .text.WF_SetStackVersion
                0x00000000       0x7c build/default/debug/_ext/334706090/wf_param_msg_24g.o
 .text.WF_GetWPATimeout
                0x00000000       0x44 build/default/debug/_ext/334706090/wf_param_msg_24g.o
 .text.WF_GetMultiCastFilter
                0x00000000      0x120 build/default/debug/_ext/334706090/wf_param_msg_24g.o
 .text.WF_MulticastSetConfig
                0x00000000      0x194 build/default/debug/_ext/334706090/wf_param_msg_24g.o
 .text.WF_MulticastGetConfig
                0x00000000       0xf8 build/default/debug/_ext/334706090/wf_param_msg_24g.o
 .text.WF_GetTxDataConfirm
                0x00000000       0x40 build/default/debug/_ext/334706090/wf_param_msg_24g.o
 .text.WF_EnableSWMultiCastFilter
                0x00000000       0x48 build/default/debug/_ext/334706090/wf_param_msg_24g.o
 .text.WF_GetMacStats
                0x00000000       0xac build/default/debug/_ext/334706090/wf_param_msg_24g.o
 .text.WF_YieldPassphrase2Host
                0x00000000       0x48 build/default/debug/_ext/334706090/wf_param_msg_24g.o
 .text.WF_SetPSK
                0x00000000       0x40 build/default/debug/_ext/334706090/wf_param_msg_24g.o
 .text          0x00000000        0x0 build/default/debug/_ext/334706090/wf_configData.o
 .data          0x00000000        0x0 build/default/debug/_ext/334706090/wf_configData.o
 .bss           0x00000000        0x0 build/default/debug/_ext/334706090/wf_configData.o
 .reginfo       0x00000000       0x18 build/default/debug/_ext/334706090/wf_configData.o
 .pdr           0x00000000       0xe0 build/default/debug/_ext/334706090/wf_configData.o
 .discard       0x00000000       0x74 build/default/debug/_ext/334706090/wf_configData.o
 .text          0x00000000        0x0 build/default/debug/_ext/1472/main_demo.o
 .data          0x00000000        0x0 build/default/debug/_ext/1472/main_demo.o
 .bss           0x00000000        0x0 build/default/debug/_ext/1472/main_demo.o
 .reginfo       0x00000000       0x18 build/default/debug/_ext/1472/main_demo.o
 .pdr           0x00000000       0xe0 build/default/debug/_ext/1472/main_demo.o
 .discard       0x00000000       0x74 build/default/debug/_ext/1472/main_demo.o
 .text          0x00000000        0x0 build/default/debug/_ext/1472/custom_snmp_app.o
 .data          0x00000000        0x0 build/default/debug/_ext/1472/custom_snmp_app.o
 .bss           0x00000000        0x0 build/default/debug/_ext/1472/custom_snmp_app.o
 .reginfo       0x00000000       0x18 build/default/debug/_ext/1472/custom_snmp_app.o
 .pdr           0x00000000        0x0 build/default/debug/_ext/1472/custom_snmp_app.o
 .text          0x00000000        0x0 build/default/debug/_ext/1472/custom_ssl_cert.o
 .data          0x00000000        0x0 build/default/debug/_ext/1472/custom_ssl_cert.o
 .bss           0x00000000        0x0 build/default/debug/_ext/1472/custom_ssl_cert.o
 .reginfo       0x00000000       0x18 build/default/debug/_ext/1472/custom_ssl_cert.o
 .pdr           0x00000000       0x60 build/default/debug/_ext/1472/custom_ssl_cert.o
 .discard       0x00000000       0x74 build/default/debug/_ext/1472/custom_ssl_cert.o
 .text          0x00000000        0x0 build/default/debug/_ext/1472/mpfs_img2.o
 .data          0x00000000        0x0 build/default/debug/_ext/1472/mpfs_img2.o
 .bss           0x00000000        0x0 build/default/debug/_ext/1472/mpfs_img2.o
 .reginfo       0x00000000       0x18 build/default/debug/_ext/1472/mpfs_img2.o
 .pdr           0x00000000       0x60 build/default/debug/_ext/1472/mpfs_img2.o
 .discard       0x00000000       0x74 build/default/debug/_ext/1472/mpfs_img2.o
 .text          0x00000000        0x0 build/default/debug/_ext/1472/wf_config.o
 .data          0x00000000        0x0 build/default/debug/_ext/1472/wf_config.o
 .bss           0x00000000        0x0 build/default/debug/_ext/1472/wf_config.o
 .reginfo       0x00000000       0x18 build/default/debug/_ext/1472/wf_config.o
 .pdr           0x00000000       0x80 build/default/debug/_ext/1472/wf_config.o
 .discard       0x00000000       0x74 build/default/debug/_ext/1472/wf_config.o
 .text          0x00000000        0x0 build/default/debug/_ext/1472/custom_http_app.o
 .data          0x00000000        0x0 build/default/debug/_ext/1472/custom_http_app.o
 .reginfo       0x00000000       0x18 build/default/debug/_ext/1472/custom_http_app.o
 .pdr           0x00000000      0x560 build/default/debug/_ext/1472/custom_http_app.o
 .discard       0x00000000       0x74 build/default/debug/_ext/1472/custom_http_app.o
 .text          0x00000000        0x0 c:/program files/microchip/xc32/v1.21/bin/../lib/gcc/pic32mx/4.5.2/../../../../pic32mx/lib/./proc/32MX795F512L\default_isr_vectors.o
 .data          0x00000000        0x0 c:/program files/microchip/xc32/v1.21/bin/../lib/gcc/pic32mx/4.5.2/../../../../pic32mx/lib/./proc/32MX795F512L\default_isr_vectors.o
 .bss           0x00000000        0x0 c:/program files/microchip/xc32/v1.21/bin/../lib/gcc/pic32mx/4.5.2/../../../../pic32mx/lib/./proc/32MX795F512L\default_isr_vectors.o
 .reginfo       0x00000000       0x18 c:/program files/microchip/xc32/v1.21/bin/../lib/gcc/pic32mx/4.5.2/../../../../pic32mx/lib/./proc/32MX795F512L\default_isr_vectors.o
 .pdr           0x00000000        0x0 c:/program files/microchip/xc32/v1.21/bin/../lib/gcc/pic32mx/4.5.2/../../../../pic32mx/lib/./proc/32MX795F512L\default_isr_vectors.o
 .discard       0x00000000      0x100 c:/program files/microchip/xc32/v1.21/bin/../lib/gcc/pic32mx/4.5.2/../../../../pic32mx/lib/./proc/32MX795F512L\default_isr_vectors.o
 .text          0x00000000        0x0 c:/program files/microchip/xc32/v1.21/bin/../lib/gcc/pic32mx/4.5.2/../../../../pic32mx/lib/./proc/32MX795F512L\processor.o
 .data          0x00000000        0x0 c:/program files/microchip/xc32/v1.21/bin/../lib/gcc/pic32mx/4.5.2/../../../../pic32mx/lib/./proc/32MX795F512L\processor.o
 .bss           0x00000000        0x0 c:/program files/microchip/xc32/v1.21/bin/../lib/gcc/pic32mx/4.5.2/../../../../pic32mx/lib/./proc/32MX795F512L\processor.o
 .reginfo       0x00000000       0x18 c:/program files/microchip/xc32/v1.21/bin/../lib/gcc/pic32mx/4.5.2/../../../../pic32mx/lib/./proc/32MX795F512L\processor.o
 .pdr           0x00000000        0x0 c:/program files/microchip/xc32/v1.21/bin/../lib/gcc/pic32mx/4.5.2/../../../../pic32mx/lib/./proc/32MX795F512L\processor.o
 .text          0x00000000        0x0 c:/program files/microchip/xc32/v1.21/bin/../lib/gcc/pic32mx/4.5.2/../../../../pic32mx/lib/size\libmchp_peripheral.a(open_core_timer_lib.o)
 .data          0x00000000        0x0 c:/program files/microchip/xc32/v1.21/bin/../lib/gcc/pic32mx/4.5.2/../../../../pic32mx/lib/size\libmchp_peripheral.a(open_core_timer_lib.o)
 .bss           0x00000000        0x0 c:/program files/microchip/xc32/v1.21/bin/../lib/gcc/pic32mx/4.5.2/../../../../pic32mx/lib/size\libmchp_peripheral.a(open_core_timer_lib.o)
 .reginfo       0x00000000       0x18 c:/program files/microchip/xc32/v1.21/bin/../lib/gcc/pic32mx/4.5.2/../../../../pic32mx/lib/size\libmchp_peripheral.a(open_core_timer_lib.o)
 .pdr           0x00000000       0x20 c:/program files/microchip/xc32/v1.21/bin/../lib/gcc/pic32mx/4.5.2/../../../../pic32mx/lib/size\libmchp_peripheral.a(open_core_timer_lib.o)
 .text          0x00000000        0x0 c:/program files/microchip/xc32/v1.21/bin/../lib/gcc/pic32mx/4.5.2/../../../../pic32mx/lib/size\libmchp_peripheral_32MX795F512L.a(eth_ack_packet_lib.o)
 .data          0x00000000        0x0 c:/program files/microchip/xc32/v1.21/bin/../lib/gcc/pic32mx/4.5.2/../../../../pic32mx/lib/size\libmchp_peripheral_32MX795F512L.a(eth_ack_packet_lib.o)
 .bss           0x00000000        0x0 c:/program files/microchip/xc32/v1.21/bin/../lib/gcc/pic32mx/4.5.2/../../../../pic32mx/lib/size\libmchp_peripheral_32MX795F512L.a(eth_ack_packet_lib.o)
 .reginfo       0x00000000       0x18 c:/program files/microchip/xc32/v1.21/bin/../lib/gcc/pic32mx/4.5.2/../../../../pic32mx/lib/size\libmchp_peripheral_32MX795F512L.a(eth_ack_packet_lib.o)
 .pdr           0x00000000       0xc0 c:/program files/microchip/xc32/v1.21/bin/../lib/gcc/pic32mx/4.5.2/../../../../pic32mx/lib/size\libmchp_peripheral_32MX795F512L.a(eth_ack_packet_lib.o)
 .text.EthRxAckBuffer
                0x00000000       0x1c c:/program files/microchip/xc32/v1.21/bin/../lib/gcc/pic32mx/4.5.2/../../../../pic32mx/lib/size\libmchp_peripheral_32MX795F512L.a(eth_ack_packet_lib.o)
 .text.EthTxAckBuffer
                0x00000000       0x30 c:/program files/microchip/xc32/v1.21/bin/../lib/gcc/pic32mx/4.5.2/../../../../pic32mx/lib/size\libmchp_peripheral_32MX795F512L.a(eth_ack_packet_lib.o)
 .text          0x00000000        0x0 c:/program files/microchip/xc32/v1.21/bin/../lib/gcc/pic32mx/4.5.2/../../../../pic32mx/lib/size\libmchp_peripheral_32MX795F512L.a(eth_close_lib.o)
 .data          0x00000000        0x0 c:/program files/microchip/xc32/v1.21/bin/../lib/gcc/pic32mx/4.5.2/../../../../pic32mx/lib/size\libmchp_peripheral_32MX795F512L.a(eth_close_lib.o)
 .bss           0x00000000        0x0 c:/program files/microchip/xc32/v1.21/bin/../lib/gcc/pic32mx/4.5.2/../../../../pic32mx/lib/size\libmchp_peripheral_32MX795F512L.a(eth_close_lib.o)
 .reginfo       0x00000000       0x18 c:/program files/microchip/xc32/v1.21/bin/../lib/gcc/pic32mx/4.5.2/../../../../pic32mx/lib/size\libmchp_peripheral_32MX795F512L.a(eth_close_lib.o)
 .pdr           0x00000000       0x20 c:/program files/microchip/xc32/v1.21/bin/../lib/gcc/pic32mx/4.5.2/../../../../pic32mx/lib/size\libmchp_peripheral_32MX795F512L.a(eth_close_lib.o)
 .text          0x00000000        0x0 c:/program files/microchip/xc32/v1.21/bin/../lib/gcc/pic32mx/4.5.2/../../../../pic32mx/lib/size\libmchp_peripheral_32MX795F512L.a(eth_descriptors_add_lib.o)
 .data          0x00000000        0x0 c:/program files/microchip/xc32/v1.21/bin/../lib/gcc/pic32mx/4.5.2/../../../../pic32mx/lib/size\libmchp_peripheral_32MX795F512L.a(eth_descriptors_add_lib.o)
 .bss           0x00000000        0x0 c:/program files/microchip/xc32/v1.21/bin/../lib/gcc/pic32mx/4.5.2/../../../../pic32mx/lib/size\libmchp_peripheral_32MX795F512L.a(eth_descriptors_add_lib.o)
 .reginfo       0x00000000       0x18 c:/program files/microchip/xc32/v1.21/bin/../lib/gcc/pic32mx/4.5.2/../../../../pic32mx/lib/size\libmchp_peripheral_32MX795F512L.a(eth_descriptors_add_lib.o)
 .pdr           0x00000000       0x40 c:/program files/microchip/xc32/v1.21/bin/../lib/gcc/pic32mx/4.5.2/../../../../pic32mx/lib/size\libmchp_peripheral_32MX795F512L.a(eth_descriptors_add_lib.o)
 .text.EthDescriptorsAdd
                0x00000000      0x120 c:/program files/microchip/xc32/v1.21/bin/../lib/gcc/pic32mx/4.5.2/../../../../pic32mx/lib/size\libmchp_peripheral_32MX795F512L.a(eth_descriptors_add_lib.o)
 .text          0x00000000        0x0 c:/program files/microchip/xc32/v1.21/bin/../lib/gcc/pic32mx/4.5.2/../../../../pic32mx/lib/size\libmchp_peripheral_32MX795F512L.a(eth_descriptors_remove_lib.o)
 .data          0x00000000        0x0 c:/program files/microchip/xc32/v1.21/bin/../lib/gcc/pic32mx/4.5.2/../../../../pic32mx/lib/size\libmchp_peripheral_32MX795F512L.a(eth_descriptors_remove_lib.o)
 .bss           0x00000000        0x0 c:/program files/microchip/xc32/v1.21/bin/../lib/gcc/pic32mx/4.5.2/../../../../pic32mx/lib/size\libmchp_peripheral_32MX795F512L.a(eth_descriptors_remove_lib.o)
 .reginfo       0x00000000       0x18 c:/program files/microchip/xc32/v1.21/bin/../lib/gcc/pic32mx/4.5.2/../../../../pic32mx/lib/size\libmchp_peripheral_32MX795F512L.a(eth_descriptors_remove_lib.o)
 .pdr           0x00000000       0xe0 c:/program files/microchip/xc32/v1.21/bin/../lib/gcc/pic32mx/4.5.2/../../../../pic32mx/lib/size\libmchp_peripheral_32MX795F512L.a(eth_descriptors_remove_lib.o)
 .text.EthDescriptorsPoolRemove
                0x00000000       0xac c:/program files/microchip/xc32/v1.21/bin/../lib/gcc/pic32mx/4.5.2/../../../../pic32mx/lib/size\libmchp_peripheral_32MX795F512L.a(eth_descriptors_remove_lib.o)
 .text.EthDescriptorGetBuffer
                0x00000000       0x34 c:/program files/microchip/xc32/v1.21/bin/../lib/gcc/pic32mx/4.5.2/../../../../pic32mx/lib/size\libmchp_peripheral_32MX795F512L.a(eth_descriptors_remove_lib.o)
 .text.EthDescriptorsRemove
                0x00000000       0xa8 c:/program files/microchip/xc32/v1.21/bin/../lib/gcc/pic32mx/4.5.2/../../../../pic32mx/lib/size\libmchp_peripheral_32MX795F512L.a(eth_descriptors_remove_lib.o)
 .text._EthFreeDcptList
                0x00000000       0x54 c:/program files/microchip/xc32/v1.21/bin/../lib/gcc/pic32mx/4.5.2/../../../../pic32mx/lib/size\libmchp_peripheral_32MX795F512L.a(eth_descriptors_remove_lib.o)
 .text.EthDescriptorsCleanUp
                0x00000000       0x90 c:/program files/microchip/xc32/v1.21/bin/../lib/gcc/pic32mx/4.5.2/../../../../pic32mx/lib/size\libmchp_peripheral_32MX795F512L.a(eth_descriptors_remove_lib.o)
 .text          0x00000000        0x0 c:/program files/microchip/xc32/v1.21/bin/../lib/gcc/pic32mx/4.5.2/../../../../pic32mx/lib/size\libmchp_peripheral_32MX795F512L.a(eth_events_lib.o)
 .data          0x00000000        0x0 c:/program files/microchip/xc32/v1.21/bin/../lib/gcc/pic32mx/4.5.2/../../../../pic32mx/lib/size\libmchp_peripheral_32MX795F512L.a(eth_events_lib.o)
 .bss           0x00000000        0x0 c:/program files/microchip/xc32/v1.21/bin/../lib/gcc/pic32mx/4.5.2/../../../../pic32mx/lib/size\libmchp_peripheral_32MX795F512L.a(eth_events_lib.o)
 .reginfo       0x00000000       0x18 c:/program files/microchip/xc32/v1.21/bin/../lib/gcc/pic32mx/4.5.2/../../../../pic32mx/lib/size\libmchp_peripheral_32MX795F512L.a(eth_events_lib.o)
 .pdr           0x00000000       0x80 c:/program files/microchip/xc32/v1.21/bin/../lib/gcc/pic32mx/4.5.2/../../../../pic32mx/lib/size\libmchp_peripheral_32MX795F512L.a(eth_events_lib.o)
 .text.EthEventsEnableWrite
                0x00000000       0x10 c:/program files/microchip/xc32/v1.21/bin/../lib/gcc/pic32mx/4.5.2/../../../../pic32mx/lib/size\libmchp_peripheral_32MX795F512L.a(eth_events_lib.o)
 .text.EthEventsEnableGet
                0x00000000       0x10 c:/program files/microchip/xc32/v1.21/bin/../lib/gcc/pic32mx/4.5.2/../../../../pic32mx/lib/size\libmchp_peripheral_32MX795F512L.a(eth_events_lib.o)
 .text          0x00000000        0x0 c:/program files/microchip/xc32/v1.21/bin/../lib/gcc/pic32mx/4.5.2/../../../../pic32mx/lib/size\libmchp_peripheral_32MX795F512L.a(eth_init_lib.o)
 .data          0x00000000        0x0 c:/program files/microchip/xc32/v1.21/bin/../lib/gcc/pic32mx/4.5.2/../../../../pic32mx/lib/size\libmchp_peripheral_32MX795F512L.a(eth_init_lib.o)
 .bss           0x00000000        0x0 c:/program files/microchip/xc32/v1.21/bin/../lib/gcc/pic32mx/4.5.2/../../../../pic32mx/lib/size\libmchp_peripheral_32MX795F512L.a(eth_init_lib.o)
 .reginfo       0x00000000       0x18 c:/program files/microchip/xc32/v1.21/bin/../lib/gcc/pic32mx/4.5.2/../../../../pic32mx/lib/size\libmchp_peripheral_32MX795F512L.a(eth_init_lib.o)
 .pdr           0x00000000       0x20 c:/program files/microchip/xc32/v1.21/bin/../lib/gcc/pic32mx/4.5.2/../../../../pic32mx/lib/size\libmchp_peripheral_32MX795F512L.a(eth_init_lib.o)
 .text          0x00000000        0x0 c:/program files/microchip/xc32/v1.21/bin/../lib/gcc/pic32mx/4.5.2/../../../../pic32mx/lib/size\libmchp_peripheral_32MX795F512L.a(eth_mac_open_lib.o)
 .data          0x00000000        0x0 c:/program files/microchip/xc32/v1.21/bin/../lib/gcc/pic32mx/4.5.2/../../../../pic32mx/lib/size\libmchp_peripheral_32MX795F512L.a(eth_mac_open_lib.o)
 .bss           0x00000000        0x0 c:/program files/microchip/xc32/v1.21/bin/../lib/gcc/pic32mx/4.5.2/../../../../pic32mx/lib/size\libmchp_peripheral_32MX795F512L.a(eth_mac_open_lib.o)
 .reginfo       0x00000000       0x18 c:/program files/microchip/xc32/v1.21/bin/../lib/gcc/pic32mx/4.5.2/../../../../pic32mx/lib/size\libmchp_peripheral_32MX795F512L.a(eth_mac_open_lib.o)
 .pdr           0x00000000       0x20 c:/program files/microchip/xc32/v1.21/bin/../lib/gcc/pic32mx/4.5.2/../../../../pic32mx/lib/size\libmchp_peripheral_32MX795F512L.a(eth_mac_open_lib.o)
 .text          0x00000000        0x0 c:/program files/microchip/xc32/v1.21/bin/../lib/gcc/pic32mx/4.5.2/../../../../pic32mx/lib/size\libmchp_peripheral_32MX795F512L.a(eth_mac_set_address_max_lib.o)
 .data          0x00000000        0x0 c:/program files/microchip/xc32/v1.21/bin/../lib/gcc/pic32mx/4.5.2/../../../../pic32mx/lib/size\libmchp_peripheral_32MX795F512L.a(eth_mac_set_address_max_lib.o)
 .bss           0x00000000        0x0 c:/program files/microchip/xc32/v1.21/bin/../lib/gcc/pic32mx/4.5.2/../../../../pic32mx/lib/size\libmchp_peripheral_32MX795F512L.a(eth_mac_set_address_max_lib.o)
 .reginfo       0x00000000       0x18 c:/program files/microchip/xc32/v1.21/bin/../lib/gcc/pic32mx/4.5.2/../../../../pic32mx/lib/size\libmchp_peripheral_32MX795F512L.a(eth_mac_set_address_max_lib.o)
 .pdr           0x00000000       0x60 c:/program files/microchip/xc32/v1.21/bin/../lib/gcc/pic32mx/4.5.2/../../../../pic32mx/lib/size\libmchp_peripheral_32MX795F512L.a(eth_mac_set_address_max_lib.o)
 .text.EthMACGetAddress
                0x00000000       0x44 c:/program files/microchip/xc32/v1.21/bin/../lib/gcc/pic32mx/4.5.2/../../../../pic32mx/lib/size\libmchp_peripheral_32MX795F512L.a(eth_mac_set_address_max_lib.o)
 .text.EthMACSetMaxFrame
                0x00000000       0x14 c:/program files/microchip/xc32/v1.21/bin/../lib/gcc/pic32mx/4.5.2/../../../../pic32mx/lib/size\libmchp_peripheral_32MX795F512L.a(eth_mac_set_address_max_lib.o)
 .text          0x00000000        0x0 c:/program files/microchip/xc32/v1.21/bin/../lib/gcc/pic32mx/4.5.2/../../../../pic32mx/lib/size\libmchp_peripheral_32MX795F512L.a(eth_rx_buffers_append_lib.o)
 .data          0x00000000        0x0 c:/program files/microchip/xc32/v1.21/bin/../lib/gcc/pic32mx/4.5.2/../../../../pic32mx/lib/size\libmchp_peripheral_32MX795F512L.a(eth_rx_buffers_append_lib.o)
 .bss           0x00000000        0x0 c:/program files/microchip/xc32/v1.21/bin/../lib/gcc/pic32mx/4.5.2/../../../../pic32mx/lib/size\libmchp_peripheral_32MX795F512L.a(eth_rx_buffers_append_lib.o)
 .reginfo       0x00000000       0x18 c:/program files/microchip/xc32/v1.21/bin/../lib/gcc/pic32mx/4.5.2/../../../../pic32mx/lib/size\libmchp_peripheral_32MX795F512L.a(eth_rx_buffers_append_lib.o)
 .pdr           0x00000000       0x20 c:/program files/microchip/xc32/v1.21/bin/../lib/gcc/pic32mx/4.5.2/../../../../pic32mx/lib/size\libmchp_peripheral_32MX795F512L.a(eth_rx_buffers_append_lib.o)
 .text          0x00000000        0x0 c:/program files/microchip/xc32/v1.21/bin/../lib/gcc/pic32mx/4.5.2/../../../../pic32mx/lib/size\libmchp_peripheral_32MX795F512L.a(eth_rx_filters_lib.o)
 .data          0x00000000        0x0 c:/program files/microchip/xc32/v1.21/bin/../lib/gcc/pic32mx/4.5.2/../../../../pic32mx/lib/size\libmchp_peripheral_32MX795F512L.a(eth_rx_filters_lib.o)
 .bss           0x00000000        0x0 c:/program files/microchip/xc32/v1.21/bin/../lib/gcc/pic32mx/4.5.2/../../../../pic32mx/lib/size\libmchp_peripheral_32MX795F512L.a(eth_rx_filters_lib.o)
 .reginfo       0x00000000       0x18 c:/program files/microchip/xc32/v1.21/bin/../lib/gcc/pic32mx/4.5.2/../../../../pic32mx/lib/size\libmchp_peripheral_32MX795F512L.a(eth_rx_filters_lib.o)
 .pdr           0x00000000       0xc0 c:/program files/microchip/xc32/v1.21/bin/../lib/gcc/pic32mx/4.5.2/../../../../pic32mx/lib/size\libmchp_peripheral_32MX795F512L.a(eth_rx_filters_lib.o)
 .text.EthRxFiltersWrite
                0x00000000       0x10 c:/program files/microchip/xc32/v1.21/bin/../lib/gcc/pic32mx/4.5.2/../../../../pic32mx/lib/size\libmchp_peripheral_32MX795F512L.a(eth_rx_filters_lib.o)
 .text.EthRxFiltersPMSet
                0x00000000       0x64 c:/program files/microchip/xc32/v1.21/bin/../lib/gcc/pic32mx/4.5.2/../../../../pic32mx/lib/size\libmchp_peripheral_32MX795F512L.a(eth_rx_filters_lib.o)
 .text.EthRxFiltersPMClr
                0x00000000       0x14 c:/program files/microchip/xc32/v1.21/bin/../lib/gcc/pic32mx/4.5.2/../../../../pic32mx/lib/size\libmchp_peripheral_32MX795F512L.a(eth_rx_filters_lib.o)
 .text          0x00000000        0x0 c:/program files/microchip/xc32/v1.21/bin/../lib/gcc/pic32mx/4.5.2/../../../../pic32mx/lib/size\libmchp_peripheral_32MX795F512L.a(eth_rx_get_packet_lib.o)
 .data          0x00000000        0x0 c:/program files/microchip/xc32/v1.21/bin/../lib/gcc/pic32mx/4.5.2/../../../../pic32mx/lib/size\libmchp_peripheral_32MX795F512L.a(eth_rx_get_packet_lib.o)
 .bss           0x00000000        0x0 c:/program files/microchip/xc32/v1.21/bin/../lib/gcc/pic32mx/4.5.2/../../../../pic32mx/lib/size\libmchp_peripheral_32MX795F512L.a(eth_rx_get_packet_lib.o)
 .reginfo       0x00000000       0x18 c:/program files/microchip/xc32/v1.21/bin/../lib/gcc/pic32mx/4.5.2/../../../../pic32mx/lib/size\libmchp_peripheral_32MX795F512L.a(eth_rx_get_packet_lib.o)
 .pdr           0x00000000       0x40 c:/program files/microchip/xc32/v1.21/bin/../lib/gcc/pic32mx/4.5.2/../../../../pic32mx/lib/size\libmchp_peripheral_32MX795F512L.a(eth_rx_get_packet_lib.o)
 .text          0x00000000        0x0 c:/program files/microchip/xc32/v1.21/bin/../lib/gcc/pic32mx/4.5.2/../../../../pic32mx/lib/size\libmchp_peripheral_32MX795F512L.a(eth_rx_set_buffer_size_lib.o)
 .data          0x00000000        0x0 c:/program files/microchip/xc32/v1.21/bin/../lib/gcc/pic32mx/4.5.2/../../../../pic32mx/lib/size\libmchp_peripheral_32MX795F512L.a(eth_rx_set_buffer_size_lib.o)
 .bss           0x00000000        0x0 c:/program files/microchip/xc32/v1.21/bin/../lib/gcc/pic32mx/4.5.2/../../../../pic32mx/lib/size\libmchp_peripheral_32MX795F512L.a(eth_rx_set_buffer_size_lib.o)
 .reginfo       0x00000000       0x18 c:/program files/microchip/xc32/v1.21/bin/../lib/gcc/pic32mx/4.5.2/../../../../pic32mx/lib/size\libmchp_peripheral_32MX795F512L.a(eth_rx_set_buffer_size_lib.o)
 .pdr           0x00000000       0x20 c:/program files/microchip/xc32/v1.21/bin/../lib/gcc/pic32mx/4.5.2/../../../../pic32mx/lib/size\libmchp_peripheral_32MX795F512L.a(eth_rx_set_buffer_size_lib.o)
 .text          0x00000000        0x0 c:/program files/microchip/xc32/v1.21/bin/../lib/gcc/pic32mx/4.5.2/../../../../pic32mx/lib/size\libmchp_peripheral_32MX795F512L.a(eth_tx_packet_lib.o)
 .data          0x00000000        0x0 c:/program files/microchip/xc32/v1.21/bin/../lib/gcc/pic32mx/4.5.2/../../../../pic32mx/lib/size\libmchp_peripheral_32MX795F512L.a(eth_tx_packet_lib.o)
 .bss           0x00000000        0x0 c:/program files/microchip/xc32/v1.21/bin/../lib/gcc/pic32mx/4.5.2/../../../../pic32mx/lib/size\libmchp_peripheral_32MX795F512L.a(eth_tx_packet_lib.o)
 .reginfo       0x00000000       0x18 c:/program files/microchip/xc32/v1.21/bin/../lib/gcc/pic32mx/4.5.2/../../../../pic32mx/lib/size\libmchp_peripheral_32MX795F512L.a(eth_tx_packet_lib.o)
 .pdr           0x00000000       0xc0 c:/program files/microchip/xc32/v1.21/bin/../lib/gcc/pic32mx/4.5.2/../../../../pic32mx/lib/size\libmchp_peripheral_32MX795F512L.a(eth_tx_packet_lib.o)
 .text.EthTxSendPacket
                0x00000000      0x10c c:/program files/microchip/xc32/v1.21/bin/../lib/gcc/pic32mx/4.5.2/../../../../pic32mx/lib/size\libmchp_peripheral_32MX795F512L.a(eth_tx_packet_lib.o)
 .text._EthFindPacket
                0x00000000       0x38 c:/program files/microchip/xc32/v1.21/bin/../lib/gcc/pic32mx/4.5.2/../../../../pic32mx/lib/size\libmchp_peripheral_32MX795F512L.a(eth_tx_packet_lib.o)
 .text.EthTxGetBufferStatus
                0x00000000       0x60 c:/program files/microchip/xc32/v1.21/bin/../lib/gcc/pic32mx/4.5.2/../../../../pic32mx/lib/size\libmchp_peripheral_32MX795F512L.a(eth_tx_packet_lib.o)
 .text          0x00000000        0x0 c:/program files/microchip/xc32/v1.21/bin/../lib/gcc/pic32mx/4.5.2/../../../../pic32mx/lib/size\libmchp_peripheral_32MX795F512L.a(_eth_append_busy_list_lib.o)
 .data          0x00000000        0x0 c:/program files/microchip/xc32/v1.21/bin/../lib/gcc/pic32mx/4.5.2/../../../../pic32mx/lib/size\libmchp_peripheral_32MX795F512L.a(_eth_append_busy_list_lib.o)
 .bss           0x00000000        0x0 c:/program files/microchip/xc32/v1.21/bin/../lib/gcc/pic32mx/4.5.2/../../../../pic32mx/lib/size\libmchp_peripheral_32MX795F512L.a(_eth_append_busy_list_lib.o)
 .reginfo       0x00000000       0x18 c:/program files/microchip/xc32/v1.21/bin/../lib/gcc/pic32mx/4.5.2/../../../../pic32mx/lib/size\libmchp_peripheral_32MX795F512L.a(_eth_append_busy_list_lib.o)
 .pdr           0x00000000       0x20 c:/program files/microchip/xc32/v1.21/bin/../lib/gcc/pic32mx/4.5.2/../../../../pic32mx/lib/size\libmchp_peripheral_32MX795F512L.a(_eth_append_busy_list_lib.o)
 .text          0x00000000        0x0 c:/program files/microchip/xc32/v1.21/bin/../lib/gcc/pic32mx/4.5.2/../../../../pic32mx/lib/size\libmchp_peripheral_32MX795F512L.a(eth_miim_access.o)
 .data          0x00000000        0x0 c:/program files/microchip/xc32/v1.21/bin/../lib/gcc/pic32mx/4.5.2/../../../../pic32mx/lib/size\libmchp_peripheral_32MX795F512L.a(eth_miim_access.o)
 .bss           0x00000000        0x0 c:/program files/microchip/xc32/v1.21/bin/../lib/gcc/pic32mx/4.5.2/../../../../pic32mx/lib/size\libmchp_peripheral_32MX795F512L.a(eth_miim_access.o)
 .reginfo       0x00000000       0x18 c:/program files/microchip/xc32/v1.21/bin/../lib/gcc/pic32mx/4.5.2/../../../../pic32mx/lib/size\libmchp_peripheral_32MX795F512L.a(eth_miim_access.o)
 .pdr           0x00000000       0xc0 c:/program files/microchip/xc32/v1.21/bin/../lib/gcc/pic32mx/4.5.2/../../../../pic32mx/lib/size\libmchp_peripheral_32MX795F512L.a(eth_miim_access.o)
 .text.EthMIIMScanStart
                0x00000000       0x38 c:/program files/microchip/xc32/v1.21/bin/../lib/gcc/pic32mx/4.5.2/../../../../pic32mx/lib/size\libmchp_peripheral_32MX795F512L.a(eth_miim_access.o)
 .text.EthMIIMScanResult
                0x00000000       0x24 c:/program files/microchip/xc32/v1.21/bin/../lib/gcc/pic32mx/4.5.2/../../../../pic32mx/lib/size\libmchp_peripheral_32MX795F512L.a(eth_miim_access.o)
 .text          0x00000000        0x0 c:/program files/microchip/xc32/v1.21/bin/../lib/gcc/pic32mx/4.5.2/../../../../pic32mx/lib/size\libmchp_peripheral_32MX795F512L.a(soft_reset_lib.o)
 .data          0x00000000        0x0 c:/program files/microchip/xc32/v1.21/bin/../lib/gcc/pic32mx/4.5.2/../../../../pic32mx/lib/size\libmchp_peripheral_32MX795F512L.a(soft_reset_lib.o)
 .bss           0x00000000        0x0 c:/program files/microchip/xc32/v1.21/bin/../lib/gcc/pic32mx/4.5.2/../../../../pic32mx/lib/size\libmchp_peripheral_32MX795F512L.a(soft_reset_lib.o)
 .reginfo       0x00000000       0x18 c:/program files/microchip/xc32/v1.21/bin/../lib/gcc/pic32mx/4.5.2/../../../../pic32mx/lib/size\libmchp_peripheral_32MX795F512L.a(soft_reset_lib.o)
 .pdr           0x00000000       0x20 c:/program files/microchip/xc32/v1.21/bin/../lib/gcc/pic32mx/4.5.2/../../../../pic32mx/lib/size\libmchp_peripheral_32MX795F512L.a(soft_reset_lib.o)
 .text          0x00000000        0x0 c:/program files/microchip/xc32/v1.21/bin/../lib/gcc/pic32mx/4.5.2/../../../../pic32mx/lib/size\libmchp_peripheral_32MX795F512L.a(pcache.o)
 .data          0x00000000        0x0 c:/program files/microchip/xc32/v1.21/bin/../lib/gcc/pic32mx/4.5.2/../../../../pic32mx/lib/size\libmchp_peripheral_32MX795F512L.a(pcache.o)
 .bss           0x00000000        0x0 c:/program files/microchip/xc32/v1.21/bin/../lib/gcc/pic32mx/4.5.2/../../../../pic32mx/lib/size\libmchp_peripheral_32MX795F512L.a(pcache.o)
 .reginfo       0x00000000       0x18 c:/program files/microchip/xc32/v1.21/bin/../lib/gcc/pic32mx/4.5.2/../../../../pic32mx/lib/size\libmchp_peripheral_32MX795F512L.a(pcache.o)
 .pdr           0x00000000       0x40 c:/program files/microchip/xc32/v1.21/bin/../lib/gcc/pic32mx/4.5.2/../../../../pic32mx/lib/size\libmchp_peripheral_32MX795F512L.a(pcache.o)
 .text.CheKseg0CacheOff
                0x00000000       0x18 c:/program files/microchip/xc32/v1.21/bin/../lib/gcc/pic32mx/4.5.2/../../../../pic32mx/lib/size\libmchp_peripheral_32MX795F512L.a(pcache.o)
 .text          0x00000000        0x0 c:/program files/microchip/xc32/v1.21/bin/../lib/gcc/pic32mx/4.5.2/../../../../pic32mx/lib/size\libmchp_peripheral_32MX795F512L.a(int_disable_interrupts_lib.o)
 .data          0x00000000        0x0 c:/program files/microchip/xc32/v1.21/bin/../lib/gcc/pic32mx/4.5.2/../../../../pic32mx/lib/size\libmchp_peripheral_32MX795F512L.a(int_disable_interrupts_lib.o)
 .bss           0x00000000        0x0 c:/program files/microchip/xc32/v1.21/bin/../lib/gcc/pic32mx/4.5.2/../../../../pic32mx/lib/size\libmchp_peripheral_32MX795F512L.a(int_disable_interrupts_lib.o)
 .reginfo       0x00000000       0x18 c:/program files/microchip/xc32/v1.21/bin/../lib/gcc/pic32mx/4.5.2/../../../../pic32mx/lib/size\libmchp_peripheral_32MX795F512L.a(int_disable_interrupts_lib.o)
 .pdr           0x00000000       0x20 c:/program files/microchip/xc32/v1.21/bin/../lib/gcc/pic32mx/4.5.2/../../../../pic32mx/lib/size\libmchp_peripheral_32MX795F512L.a(int_disable_interrupts_lib.o)
 .text          0x00000000        0x0 c:/program files/microchip/xc32/v1.21/bin/../lib/gcc/pic32mx/4.5.2/../../../../pic32mx/lib/size\libmchp_peripheral_32MX795F512L.a(int_restore_interrupts_lib.o)
 .data          0x00000000        0x0 c:/program files/microchip/xc32/v1.21/bin/../lib/gcc/pic32mx/4.5.2/../../../../pic32mx/lib/size\libmchp_peripheral_32MX795F512L.a(int_restore_interrupts_lib.o)
 .bss           0x00000000        0x0 c:/program files/microchip/xc32/v1.21/bin/../lib/gcc/pic32mx/4.5.2/../../../../pic32mx/lib/size\libmchp_peripheral_32MX795F512L.a(int_restore_interrupts_lib.o)
 .reginfo       0x00000000       0x18 c:/program files/microchip/xc32/v1.21/bin/../lib/gcc/pic32mx/4.5.2/../../../../pic32mx/lib/size\libmchp_peripheral_32MX795F512L.a(int_restore_interrupts_lib.o)
 .pdr           0x00000000       0x20 c:/program files/microchip/xc32/v1.21/bin/../lib/gcc/pic32mx/4.5.2/../../../../pic32mx/lib/size\libmchp_peripheral_32MX795F512L.a(int_restore_interrupts_lib.o)
 .text          0x00000000        0x0 c:/program files/microchip/xc32/v1.21/bin/../lib/gcc/pic32mx/4.5.2/../../../../pic32mx/lib/size\libmchp_peripheral_32MX795F512L.a(int_enable_mv_int_lib.o)
 .data          0x00000000        0x0 c:/program files/microchip/xc32/v1.21/bin/../lib/gcc/pic32mx/4.5.2/../../../../pic32mx/lib/size\libmchp_peripheral_32MX795F512L.a(int_enable_mv_int_lib.o)
 .bss           0x00000000        0x0 c:/program files/microchip/xc32/v1.21/bin/../lib/gcc/pic32mx/4.5.2/../../../../pic32mx/lib/size\libmchp_peripheral_32MX795F512L.a(int_enable_mv_int_lib.o)
 .reginfo       0x00000000       0x18 c:/program files/microchip/xc32/v1.21/bin/../lib/gcc/pic32mx/4.5.2/../../../../pic32mx/lib/size\libmchp_peripheral_32MX795F512L.a(int_enable_mv_int_lib.o)
 .pdr           0x00000000       0x20 c:/program files/microchip/xc32/v1.21/bin/../lib/gcc/pic32mx/4.5.2/../../../../pic32mx/lib/size\libmchp_peripheral_32MX795F512L.a(int_enable_mv_int_lib.o)
 .text          0x00000000        0x0 c:/program files/microchip/xc32/v1.21/bin/../lib/gcc/pic32mx/4.5.2/../../../../pic32mx/lib/size\libmchp_peripheral_32MX795F512L.a(int_tbl_lib.o)
 .data          0x00000000        0x0 c:/program files/microchip/xc32/v1.21/bin/../lib/gcc/pic32mx/4.5.2/../../../../pic32mx/lib/size\libmchp_peripheral_32MX795F512L.a(int_tbl_lib.o)
 .bss           0x00000000        0x0 c:/program files/microchip/xc32/v1.21/bin/../lib/gcc/pic32mx/4.5.2/../../../../pic32mx/lib/size\libmchp_peripheral_32MX795F512L.a(int_tbl_lib.o)
 .reginfo       0x00000000       0x18 c:/program files/microchip/xc32/v1.21/bin/../lib/gcc/pic32mx/4.5.2/../../../../pic32mx/lib/size\libmchp_peripheral_32MX795F512L.a(int_tbl_lib.o)
 .pdr           0x00000000      0x120 c:/program files/microchip/xc32/v1.21/bin/../lib/gcc/pic32mx/4.5.2/../../../../pic32mx/lib/size\libmchp_peripheral_32MX795F512L.a(int_tbl_lib.o)
 .text.INTSetFlag
                0x00000000       0x28 c:/program files/microchip/xc32/v1.21/bin/../lib/gcc/pic32mx/4.5.2/../../../../pic32mx/lib/size\libmchp_peripheral_32MX795F512L.a(int_tbl_lib.o)
 .text.INTGetFlag
                0x00000000       0x28 c:/program files/microchip/xc32/v1.21/bin/../lib/gcc/pic32mx/4.5.2/../../../../pic32mx/lib/size\libmchp_peripheral_32MX795F512L.a(int_tbl_lib.o)
 .text.INTGetEnable
                0x00000000       0x28 c:/program files/microchip/xc32/v1.21/bin/../lib/gcc/pic32mx/4.5.2/../../../../pic32mx/lib/size\libmchp_peripheral_32MX795F512L.a(int_tbl_lib.o)
 .text.INTGetVectorPriority
                0x00000000       0x2c c:/program files/microchip/xc32/v1.21/bin/../lib/gcc/pic32mx/4.5.2/../../../../pic32mx/lib/size\libmchp_peripheral_32MX795F512L.a(int_tbl_lib.o)
 .text.INTGetVectorSubPriority
                0x00000000       0x2c c:/program files/microchip/xc32/v1.21/bin/../lib/gcc/pic32mx/4.5.2/../../../../pic32mx/lib/size\libmchp_peripheral_32MX795F512L.a(int_tbl_lib.o)
 .text          0x00000000        0x0 c:/program files/microchip/xc32/v1.21/bin/../lib/gcc/pic32mx/4.5.2/../../../../pic32mx/lib/size\libmchp_peripheral_32MX795F512L.a(rtcc_init_lib.o)
 .data          0x00000000        0x0 c:/program files/microchip/xc32/v1.21/bin/../lib/gcc/pic32mx/4.5.2/../../../../pic32mx/lib/size\libmchp_peripheral_32MX795F512L.a(rtcc_init_lib.o)
 .bss           0x00000000        0x0 c:/program files/microchip/xc32/v1.21/bin/../lib/gcc/pic32mx/4.5.2/../../../../pic32mx/lib/size\libmchp_peripheral_32MX795F512L.a(rtcc_init_lib.o)
 .reginfo       0x00000000       0x18 c:/program files/microchip/xc32/v1.21/bin/../lib/gcc/pic32mx/4.5.2/../../../../pic32mx/lib/size\libmchp_peripheral_32MX795F512L.a(rtcc_init_lib.o)
 .pdr           0x00000000       0x20 c:/program files/microchip/xc32/v1.21/bin/../lib/gcc/pic32mx/4.5.2/../../../../pic32mx/lib/size\libmchp_peripheral_32MX795F512L.a(rtcc_init_lib.o)
 .text.RtccInit
                0x00000000      0x170 c:/program files/microchip/xc32/v1.21/bin/../lib/gcc/pic32mx/4.5.2/../../../../pic32mx/lib/size\libmchp_peripheral_32MX795F512L.a(rtcc_init_lib.o)
 .text          0x00000000        0x0 c:/program files/microchip/xc32/v1.21/bin/../lib/gcc/pic32mx/4.5.2/../../../../pic32mx/lib/size\libmchp_peripheral_32MX795F512L.a(rtcc_open_lib.o)
 .data          0x00000000        0x0 c:/program files/microchip/xc32/v1.21/bin/../lib/gcc/pic32mx/4.5.2/../../../../pic32mx/lib/size\libmchp_peripheral_32MX795F512L.a(rtcc_open_lib.o)
 .bss           0x00000000        0x0 c:/program files/microchip/xc32/v1.21/bin/../lib/gcc/pic32mx/4.5.2/../../../../pic32mx/lib/size\libmchp_peripheral_32MX795F512L.a(rtcc_open_lib.o)
 .reginfo       0x00000000       0x18 c:/program files/microchip/xc32/v1.21/bin/../lib/gcc/pic32mx/4.5.2/../../../../pic32mx/lib/size\libmchp_peripheral_32MX795F512L.a(rtcc_open_lib.o)
 .pdr           0x00000000       0x20 c:/program files/microchip/xc32/v1.21/bin/../lib/gcc/pic32mx/4.5.2/../../../../pic32mx/lib/size\libmchp_peripheral_32MX795F512L.a(rtcc_open_lib.o)
 .text.RtccOpen
                0x00000000      0x1b0 c:/program files/microchip/xc32/v1.21/bin/../lib/gcc/pic32mx/4.5.2/../../../../pic32mx/lib/size\libmchp_peripheral_32MX795F512L.a(rtcc_open_lib.o)
 .text          0x00000000        0x0 c:/program files/microchip/xc32/v1.21/bin/../lib/gcc/pic32mx/4.5.2/../../../../pic32mx/lib/size\libmchp_peripheral_32MX795F512L.a(spi_chn_data_rdy_lib.o)
 .data          0x00000000        0x0 c:/program files/microchip/xc32/v1.21/bin/../lib/gcc/pic32mx/4.5.2/../../../../pic32mx/lib/size\libmchp_peripheral_32MX795F512L.a(spi_chn_data_rdy_lib.o)
 .bss           0x00000000        0x0 c:/program files/microchip/xc32/v1.21/bin/../lib/gcc/pic32mx/4.5.2/../../../../pic32mx/lib/size\libmchp_peripheral_32MX795F512L.a(spi_chn_data_rdy_lib.o)
 .reginfo       0x00000000       0x18 c:/program files/microchip/xc32/v1.21/bin/../lib/gcc/pic32mx/4.5.2/../../../../pic32mx/lib/size\libmchp_peripheral_32MX795F512L.a(spi_chn_data_rdy_lib.o)
 .pdr           0x00000000       0x20 c:/program files/microchip/xc32/v1.21/bin/../lib/gcc/pic32mx/4.5.2/../../../../pic32mx/lib/size\libmchp_peripheral_32MX795F512L.a(spi_chn_data_rdy_lib.o)
 .text          0x00000000        0x0 c:/program files/microchip/xc32/v1.21/bin/../lib/gcc/pic32mx/4.5.2/../../../../pic32mx/lib/size\libmchp_peripheral_32MX795F512L.a(spi_chn_getc_lib.o)
 .data          0x00000000        0x0 c:/program files/microchip/xc32/v1.21/bin/../lib/gcc/pic32mx/4.5.2/../../../../pic32mx/lib/size\libmchp_peripheral_32MX795F512L.a(spi_chn_getc_lib.o)
 .bss           0x00000000        0x0 c:/program files/microchip/xc32/v1.21/bin/../lib/gcc/pic32mx/4.5.2/../../../../pic32mx/lib/size\libmchp_peripheral_32MX795F512L.a(spi_chn_getc_lib.o)
 .reginfo       0x00000000       0x18 c:/program files/microchip/xc32/v1.21/bin/../lib/gcc/pic32mx/4.5.2/../../../../pic32mx/lib/size\libmchp_peripheral_32MX795F512L.a(spi_chn_getc_lib.o)
 .pdr           0x00000000       0x40 c:/program files/microchip/xc32/v1.21/bin/../lib/gcc/pic32mx/4.5.2/../../../../pic32mx/lib/size\libmchp_peripheral_32MX795F512L.a(spi_chn_getc_lib.o)
 .text.SpiChnGetC
                0x00000000       0x54 c:/program files/microchip/xc32/v1.21/bin/../lib/gcc/pic32mx/4.5.2/../../../../pic32mx/lib/size\libmchp_peripheral_32MX795F512L.a(spi_chn_getc_lib.o)
 .text          0x00000000        0x0 c:/program files/microchip/xc32/v1.21/bin/../lib/gcc/pic32mx/4.5.2/../../../../pic32mx/lib/size\libmchp_peripheral_32MX795F512L.a(spi_chn_open_lib.o)
 .data          0x00000000        0x0 c:/program files/microchip/xc32/v1.21/bin/../lib/gcc/pic32mx/4.5.2/../../../../pic32mx/lib/size\libmchp_peripheral_32MX795F512L.a(spi_chn_open_lib.o)
 .bss           0x00000000        0x0 c:/program files/microchip/xc32/v1.21/bin/../lib/gcc/pic32mx/4.5.2/../../../../pic32mx/lib/size\libmchp_peripheral_32MX795F512L.a(spi_chn_open_lib.o)
 .reginfo       0x00000000       0x18 c:/program files/microchip/xc32/v1.21/bin/../lib/gcc/pic32mx/4.5.2/../../../../pic32mx/lib/size\libmchp_peripheral_32MX795F512L.a(spi_chn_open_lib.o)
 .pdr           0x00000000       0x20 c:/program files/microchip/xc32/v1.21/bin/../lib/gcc/pic32mx/4.5.2/../../../../pic32mx/lib/size\libmchp_peripheral_32MX795F512L.a(spi_chn_open_lib.o)
 .text          0x00000000        0x0 c:/program files/microchip/xc32/v1.21/bin/../lib/gcc/pic32mx/4.5.2/../../../../pic32mx/lib/size\libmchp_peripheral_32MX795F512L.a(spi_chn_putc_lib.o)
 .data          0x00000000        0x0 c:/program files/microchip/xc32/v1.21/bin/../lib/gcc/pic32mx/4.5.2/../../../../pic32mx/lib/size\libmchp_peripheral_32MX795F512L.a(spi_chn_putc_lib.o)
 .bss           0x00000000        0x0 c:/program files/microchip/xc32/v1.21/bin/../lib/gcc/pic32mx/4.5.2/../../../../pic32mx/lib/size\libmchp_peripheral_32MX795F512L.a(spi_chn_putc_lib.o)
 .reginfo       0x00000000       0x18 c:/program files/microchip/xc32/v1.21/bin/../lib/gcc/pic32mx/4.5.2/../../../../pic32mx/lib/size\libmchp_peripheral_32MX795F512L.a(spi_chn_putc_lib.o)
 .pdr           0x00000000       0x60 c:/program files/microchip/xc32/v1.21/bin/../lib/gcc/pic32mx/4.5.2/../../../../pic32mx/lib/size\libmchp_peripheral_32MX795F512L.a(spi_chn_putc_lib.o)
 .text.SpiChnPutC
                0x00000000       0x54 c:/program files/microchip/xc32/v1.21/bin/../lib/gcc/pic32mx/4.5.2/../../../../pic32mx/lib/size\libmchp_peripheral_32MX795F512L.a(spi_chn_putc_lib.o)
 .text.SpiChnBuffer
                0x00000000       0x1c c:/program files/microchip/xc32/v1.21/bin/../lib/gcc/pic32mx/4.5.2/../../../../pic32mx/lib/size\libmchp_peripheral_32MX795F512L.a(spi_chn_putc_lib.o)
 .text          0x00000000        0x0 c:/program files/microchip/xc32/v1.21/bin/../lib/gcc/pic32mx/4.5.2/../../../../pic32mx/lib/size\libmchp_peripheral_32MX795F512L.a(spi_chn_tx_buff_empty_lib.o)
 .data          0x00000000        0x0 c:/program files/microchip/xc32/v1.21/bin/../lib/gcc/pic32mx/4.5.2/../../../../pic32mx/lib/size\libmchp_peripheral_32MX795F512L.a(spi_chn_tx_buff_empty_lib.o)
 .bss           0x00000000        0x0 c:/program files/microchip/xc32/v1.21/bin/../lib/gcc/pic32mx/4.5.2/../../../../pic32mx/lib/size\libmchp_peripheral_32MX795F512L.a(spi_chn_tx_buff_empty_lib.o)
 .reginfo       0x00000000       0x18 c:/program files/microchip/xc32/v1.21/bin/../lib/gcc/pic32mx/4.5.2/../../../../pic32mx/lib/size\libmchp_peripheral_32MX795F512L.a(spi_chn_tx_buff_empty_lib.o)
 .pdr           0x00000000       0x20 c:/program files/microchip/xc32/v1.21/bin/../lib/gcc/pic32mx/4.5.2/../../../../pic32mx/lib/size\libmchp_peripheral_32MX795F512L.a(spi_chn_tx_buff_empty_lib.o)
 .text          0x00000000        0x0 c:/program files/microchip/xc32/v1.21/bin/../lib/gcc/pic32mx/4.5.2/../../../../pic32mx/lib/size\libmchp_peripheral_32MX795F512L.a(spi_io_tbl_libp.o)
 .data          0x00000000        0x0 c:/program files/microchip/xc32/v1.21/bin/../lib/gcc/pic32mx/4.5.2/../../../../pic32mx/lib/size\libmchp_peripheral_32MX795F512L.a(spi_io_tbl_libp.o)
 .bss           0x00000000        0x0 c:/program files/microchip/xc32/v1.21/bin/../lib/gcc/pic32mx/4.5.2/../../../../pic32mx/lib/size\libmchp_peripheral_32MX795F512L.a(spi_io_tbl_libp.o)
 .reginfo       0x00000000       0x18 c:/program files/microchip/xc32/v1.21/bin/../lib/gcc/pic32mx/4.5.2/../../../../pic32mx/lib/size\libmchp_peripheral_32MX795F512L.a(spi_io_tbl_libp.o)
 .pdr           0x00000000        0x0 c:/program files/microchip/xc32/v1.21/bin/../lib/gcc/pic32mx/4.5.2/../../../../pic32mx/lib/size\libmchp_peripheral_32MX795F512L.a(spi_io_tbl_libp.o)
 .text          0x00000000        0x0 c:/program files/microchip/xc32/v1.21/bin/../lib/gcc/pic32mx/4.5.2/../../../../pic32mx/lib/size\libmchp_peripheral_32MX795F512L.a(spi_map_tbl_libp.o)
 .data          0x00000000        0x0 c:/program files/microchip/xc32/v1.21/bin/../lib/gcc/pic32mx/4.5.2/../../../../pic32mx/lib/size\libmchp_peripheral_32MX795F512L.a(spi_map_tbl_libp.o)
 .bss           0x00000000        0x0 c:/program files/microchip/xc32/v1.21/bin/../lib/gcc/pic32mx/4.5.2/../../../../pic32mx/lib/size\libmchp_peripheral_32MX795F512L.a(spi_map_tbl_libp.o)
 .reginfo       0x00000000       0x18 c:/program files/microchip/xc32/v1.21/bin/../lib/gcc/pic32mx/4.5.2/../../../../pic32mx/lib/size\libmchp_peripheral_32MX795F512L.a(spi_map_tbl_libp.o)
 .pdr           0x00000000        0x0 c:/program files/microchip/xc32/v1.21/bin/../lib/gcc/pic32mx/4.5.2/../../../../pic32mx/lib/size\libmchp_peripheral_32MX795F512L.a(spi_map_tbl_libp.o)
 .text          0x00000000        0x0 c:/program files/microchip/xc32/v1.21/bin/../lib/gcc/pic32mx/4.5.2/../../../../pic32mx/lib/size\libmchp_peripheral_32MX795F512L.a(port_set_pins_digital_in_lib.o)
 .data          0x00000000        0x0 c:/program files/microchip/xc32/v1.21/bin/../lib/gcc/pic32mx/4.5.2/../../../../pic32mx/lib/size\libmchp_peripheral_32MX795F512L.a(port_set_pins_digital_in_lib.o)
 .bss           0x00000000        0x0 c:/program files/microchip/xc32/v1.21/bin/../lib/gcc/pic32mx/4.5.2/../../../../pic32mx/lib/size\libmchp_peripheral_32MX795F512L.a(port_set_pins_digital_in_lib.o)
 .reginfo       0x00000000       0x18 c:/program files/microchip/xc32/v1.21/bin/../lib/gcc/pic32mx/4.5.2/../../../../pic32mx/lib/size\libmchp_peripheral_32MX795F512L.a(port_set_pins_digital_in_lib.o)
 .pdr           0x00000000       0x20 c:/program files/microchip/xc32/v1.21/bin/../lib/gcc/pic32mx/4.5.2/../../../../pic32mx/lib/size\libmchp_peripheral_32MX795F512L.a(port_set_pins_digital_in_lib.o)
 .text          0x00000000        0x0 c:/program files/microchip/xc32/v1.21/bin/../lib/gcc/pic32mx/4.5.2/../../../../pic32mx/lib/size\libmchp_peripheral_32MX795F512L.a(port_set_pins_digital_out_lib.o)
 .data          0x00000000        0x0 c:/program files/microchip/xc32/v1.21/bin/../lib/gcc/pic32mx/4.5.2/../../../../pic32mx/lib/size\libmchp_peripheral_32MX795F512L.a(port_set_pins_digital_out_lib.o)
 .bss           0x00000000        0x0 c:/program files/microchip/xc32/v1.21/bin/../lib/gcc/pic32mx/4.5.2/../../../../pic32mx/lib/size\libmchp_peripheral_32MX795F512L.a(port_set_pins_digital_out_lib.o)
 .reginfo       0x00000000       0x18 c:/program files/microchip/xc32/v1.21/bin/../lib/gcc/pic32mx/4.5.2/../../../../pic32mx/lib/size\libmchp_peripheral_32MX795F512L.a(port_set_pins_digital_out_lib.o)
 .pdr           0x00000000       0x20 c:/program files/microchip/xc32/v1.21/bin/../lib/gcc/pic32mx/4.5.2/../../../../pic32mx/lib/size\libmchp_peripheral_32MX795F512L.a(port_set_pins_digital_out_lib.o)
 .text          0x00000000        0x0 c:/program files/microchip/xc32/v1.21/bin/../lib/gcc/pic32mx/4.5.2/../../../../pic32mx/lib/size\libmchp_peripheral_32MX795F512L.a(_ports_tbl_libp.o)
 .data          0x00000000        0x0 c:/program files/microchip/xc32/v1.21/bin/../lib/gcc/pic32mx/4.5.2/../../../../pic32mx/lib/size\libmchp_peripheral_32MX795F512L.a(_ports_tbl_libp.o)
 .bss           0x00000000        0x0 c:/program files/microchip/xc32/v1.21/bin/../lib/gcc/pic32mx/4.5.2/../../../../pic32mx/lib/size\libmchp_peripheral_32MX795F512L.a(_ports_tbl_libp.o)
 .reginfo       0x00000000       0x18 c:/program files/microchip/xc32/v1.21/bin/../lib/gcc/pic32mx/4.5.2/../../../../pic32mx/lib/size\libmchp_peripheral_32MX795F512L.a(_ports_tbl_libp.o)
 .pdr           0x00000000        0x0 c:/program files/microchip/xc32/v1.21/bin/../lib/gcc/pic32mx/4.5.2/../../../../pic32mx/lib/size\libmchp_peripheral_32MX795F512L.a(_ports_tbl_libp.o)
 .text          0x00000000        0x0 c:/program files/microchip/xc32/v1.21/bin/../lib/gcc/pic32mx/4.5.2/../../../../pic32mx/lib/size\libmchp_peripheral_32MX795F512L.a(int_enable_interrupts_lib.o)
 .data          0x00000000        0x0 c:/program files/microchip/xc32/v1.21/bin/../lib/gcc/pic32mx/4.5.2/../../../../pic32mx/lib/size\libmchp_peripheral_32MX795F512L.a(int_enable_interrupts_lib.o)
 .bss           0x00000000        0x0 c:/program files/microchip/xc32/v1.21/bin/../lib/gcc/pic32mx/4.5.2/../../../../pic32mx/lib/size\libmchp_peripheral_32MX795F512L.a(int_enable_interrupts_lib.o)
 .reginfo       0x00000000       0x18 c:/program files/microchip/xc32/v1.21/bin/../lib/gcc/pic32mx/4.5.2/../../../../pic32mx/lib/size\libmchp_peripheral_32MX795F512L.a(int_enable_interrupts_lib.o)
 .pdr           0x00000000       0x20 c:/program files/microchip/xc32/v1.21/bin/../lib/gcc/pic32mx/4.5.2/../../../../pic32mx/lib/size\libmchp_peripheral_32MX795F512L.a(int_enable_interrupts_lib.o)
 .text          0x00000000        0x0 c:/program files/microchip/xc32/v1.21/bin/../lib/gcc/pic32mx/4.5.2/../../../../pic32mx/lib/size\libmchp_peripheral_32MX795F512L.a(_rtcc_wait_clock_off_lib.o)
 .data          0x00000000        0x0 c:/program files/microchip/xc32/v1.21/bin/../lib/gcc/pic32mx/4.5.2/../../../../pic32mx/lib/size\libmchp_peripheral_32MX795F512L.a(_rtcc_wait_clock_off_lib.o)
 .bss           0x00000000        0x0 c:/program files/microchip/xc32/v1.21/bin/../lib/gcc/pic32mx/4.5.2/../../../../pic32mx/lib/size\libmchp_peripheral_32MX795F512L.a(_rtcc_wait_clock_off_lib.o)
 .reginfo       0x00000000       0x18 c:/program files/microchip/xc32/v1.21/bin/../lib/gcc/pic32mx/4.5.2/../../../../pic32mx/lib/size\libmchp_peripheral_32MX795F512L.a(_rtcc_wait_clock_off_lib.o)
 .pdr           0x00000000       0x40 c:/program files/microchip/xc32/v1.21/bin/../lib/gcc/pic32mx/4.5.2/../../../../pic32mx/lib/size\libmchp_peripheral_32MX795F512L.a(_rtcc_wait_clock_off_lib.o)
 .text._RtccWaitClockOff
                0x00000000      0x104 c:/program files/microchip/xc32/v1.21/bin/../lib/gcc/pic32mx/4.5.2/../../../../pic32mx/lib/size\libmchp_peripheral_32MX795F512L.a(_rtcc_wait_clock_off_lib.o)
 .text._RtccSetClockWait
                0x00000000       0x14 c:/program files/microchip/xc32/v1.21/bin/../lib/gcc/pic32mx/4.5.2/../../../../pic32mx/lib/size\libmchp_peripheral_32MX795F512L.a(_rtcc_wait_clock_off_lib.o)
 .sdata         0x00000000        0x8 c:/program files/microchip/xc32/v1.21/bin/../lib/gcc/pic32mx/4.5.2/../../../../pic32mx/lib/size\libmchp_peripheral_32MX795F512L.a(_rtcc_wait_clock_off_lib.o)
 .text          0x00000000        0x0 c:/program files/microchip/xc32/v1.21/bin/../lib/gcc/pic32mx/4.5.2/../../../../pic32mx/lib/size\libmchp_peripheral_32MX795F512L.a(read_core_timer_lib.o)
 .data          0x00000000        0x0 c:/program files/microchip/xc32/v1.21/bin/../lib/gcc/pic32mx/4.5.2/../../../../pic32mx/lib/size\libmchp_peripheral_32MX795F512L.a(read_core_timer_lib.o)
 .bss           0x00000000        0x0 c:/program files/microchip/xc32/v1.21/bin/../lib/gcc/pic32mx/4.5.2/../../../../pic32mx/lib/size\libmchp_peripheral_32MX795F512L.a(read_core_timer_lib.o)
 .reginfo       0x00000000       0x18 c:/program files/microchip/xc32/v1.21/bin/../lib/gcc/pic32mx/4.5.2/../../../../pic32mx/lib/size\libmchp_peripheral_32MX795F512L.a(read_core_timer_lib.o)
 .pdr           0x00000000       0x20 c:/program files/microchip/xc32/v1.21/bin/../lib/gcc/pic32mx/4.5.2/../../../../pic32mx/lib/size\libmchp_peripheral_32MX795F512L.a(read_core_timer_lib.o)
 .text.ReadCoreTimer
                0x00000000        0x8 c:/program files/microchip/xc32/v1.21/bin/../lib/gcc/pic32mx/4.5.2/../../../../pic32mx/lib/size\libmchp_peripheral_32MX795F512L.a(read_core_timer_lib.o)
 .data          0x00000000        0x0 c:/program files/microchip/xc32/v1.21/bin/../lib/gcc/pic32mx/4.5.2/size\libgcc.a(_udivdi3.o)
 .bss           0x00000000        0x0 c:/program files/microchip/xc32/v1.21/bin/../lib/gcc/pic32mx/4.5.2/size\libgcc.a(_udivdi3.o)
 .reginfo       0x00000000       0x18 c:/program files/microchip/xc32/v1.21/bin/../lib/gcc/pic32mx/4.5.2/size\libgcc.a(_udivdi3.o)
 .pdr           0x00000000       0x20 c:/program files/microchip/xc32/v1.21/bin/../lib/gcc/pic32mx/4.5.2/size\libgcc.a(_udivdi3.o)
 .data          0x00000000        0x0 c:/program files/microchip/xc32/v1.21/bin/../lib/gcc/pic32mx/4.5.2/size\libgcc.a(floatunsisf.o)
 .bss           0x00000000        0x0 c:/program files/microchip/xc32/v1.21/bin/../lib/gcc/pic32mx/4.5.2/size\libgcc.a(floatunsisf.o)
 .reginfo       0x00000000       0x18 c:/program files/microchip/xc32/v1.21/bin/../lib/gcc/pic32mx/4.5.2/size\libgcc.a(floatunsisf.o)
 .pdr           0x00000000       0x20 c:/program files/microchip/xc32/v1.21/bin/../lib/gcc/pic32mx/4.5.2/size\libgcc.a(floatunsisf.o)
 .data          0x00000000        0x0 c:/program files/microchip/xc32/v1.21/bin/../lib/gcc/pic32mx/4.5.2/../../../../pic32mx/lib/size\libpic32.a(memcmp.o)
 .bss           0x00000000        0x0 c:/program files/microchip/xc32/v1.21/bin/../lib/gcc/pic32mx/4.5.2/../../../../pic32mx/lib/size\libpic32.a(memcmp.o)
 .reginfo       0x00000000       0x18 c:/program files/microchip/xc32/v1.21/bin/../lib/gcc/pic32mx/4.5.2/../../../../pic32mx/lib/size\libpic32.a(memcmp.o)
 .pdr           0x00000000       0x20 c:/program files/microchip/xc32/v1.21/bin/../lib/gcc/pic32mx/4.5.2/../../../../pic32mx/lib/size\libpic32.a(memcmp.o)
 .data          0x00000000        0x0 c:/program files/microchip/xc32/v1.21/bin/../lib/gcc/pic32mx/4.5.2/../../../../pic32mx/lib/size\libpic32.a(memcpy.o)
 .bss           0x00000000        0x0 c:/program files/microchip/xc32/v1.21/bin/../lib/gcc/pic32mx/4.5.2/../../../../pic32mx/lib/size\libpic32.a(memcpy.o)
 .reginfo       0x00000000       0x18 c:/program files/microchip/xc32/v1.21/bin/../lib/gcc/pic32mx/4.5.2/../../../../pic32mx/lib/size\libpic32.a(memcpy.o)
 .pdr           0x00000000       0x20 c:/program files/microchip/xc32/v1.21/bin/../lib/gcc/pic32mx/4.5.2/../../../../pic32mx/lib/size\libpic32.a(memcpy.o)
 .data          0x00000000        0x0 c:/program files/microchip/xc32/v1.21/bin/../lib/gcc/pic32mx/4.5.2/../../../../pic32mx/lib/size\libpic32.a(memset.o)
 .bss           0x00000000        0x0 c:/program files/microchip/xc32/v1.21/bin/../lib/gcc/pic32mx/4.5.2/../../../../pic32mx/lib/size\libpic32.a(memset.o)
 .reginfo       0x00000000       0x18 c:/program files/microchip/xc32/v1.21/bin/../lib/gcc/pic32mx/4.5.2/../../../../pic32mx/lib/size\libpic32.a(memset.o)
 .pdr           0x00000000       0x20 c:/program files/microchip/xc32/v1.21/bin/../lib/gcc/pic32mx/4.5.2/../../../../pic32mx/lib/size\libpic32.a(memset.o)
 .data          0x00000000        0x0 c:/program files/microchip/xc32/v1.21/bin/../lib/gcc/pic32mx/4.5.2/../../../../pic32mx/lib/size\libpic32.a(strcmp.o)
 .bss           0x00000000        0x0 c:/program files/microchip/xc32/v1.21/bin/../lib/gcc/pic32mx/4.5.2/../../../../pic32mx/lib/size\libpic32.a(strcmp.o)
 .reginfo       0x00000000       0x18 c:/program files/microchip/xc32/v1.21/bin/../lib/gcc/pic32mx/4.5.2/../../../../pic32mx/lib/size\libpic32.a(strcmp.o)
 .pdr           0x00000000       0x20 c:/program files/microchip/xc32/v1.21/bin/../lib/gcc/pic32mx/4.5.2/../../../../pic32mx/lib/size\libpic32.a(strcmp.o)
 .data          0x00000000        0x0 c:/program files/microchip/xc32/v1.21/bin/../lib/gcc/pic32mx/4.5.2/../../../../pic32mx/lib/size\libpic32.a(strcpy.o)
 .bss           0x00000000        0x0 c:/program files/microchip/xc32/v1.21/bin/../lib/gcc/pic32mx/4.5.2/../../../../pic32mx/lib/size\libpic32.a(strcpy.o)
 .reginfo       0x00000000       0x18 c:/program files/microchip/xc32/v1.21/bin/../lib/gcc/pic32mx/4.5.2/../../../../pic32mx/lib/size\libpic32.a(strcpy.o)
 .pdr           0x00000000       0x20 c:/program files/microchip/xc32/v1.21/bin/../lib/gcc/pic32mx/4.5.2/../../../../pic32mx/lib/size\libpic32.a(strcpy.o)
 .data          0x00000000        0x0 c:/program files/microchip/xc32/v1.21/bin/../lib/gcc/pic32mx/4.5.2/../../../../pic32mx/lib/size\libpic32.a(strlen.o)
 .bss           0x00000000        0x0 c:/program files/microchip/xc32/v1.21/bin/../lib/gcc/pic32mx/4.5.2/../../../../pic32mx/lib/size\libpic32.a(strlen.o)
 .reginfo       0x00000000       0x18 c:/program files/microchip/xc32/v1.21/bin/../lib/gcc/pic32mx/4.5.2/../../../../pic32mx/lib/size\libpic32.a(strlen.o)
 .pdr           0x00000000       0x20 c:/program files/microchip/xc32/v1.21/bin/../lib/gcc/pic32mx/4.5.2/../../../../pic32mx/lib/size\libpic32.a(strlen.o)
 .text          0x00000000        0x0 c:/program files/microchip/xc32/v1.21/bin/../lib/gcc/pic32mx/4.5.2/../../../../pic32mx/lib/size\libpic32.a(default-bootstrap-exception-handler.o)
 .data          0x00000000        0x0 c:/program files/microchip/xc32/v1.21/bin/../lib/gcc/pic32mx/4.5.2/../../../../pic32mx/lib/size\libpic32.a(default-bootstrap-exception-handler.o)
 .bss           0x00000000        0x0 c:/program files/microchip/xc32/v1.21/bin/../lib/gcc/pic32mx/4.5.2/../../../../pic32mx/lib/size\libpic32.a(default-bootstrap-exception-handler.o)
 .reginfo       0x00000000       0x18 c:/program files/microchip/xc32/v1.21/bin/../lib/gcc/pic32mx/4.5.2/../../../../pic32mx/lib/size\libpic32.a(default-bootstrap-exception-handler.o)
 .pdr           0x00000000       0x20 c:/program files/microchip/xc32/v1.21/bin/../lib/gcc/pic32mx/4.5.2/../../../../pic32mx/lib/size\libpic32.a(default-bootstrap-exception-handler.o)
 .text          0x00000000        0x0 c:/program files/microchip/xc32/v1.21/bin/../lib/gcc/pic32mx/4.5.2/../../../../pic32mx/lib/size\libpic32.a(default-on-reset.o)
 .data          0x00000000        0x0 c:/program files/microchip/xc32/v1.21/bin/../lib/gcc/pic32mx/4.5.2/../../../../pic32mx/lib/size\libpic32.a(default-on-reset.o)
 .bss           0x00000000        0x0 c:/program files/microchip/xc32/v1.21/bin/../lib/gcc/pic32mx/4.5.2/../../../../pic32mx/lib/size\libpic32.a(default-on-reset.o)
 .reginfo       0x00000000       0x18 c:/program files/microchip/xc32/v1.21/bin/../lib/gcc/pic32mx/4.5.2/../../../../pic32mx/lib/size\libpic32.a(default-on-reset.o)
 .pdr           0x00000000       0x20 c:/program files/microchip/xc32/v1.21/bin/../lib/gcc/pic32mx/4.5.2/../../../../pic32mx/lib/size\libpic32.a(default-on-reset.o)
 .text          0x00000000        0x0 c:/program files/microchip/xc32/v1.21/bin/../lib/gcc/pic32mx/4.5.2/../../../../pic32mx/lib/size\libpic32.a(default-on-bootstrap.o)
 .data          0x00000000        0x0 c:/program files/microchip/xc32/v1.21/bin/../lib/gcc/pic32mx/4.5.2/../../../../pic32mx/lib/size\libpic32.a(default-on-bootstrap.o)
 .bss           0x00000000        0x0 c:/program files/microchip/xc32/v1.21/bin/../lib/gcc/pic32mx/4.5.2/../../../../pic32mx/lib/size\libpic32.a(default-on-bootstrap.o)
 .reginfo       0x00000000       0x18 c:/program files/microchip/xc32/v1.21/bin/../lib/gcc/pic32mx/4.5.2/../../../../pic32mx/lib/size\libpic32.a(default-on-bootstrap.o)
 .pdr           0x00000000       0x20 c:/program files/microchip/xc32/v1.21/bin/../lib/gcc/pic32mx/4.5.2/../../../../pic32mx/lib/size\libpic32.a(default-on-bootstrap.o)
 .data          0x00000000        0x0 c:/program files/microchip/xc32/v1.21/bin/../lib/gcc/pic32mx/4.5.2/../../../../pic32mx/lib/size\libpic32.a(default-nmi-handler.o)
 .bss           0x00000000        0x0 c:/program files/microchip/xc32/v1.21/bin/../lib/gcc/pic32mx/4.5.2/../../../../pic32mx/lib/size\libpic32.a(default-nmi-handler.o)
 .reginfo       0x00000000       0x18 c:/program files/microchip/xc32/v1.21/bin/../lib/gcc/pic32mx/4.5.2/../../../../pic32mx/lib/size\libpic32.a(default-nmi-handler.o)
 .pdr           0x00000000       0x20 c:/program files/microchip/xc32/v1.21/bin/../lib/gcc/pic32mx/4.5.2/../../../../pic32mx/lib/size\libpic32.a(default-nmi-handler.o)
 .text          0x00000000        0x0 c:/program files/microchip/xc32/v1.21/bin/../lib/gcc/pic32mx/4.5.2/../../../../pic32mx/lib/size\libpic32.a(errno.o)
 .data          0x00000000        0x0 c:/program files/microchip/xc32/v1.21/bin/../lib/gcc/pic32mx/4.5.2/../../../../pic32mx/lib/size\libpic32.a(errno.o)
 .bss           0x00000000        0x0 c:/program files/microchip/xc32/v1.21/bin/../lib/gcc/pic32mx/4.5.2/../../../../pic32mx/lib/size\libpic32.a(errno.o)
 .reginfo       0x00000000       0x18 c:/program files/microchip/xc32/v1.21/bin/../lib/gcc/pic32mx/4.5.2/../../../../pic32mx/lib/size\libpic32.a(errno.o)
 .pdr           0x00000000        0x0 c:/program files/microchip/xc32/v1.21/bin/../lib/gcc/pic32mx/4.5.2/../../../../pic32mx/lib/size\libpic32.a(errno.o)
 .text          0x00000000        0x0 c:/program files/microchip/xc32/v1.21/bin/../lib/gcc/pic32mx/4.5.2/../../../../pic32mx/lib/size\libpic32.a(general-exception.o)
 .data          0x00000000        0x0 c:/program files/microchip/xc32/v1.21/bin/../lib/gcc/pic32mx/4.5.2/../../../../pic32mx/lib/size\libpic32.a(general-exception.o)
 .bss           0x00000000        0x0 c:/program files/microchip/xc32/v1.21/bin/../lib/gcc/pic32mx/4.5.2/../../../../pic32mx/lib/size\libpic32.a(general-exception.o)
 .reginfo       0x00000000       0x18 c:/program files/microchip/xc32/v1.21/bin/../lib/gcc/pic32mx/4.5.2/../../../../pic32mx/lib/size\libpic32.a(general-exception.o)
 .pdr           0x00000000       0x20 c:/program files/microchip/xc32/v1.21/bin/../lib/gcc/pic32mx/4.5.2/../../../../pic32mx/lib/size\libpic32.a(general-exception.o)
 .text          0x00000000        0x0 c:/program files/microchip/xc32/v1.21/bin/../lib/gcc/pic32mx/4.5.2/../../../../pic32mx/lib/size\libpic32.a(vector1.o)
 .data          0x00000000        0x0 c:/program files/microchip/xc32/v1.21/bin/../lib/gcc/pic32mx/4.5.2/../../../../pic32mx/lib/size\libpic32.a(vector1.o)
 .bss           0x00000000        0x0 c:/program files/microchip/xc32/v1.21/bin/../lib/gcc/pic32mx/4.5.2/../../../../pic32mx/lib/size\libpic32.a(vector1.o)
 .reginfo       0x00000000       0x18 c:/program files/microchip/xc32/v1.21/bin/../lib/gcc/pic32mx/4.5.2/../../../../pic32mx/lib/size\libpic32.a(vector1.o)
 .pdr           0x00000000       0x20 c:/program files/microchip/xc32/v1.21/bin/../lib/gcc/pic32mx/4.5.2/../../../../pic32mx/lib/size\libpic32.a(vector1.o)
 .text          0x00000000        0x0 c:/program files/microchip/xc32/v1.21/bin/../lib/gcc/pic32mx/4.5.2/../../../../pic32mx/lib/size\libpic32.a(vector2.o)
 .data          0x00000000        0x0 c:/program files/microchip/xc32/v1.21/bin/../lib/gcc/pic32mx/4.5.2/../../../../pic32mx/lib/size\libpic32.a(vector2.o)
 .bss           0x00000000        0x0 c:/program files/microchip/xc32/v1.21/bin/../lib/gcc/pic32mx/4.5.2/../../../../pic32mx/lib/size\libpic32.a(vector2.o)
 .reginfo       0x00000000       0x18 c:/program files/microchip/xc32/v1.21/bin/../lib/gcc/pic32mx/4.5.2/../../../../pic32mx/lib/size\libpic32.a(vector2.o)
 .pdr           0x00000000       0x20 c:/program files/microchip/xc32/v1.21/bin/../lib/gcc/pic32mx/4.5.2/../../../../pic32mx/lib/size\libpic32.a(vector2.o)
 .text          0x00000000        0x0 c:/program files/microchip/xc32/v1.21/bin/../lib/gcc/pic32mx/4.5.2/../../../../pic32mx/lib/size\libpic32.a(vector3.o)
 .data          0x00000000        0x0 c:/program files/microchip/xc32/v1.21/bin/../lib/gcc/pic32mx/4.5.2/../../../../pic32mx/lib/size\libpic32.a(vector3.o)
 .bss           0x00000000        0x0 c:/program files/microchip/xc32/v1.21/bin/../lib/gcc/pic32mx/4.5.2/../../../../pic32mx/lib/size\libpic32.a(vector3.o)
 .reginfo       0x00000000       0x18 c:/program files/microchip/xc32/v1.21/bin/../lib/gcc/pic32mx/4.5.2/../../../../pic32mx/lib/size\libpic32.a(vector3.o)
 .pdr           0x00000000       0x20 c:/program files/microchip/xc32/v1.21/bin/../lib/gcc/pic32mx/4.5.2/../../../../pic32mx/lib/size\libpic32.a(vector3.o)
 .text          0x00000000        0x0 c:/program files/microchip/xc32/v1.21/bin/../lib/gcc/pic32mx/4.5.2/../../../../pic32mx/lib/size\libpic32.a(vector4.o)
 .data          0x00000000        0x0 c:/program files/microchip/xc32/v1.21/bin/../lib/gcc/pic32mx/4.5.2/../../../../pic32mx/lib/size\libpic32.a(vector4.o)
 .bss           0x00000000        0x0 c:/program files/microchip/xc32/v1.21/bin/../lib/gcc/pic32mx/4.5.2/../../../../pic32mx/lib/size\libpic32.a(vector4.o)
 .reginfo       0x00000000       0x18 c:/program files/microchip/xc32/v1.21/bin/../lib/gcc/pic32mx/4.5.2/../../../../pic32mx/lib/size\libpic32.a(vector4.o)
 .pdr           0x00000000       0x20 c:/program files/microchip/xc32/v1.21/bin/../lib/gcc/pic32mx/4.5.2/../../../../pic32mx/lib/size\libpic32.a(vector4.o)
 .text          0x00000000        0x0 c:/program files/microchip/xc32/v1.21/bin/../lib/gcc/pic32mx/4.5.2/../../../../pic32mx/lib/size\libpic32.a(vector5.o)
 .data          0x00000000        0x0 c:/program files/microchip/xc32/v1.21/bin/../lib/gcc/pic32mx/4.5.2/../../../../pic32mx/lib/size\libpic32.a(vector5.o)
 .bss           0x00000000        0x0 c:/program files/microchip/xc32/v1.21/bin/../lib/gcc/pic32mx/4.5.2/../../../../pic32mx/lib/size\libpic32.a(vector5.o)
 .reginfo       0x00000000       0x18 c:/program files/microchip/xc32/v1.21/bin/../lib/gcc/pic32mx/4.5.2/../../../../pic32mx/lib/size\libpic32.a(vector5.o)
 .pdr           0x00000000       0x20 c:/program files/microchip/xc32/v1.21/bin/../lib/gcc/pic32mx/4.5.2/../../../../pic32mx/lib/size\libpic32.a(vector5.o)
 .text          0x00000000        0x0 c:/program files/microchip/xc32/v1.21/bin/../lib/gcc/pic32mx/4.5.2/../../../../pic32mx/lib/size\libpic32.a(vector6.o)
 .data          0x00000000        0x0 c:/program files/microchip/xc32/v1.21/bin/../lib/gcc/pic32mx/4.5.2/../../../../pic32mx/lib/size\libpic32.a(vector6.o)
 .bss           0x00000000        0x0 c:/program files/microchip/xc32/v1.21/bin/../lib/gcc/pic32mx/4.5.2/../../../../pic32mx/lib/size\libpic32.a(vector6.o)
 .reginfo       0x00000000       0x18 c:/program files/microchip/xc32/v1.21/bin/../lib/gcc/pic32mx/4.5.2/../../../../pic32mx/lib/size\libpic32.a(vector6.o)
 .pdr           0x00000000       0x20 c:/program files/microchip/xc32/v1.21/bin/../lib/gcc/pic32mx/4.5.2/../../../../pic32mx/lib/size\libpic32.a(vector6.o)
 .text          0x00000000        0x0 c:/program files/microchip/xc32/v1.21/bin/../lib/gcc/pic32mx/4.5.2/../../../../pic32mx/lib/size\libpic32.a(vector8.o)
 .data          0x00000000        0x0 c:/program files/microchip/xc32/v1.21/bin/../lib/gcc/pic32mx/4.5.2/../../../../pic32mx/lib/size\libpic32.a(vector8.o)
 .bss           0x00000000        0x0 c:/program files/microchip/xc32/v1.21/bin/../lib/gcc/pic32mx/4.5.2/../../../../pic32mx/lib/size\libpic32.a(vector8.o)
 .reginfo       0x00000000       0x18 c:/program files/microchip/xc32/v1.21/bin/../lib/gcc/pic32mx/4.5.2/../../../../pic32mx/lib/size\libpic32.a(vector8.o)
 .pdr           0x00000000       0x20 c:/program files/microchip/xc32/v1.21/bin/../lib/gcc/pic32mx/4.5.2/../../../../pic32mx/lib/size\libpic32.a(vector8.o)
 .text          0x00000000        0x0 c:/program files/microchip/xc32/v1.21/bin/../lib/gcc/pic32mx/4.5.2/../../../../pic32mx/lib/size\libpic32.a(vector9.o)
 .data          0x00000000        0x0 c:/program files/microchip/xc32/v1.21/bin/../lib/gcc/pic32mx/4.5.2/../../../../pic32mx/lib/size\libpic32.a(vector9.o)
 .bss           0x00000000        0x0 c:/program files/microchip/xc32/v1.21/bin/../lib/gcc/pic32mx/4.5.2/../../../../pic32mx/lib/size\libpic32.a(vector9.o)
 .reginfo       0x00000000       0x18 c:/program files/microchip/xc32/v1.21/bin/../lib/gcc/pic32mx/4.5.2/../../../../pic32mx/lib/size\libpic32.a(vector9.o)
 .pdr           0x00000000       0x20 c:/program files/microchip/xc32/v1.21/bin/../lib/gcc/pic32mx/4.5.2/../../../../pic32mx/lib/size\libpic32.a(vector9.o)
 .text          0x00000000        0x0 c:/program files/microchip/xc32/v1.21/bin/../lib/gcc/pic32mx/4.5.2/../../../../pic32mx/lib/size\libpic32.a(vector10.o)
 .data          0x00000000        0x0 c:/program files/microchip/xc32/v1.21/bin/../lib/gcc/pic32mx/4.5.2/../../../../pic32mx/lib/size\libpic32.a(vector10.o)
 .bss           0x00000000        0x0 c:/program files/microchip/xc32/v1.21/bin/../lib/gcc/pic32mx/4.5.2/../../../../pic32mx/lib/size\libpic32.a(vector10.o)
 .reginfo       0x00000000       0x18 c:/program files/microchip/xc32/v1.21/bin/../lib/gcc/pic32mx/4.5.2/../../../../pic32mx/lib/size\libpic32.a(vector10.o)
 .pdr           0x00000000       0x20 c:/program files/microchip/xc32/v1.21/bin/../lib/gcc/pic32mx/4.5.2/../../../../pic32mx/lib/size\libpic32.a(vector10.o)
 .text          0x00000000        0x0 c:/program files/microchip/xc32/v1.21/bin/../lib/gcc/pic32mx/4.5.2/../../../../pic32mx/lib/size\libpic32.a(vector11.o)
 .data          0x00000000        0x0 c:/program files/microchip/xc32/v1.21/bin/../lib/gcc/pic32mx/4.5.2/../../../../pic32mx/lib/size\libpic32.a(vector11.o)
 .bss           0x00000000        0x0 c:/program files/microchip/xc32/v1.21/bin/../lib/gcc/pic32mx/4.5.2/../../../../pic32mx/lib/size\libpic32.a(vector11.o)
 .reginfo       0x00000000       0x18 c:/program files/microchip/xc32/v1.21/bin/../lib/gcc/pic32mx/4.5.2/../../../../pic32mx/lib/size\libpic32.a(vector11.o)
 .pdr           0x00000000       0x20 c:/program files/microchip/xc32/v1.21/bin/../lib/gcc/pic32mx/4.5.2/../../../../pic32mx/lib/size\libpic32.a(vector11.o)
 .text          0x00000000        0x0 c:/program files/microchip/xc32/v1.21/bin/../lib/gcc/pic32mx/4.5.2/../../../../pic32mx/lib/size\libpic32.a(vector12.o)
 .data          0x00000000        0x0 c:/program files/microchip/xc32/v1.21/bin/../lib/gcc/pic32mx/4.5.2/../../../../pic32mx/lib/size\libpic32.a(vector12.o)
 .bss           0x00000000        0x0 c:/program files/microchip/xc32/v1.21/bin/../lib/gcc/pic32mx/4.5.2/../../../../pic32mx/lib/size\libpic32.a(vector12.o)
 .reginfo       0x00000000       0x18 c:/program files/microchip/xc32/v1.21/bin/../lib/gcc/pic32mx/4.5.2/../../../../pic32mx/lib/size\libpic32.a(vector12.o)
 .pdr           0x00000000       0x20 c:/program files/microchip/xc32/v1.21/bin/../lib/gcc/pic32mx/4.5.2/../../../../pic32mx/lib/size\libpic32.a(vector12.o)
 .text          0x00000000        0x0 c:/program files/microchip/xc32/v1.21/bin/../lib/gcc/pic32mx/4.5.2/../../../../pic32mx/lib/size\libpic32.a(vector13.o)
 .data          0x00000000        0x0 c:/program files/microchip/xc32/v1.21/bin/../lib/gcc/pic32mx/4.5.2/../../../../pic32mx/lib/size\libpic32.a(vector13.o)
 .bss           0x00000000        0x0 c:/program files/microchip/xc32/v1.21/bin/../lib/gcc/pic32mx/4.5.2/../../../../pic32mx/lib/size\libpic32.a(vector13.o)
 .reginfo       0x00000000       0x18 c:/program files/microchip/xc32/v1.21/bin/../lib/gcc/pic32mx/4.5.2/../../../../pic32mx/lib/size\libpic32.a(vector13.o)
 .pdr           0x00000000       0x20 c:/program files/microchip/xc32/v1.21/bin/../lib/gcc/pic32mx/4.5.2/../../../../pic32mx/lib/size\libpic32.a(vector13.o)
 .text          0x00000000        0x0 c:/program files/microchip/xc32/v1.21/bin/../lib/gcc/pic32mx/4.5.2/../../../../pic32mx/lib/size\libpic32.a(vector14.o)
 .data          0x00000000        0x0 c:/program files/microchip/xc32/v1.21/bin/../lib/gcc/pic32mx/4.5.2/../../../../pic32mx/lib/size\libpic32.a(vector14.o)
 .bss           0x00000000        0x0 c:/program files/microchip/xc32/v1.21/bin/../lib/gcc/pic32mx/4.5.2/../../../../pic32mx/lib/size\libpic32.a(vector14.o)
 .reginfo       0x00000000       0x18 c:/program files/microchip/xc32/v1.21/bin/../lib/gcc/pic32mx/4.5.2/../../../../pic32mx/lib/size\libpic32.a(vector14.o)
 .pdr           0x00000000       0x20 c:/program files/microchip/xc32/v1.21/bin/../lib/gcc/pic32mx/4.5.2/../../../../pic32mx/lib/size\libpic32.a(vector14.o)
 .text          0x00000000        0x0 c:/program files/microchip/xc32/v1.21/bin/../lib/gcc/pic32mx/4.5.2/../../../../pic32mx/lib/size\libpic32.a(vector16.o)
 .data          0x00000000        0x0 c:/program files/microchip/xc32/v1.21/bin/../lib/gcc/pic32mx/4.5.2/../../../../pic32mx/lib/size\libpic32.a(vector16.o)
 .bss           0x00000000        0x0 c:/program files/microchip/xc32/v1.21/bin/../lib/gcc/pic32mx/4.5.2/../../../../pic32mx/lib/size\libpic32.a(vector16.o)
 .reginfo       0x00000000       0x18 c:/program files/microchip/xc32/v1.21/bin/../lib/gcc/pic32mx/4.5.2/../../../../pic32mx/lib/size\libpic32.a(vector16.o)
 .pdr           0x00000000       0x20 c:/program files/microchip/xc32/v1.21/bin/../lib/gcc/pic32mx/4.5.2/../../../../pic32mx/lib/size\libpic32.a(vector16.o)
 .text          0x00000000        0x0 c:/program files/microchip/xc32/v1.21/bin/../lib/gcc/pic32mx/4.5.2/../../../../pic32mx/lib/size\libpic32.a(vector17.o)
 .data          0x00000000        0x0 c:/program files/microchip/xc32/v1.21/bin/../lib/gcc/pic32mx/4.5.2/../../../../pic32mx/lib/size\libpic32.a(vector17.o)
 .bss           0x00000000        0x0 c:/program files/microchip/xc32/v1.21/bin/../lib/gcc/pic32mx/4.5.2/../../../../pic32mx/lib/size\libpic32.a(vector17.o)
 .reginfo       0x00000000       0x18 c:/program files/microchip/xc32/v1.21/bin/../lib/gcc/pic32mx/4.5.2/../../../../pic32mx/lib/size\libpic32.a(vector17.o)
 .pdr           0x00000000       0x20 c:/program files/microchip/xc32/v1.21/bin/../lib/gcc/pic32mx/4.5.2/../../../../pic32mx/lib/size\libpic32.a(vector17.o)
 .text          0x00000000        0x0 c:/program files/microchip/xc32/v1.21/bin/../lib/gcc/pic32mx/4.5.2/../../../../pic32mx/lib/size\libpic32.a(vector18.o)
 .data          0x00000000        0x0 c:/program files/microchip/xc32/v1.21/bin/../lib/gcc/pic32mx/4.5.2/../../../../pic32mx/lib/size\libpic32.a(vector18.o)
 .bss           0x00000000        0x0 c:/program files/microchip/xc32/v1.21/bin/../lib/gcc/pic32mx/4.5.2/../../../../pic32mx/lib/size\libpic32.a(vector18.o)
 .reginfo       0x00000000       0x18 c:/program files/microchip/xc32/v1.21/bin/../lib/gcc/pic32mx/4.5.2/../../../../pic32mx/lib/size\libpic32.a(vector18.o)
 .pdr           0x00000000       0x20 c:/program files/microchip/xc32/v1.21/bin/../lib/gcc/pic32mx/4.5.2/../../../../pic32mx/lib/size\libpic32.a(vector18.o)
 .text          0x00000000        0x0 c:/program files/microchip/xc32/v1.21/bin/../lib/gcc/pic32mx/4.5.2/../../../../pic32mx/lib/size\libpic32.a(vector19.o)
 .data          0x00000000        0x0 c:/program files/microchip/xc32/v1.21/bin/../lib/gcc/pic32mx/4.5.2/../../../../pic32mx/lib/size\libpic32.a(vector19.o)
 .bss           0x00000000        0x0 c:/program files/microchip/xc32/v1.21/bin/../lib/gcc/pic32mx/4.5.2/../../../../pic32mx/lib/size\libpic32.a(vector19.o)
 .reginfo       0x00000000       0x18 c:/program files/microchip/xc32/v1.21/bin/../lib/gcc/pic32mx/4.5.2/../../../../pic32mx/lib/size\libpic32.a(vector19.o)
 .pdr           0x00000000       0x20 c:/program files/microchip/xc32/v1.21/bin/../lib/gcc/pic32mx/4.5.2/../../../../pic32mx/lib/size\libpic32.a(vector19.o)
 .text          0x00000000        0x0 c:/program files/microchip/xc32/v1.21/bin/../lib/gcc/pic32mx/4.5.2/../../../../pic32mx/lib/size\libpic32.a(vector20.o)
 .data          0x00000000        0x0 c:/program files/microchip/xc32/v1.21/bin/../lib/gcc/pic32mx/4.5.2/../../../../pic32mx/lib/size\libpic32.a(vector20.o)
 .bss           0x00000000        0x0 c:/program files/microchip/xc32/v1.21/bin/../lib/gcc/pic32mx/4.5.2/../../../../pic32mx/lib/size\libpic32.a(vector20.o)
 .reginfo       0x00000000       0x18 c:/program files/microchip/xc32/v1.21/bin/../lib/gcc/pic32mx/4.5.2/../../../../pic32mx/lib/size\libpic32.a(vector20.o)
 .pdr           0x00000000       0x20 c:/program files/microchip/xc32/v1.21/bin/../lib/gcc/pic32mx/4.5.2/../../../../pic32mx/lib/size\libpic32.a(vector20.o)
 .text          0x00000000        0x0 c:/program files/microchip/xc32/v1.21/bin/../lib/gcc/pic32mx/4.5.2/../../../../pic32mx/lib/size\libpic32.a(vector21.o)
 .data          0x00000000        0x0 c:/program files/microchip/xc32/v1.21/bin/../lib/gcc/pic32mx/4.5.2/../../../../pic32mx/lib/size\libpic32.a(vector21.o)
 .bss           0x00000000        0x0 c:/program files/microchip/xc32/v1.21/bin/../lib/gcc/pic32mx/4.5.2/../../../../pic32mx/lib/size\libpic32.a(vector21.o)
 .reginfo       0x00000000       0x18 c:/program files/microchip/xc32/v1.21/bin/../lib/gcc/pic32mx/4.5.2/../../../../pic32mx/lib/size\libpic32.a(vector21.o)
 .pdr           0x00000000       0x20 c:/program files/microchip/xc32/v1.21/bin/../lib/gcc/pic32mx/4.5.2/../../../../pic32mx/lib/size\libpic32.a(vector21.o)
 .text          0x00000000        0x0 c:/program files/microchip/xc32/v1.21/bin/../lib/gcc/pic32mx/4.5.2/../../../../pic32mx/lib/size\libpic32.a(vector22.o)
 .data          0x00000000        0x0 c:/program files/microchip/xc32/v1.21/bin/../lib/gcc/pic32mx/4.5.2/../../../../pic32mx/lib/size\libpic32.a(vector22.o)
 .bss           0x00000000        0x0 c:/program files/microchip/xc32/v1.21/bin/../lib/gcc/pic32mx/4.5.2/../../../../pic32mx/lib/size\libpic32.a(vector22.o)
 .reginfo       0x00000000       0x18 c:/program files/microchip/xc32/v1.21/bin/../lib/gcc/pic32mx/4.5.2/../../../../pic32mx/lib/size\libpic32.a(vector22.o)
 .pdr           0x00000000       0x20 c:/program files/microchip/xc32/v1.21/bin/../lib/gcc/pic32mx/4.5.2/../../../../pic32mx/lib/size\libpic32.a(vector22.o)
 .text          0x00000000        0x0 c:/program files/microchip/xc32/v1.21/bin/../lib/gcc/pic32mx/4.5.2/../../../../pic32mx/lib/size\libpic32.a(vector23.o)
 .data          0x00000000        0x0 c:/program files/microchip/xc32/v1.21/bin/../lib/gcc/pic32mx/4.5.2/../../../../pic32mx/lib/size\libpic32.a(vector23.o)
 .bss           0x00000000        0x0 c:/program files/microchip/xc32/v1.21/bin/../lib/gcc/pic32mx/4.5.2/../../../../pic32mx/lib/size\libpic32.a(vector23.o)
 .reginfo       0x00000000       0x18 c:/program files/microchip/xc32/v1.21/bin/../lib/gcc/pic32mx/4.5.2/../../../../pic32mx/lib/size\libpic32.a(vector23.o)
 .pdr           0x00000000       0x20 c:/program files/microchip/xc32/v1.21/bin/../lib/gcc/pic32mx/4.5.2/../../../../pic32mx/lib/size\libpic32.a(vector23.o)
 .text          0x00000000        0x0 c:/program files/microchip/xc32/v1.21/bin/../lib/gcc/pic32mx/4.5.2/../../../../pic32mx/lib/size\libpic32.a(vector24.o)
 .data          0x00000000        0x0 c:/program files/microchip/xc32/v1.21/bin/../lib/gcc/pic32mx/4.5.2/../../../../pic32mx/lib/size\libpic32.a(vector24.o)
 .bss           0x00000000        0x0 c:/program files/microchip/xc32/v1.21/bin/../lib/gcc/pic32mx/4.5.2/../../../../pic32mx/lib/size\libpic32.a(vector24.o)
 .reginfo       0x00000000       0x18 c:/program files/microchip/xc32/v1.21/bin/../lib/gcc/pic32mx/4.5.2/../../../../pic32mx/lib/size\libpic32.a(vector24.o)
 .pdr           0x00000000       0x20 c:/program files/microchip/xc32/v1.21/bin/../lib/gcc/pic32mx/4.5.2/../../../../pic32mx/lib/size\libpic32.a(vector24.o)
 .text          0x00000000        0x0 c:/program files/microchip/xc32/v1.21/bin/../lib/gcc/pic32mx/4.5.2/../../../../pic32mx/lib/size\libpic32.a(vector25.o)
 .data          0x00000000        0x0 c:/program files/microchip/xc32/v1.21/bin/../lib/gcc/pic32mx/4.5.2/../../../../pic32mx/lib/size\libpic32.a(vector25.o)
 .bss           0x00000000        0x0 c:/program files/microchip/xc32/v1.21/bin/../lib/gcc/pic32mx/4.5.2/../../../../pic32mx/lib/size\libpic32.a(vector25.o)
 .reginfo       0x00000000       0x18 c:/program files/microchip/xc32/v1.21/bin/../lib/gcc/pic32mx/4.5.2/../../../../pic32mx/lib/size\libpic32.a(vector25.o)
 .pdr           0x00000000       0x20 c:/program files/microchip/xc32/v1.21/bin/../lib/gcc/pic32mx/4.5.2/../../../../pic32mx/lib/size\libpic32.a(vector25.o)
 .text          0x00000000        0x0 c:/program files/microchip/xc32/v1.21/bin/../lib/gcc/pic32mx/4.5.2/../../../../pic32mx/lib/size\libpic32.a(vector27.o)
 .data          0x00000000        0x0 c:/program files/microchip/xc32/v1.21/bin/../lib/gcc/pic32mx/4.5.2/../../../../pic32mx/lib/size\libpic32.a(vector27.o)
 .bss           0x00000000        0x0 c:/program files/microchip/xc32/v1.21/bin/../lib/gcc/pic32mx/4.5.2/../../../../pic32mx/lib/size\libpic32.a(vector27.o)
 .reginfo       0x00000000       0x18 c:/program files/microchip/xc32/v1.21/bin/../lib/gcc/pic32mx/4.5.2/../../../../pic32mx/lib/size\libpic32.a(vector27.o)
 .pdr           0x00000000       0x20 c:/program files/microchip/xc32/v1.21/bin/../lib/gcc/pic32mx/4.5.2/../../../../pic32mx/lib/size\libpic32.a(vector27.o)
 .text          0x00000000        0x0 c:/program files/microchip/xc32/v1.21/bin/../lib/gcc/pic32mx/4.5.2/../../../../pic32mx/lib/size\libpic32.a(vector28.o)
 .data          0x00000000        0x0 c:/program files/microchip/xc32/v1.21/bin/../lib/gcc/pic32mx/4.5.2/../../../../pic32mx/lib/size\libpic32.a(vector28.o)
 .bss           0x00000000        0x0 c:/program files/microchip/xc32/v1.21/bin/../lib/gcc/pic32mx/4.5.2/../../../../pic32mx/lib/size\libpic32.a(vector28.o)
 .reginfo       0x00000000       0x18 c:/program files/microchip/xc32/v1.21/bin/../lib/gcc/pic32mx/4.5.2/../../../../pic32mx/lib/size\libpic32.a(vector28.o)
 .pdr           0x00000000       0x20 c:/program files/microchip/xc32/v1.21/bin/../lib/gcc/pic32mx/4.5.2/../../../../pic32mx/lib/size\libpic32.a(vector28.o)
 .text          0x00000000        0x0 c:/program files/microchip/xc32/v1.21/bin/../lib/gcc/pic32mx/4.5.2/../../../../pic32mx/lib/size\libpic32.a(vector29.o)
 .data          0x00000000        0x0 c:/program files/microchip/xc32/v1.21/bin/../lib/gcc/pic32mx/4.5.2/../../../../pic32mx/lib/size\libpic32.a(vector29.o)
 .bss           0x00000000        0x0 c:/program files/microchip/xc32/v1.21/bin/../lib/gcc/pic32mx/4.5.2/../../../../pic32mx/lib/size\libpic32.a(vector29.o)
 .reginfo       0x00000000       0x18 c:/program files/microchip/xc32/v1.21/bin/../lib/gcc/pic32mx/4.5.2/../../../../pic32mx/lib/size\libpic32.a(vector29.o)
 .pdr           0x00000000       0x20 c:/program files/microchip/xc32/v1.21/bin/../lib/gcc/pic32mx/4.5.2/../../../../pic32mx/lib/size\libpic32.a(vector29.o)
 .text          0x00000000        0x0 c:/program files/microchip/xc32/v1.21/bin/../lib/gcc/pic32mx/4.5.2/../../../../pic32mx/lib/size\libpic32.a(vector30.o)
 .data          0x00000000        0x0 c:/program files/microchip/xc32/v1.21/bin/../lib/gcc/pic32mx/4.5.2/../../../../pic32mx/lib/size\libpic32.a(vector30.o)
 .bss           0x00000000        0x0 c:/program files/microchip/xc32/v1.21/bin/../lib/gcc/pic32mx/4.5.2/../../../../pic32mx/lib/size\libpic32.a(vector30.o)
 .reginfo       0x00000000       0x18 c:/program files/microchip/xc32/v1.21/bin/../lib/gcc/pic32mx/4.5.2/../../../../pic32mx/lib/size\libpic32.a(vector30.o)
 .pdr           0x00000000       0x20 c:/program files/microchip/xc32/v1.21/bin/../lib/gcc/pic32mx/4.5.2/../../../../pic32mx/lib/size\libpic32.a(vector30.o)
 .text          0x00000000        0x0 c:/program files/microchip/xc32/v1.21/bin/../lib/gcc/pic32mx/4.5.2/../../../../pic32mx/lib/size\libpic32.a(vector31.o)
 .data          0x00000000        0x0 c:/program files/microchip/xc32/v1.21/bin/../lib/gcc/pic32mx/4.5.2/../../../../pic32mx/lib/size\libpic32.a(vector31.o)
 .bss           0x00000000        0x0 c:/program files/microchip/xc32/v1.21/bin/../lib/gcc/pic32mx/4.5.2/../../../../pic32mx/lib/size\libpic32.a(vector31.o)
 .reginfo       0x00000000       0x18 c:/program files/microchip/xc32/v1.21/bin/../lib/gcc/pic32mx/4.5.2/../../../../pic32mx/lib/size\libpic32.a(vector31.o)
 .pdr           0x00000000       0x20 c:/program files/microchip/xc32/v1.21/bin/../lib/gcc/pic32mx/4.5.2/../../../../pic32mx/lib/size\libpic32.a(vector31.o)
 .text          0x00000000        0x0 c:/program files/microchip/xc32/v1.21/bin/../lib/gcc/pic32mx/4.5.2/../../../../pic32mx/lib/size\libpic32.a(vector32.o)
 .data          0x00000000        0x0 c:/program files/microchip/xc32/v1.21/bin/../lib/gcc/pic32mx/4.5.2/../../../../pic32mx/lib/size\libpic32.a(vector32.o)
 .bss           0x00000000        0x0 c:/program files/microchip/xc32/v1.21/bin/../lib/gcc/pic32mx/4.5.2/../../../../pic32mx/lib/size\libpic32.a(vector32.o)
 .reginfo       0x00000000       0x18 c:/program files/microchip/xc32/v1.21/bin/../lib/gcc/pic32mx/4.5.2/../../../../pic32mx/lib/size\libpic32.a(vector32.o)
 .pdr           0x00000000       0x20 c:/program files/microchip/xc32/v1.21/bin/../lib/gcc/pic32mx/4.5.2/../../../../pic32mx/lib/size\libpic32.a(vector32.o)
 .text          0x00000000        0x0 c:/program files/microchip/xc32/v1.21/bin/../lib/gcc/pic32mx/4.5.2/../../../../pic32mx/lib/size\libpic32.a(vector33.o)
 .data          0x00000000        0x0 c:/program files/microchip/xc32/v1.21/bin/../lib/gcc/pic32mx/4.5.2/../../../../pic32mx/lib/size\libpic32.a(vector33.o)
 .bss           0x00000000        0x0 c:/program files/microchip/xc32/v1.21/bin/../lib/gcc/pic32mx/4.5.2/../../../../pic32mx/lib/size\libpic32.a(vector33.o)
 .reginfo       0x00000000       0x18 c:/program files/microchip/xc32/v1.21/bin/../lib/gcc/pic32mx/4.5.2/../../../../pic32mx/lib/size\libpic32.a(vector33.o)
 .pdr           0x00000000       0x20 c:/program files/microchip/xc32/v1.21/bin/../lib/gcc/pic32mx/4.5.2/../../../../pic32mx/lib/size\libpic32.a(vector33.o)
 .text          0x00000000        0x0 c:/program files/microchip/xc32/v1.21/bin/../lib/gcc/pic32mx/4.5.2/../../../../pic32mx/lib/size\libpic32.a(vector34.o)
 .data          0x00000000        0x0 c:/program files/microchip/xc32/v1.21/bin/../lib/gcc/pic32mx/4.5.2/../../../../pic32mx/lib/size\libpic32.a(vector34.o)
 .bss           0x00000000        0x0 c:/program files/microchip/xc32/v1.21/bin/../lib/gcc/pic32mx/4.5.2/../../../../pic32mx/lib/size\libpic32.a(vector34.o)
 .reginfo       0x00000000       0x18 c:/program files/microchip/xc32/v1.21/bin/../lib/gcc/pic32mx/4.5.2/../../../../pic32mx/lib/size\libpic32.a(vector34.o)
 .pdr           0x00000000       0x20 c:/program files/microchip/xc32/v1.21/bin/../lib/gcc/pic32mx/4.5.2/../../../../pic32mx/lib/size\libpic32.a(vector34.o)
 .text          0x00000000        0x0 c:/program files/microchip/xc32/v1.21/bin/../lib/gcc/pic32mx/4.5.2/../../../../pic32mx/lib/size\libpic32.a(vector35.o)
 .data          0x00000000        0x0 c:/program files/microchip/xc32/v1.21/bin/../lib/gcc/pic32mx/4.5.2/../../../../pic32mx/lib/size\libpic32.a(vector35.o)
 .bss           0x00000000        0x0 c:/program files/microchip/xc32/v1.21/bin/../lib/gcc/pic32mx/4.5.2/../../../../pic32mx/lib/size\libpic32.a(vector35.o)
 .reginfo       0x00000000       0x18 c:/program files/microchip/xc32/v1.21/bin/../lib/gcc/pic32mx/4.5.2/../../../../pic32mx/lib/size\libpic32.a(vector35.o)
 .pdr           0x00000000       0x20 c:/program files/microchip/xc32/v1.21/bin/../lib/gcc/pic32mx/4.5.2/../../../../pic32mx/lib/size\libpic32.a(vector35.o)
 .text          0x00000000        0x0 c:/program files/microchip/xc32/v1.21/bin/../lib/gcc/pic32mx/4.5.2/../../../../pic32mx/lib/size\libpic32.a(vector36.o)
 .data          0x00000000        0x0 c:/program files/microchip/xc32/v1.21/bin/../lib/gcc/pic32mx/4.5.2/../../../../pic32mx/lib/size\libpic32.a(vector36.o)
 .bss           0x00000000        0x0 c:/program files/microchip/xc32/v1.21/bin/../lib/gcc/pic32mx/4.5.2/../../../../pic32mx/lib/size\libpic32.a(vector36.o)
 .reginfo       0x00000000       0x18 c:/program files/microchip/xc32/v1.21/bin/../lib/gcc/pic32mx/4.5.2/../../../../pic32mx/lib/size\libpic32.a(vector36.o)
 .pdr           0x00000000       0x20 c:/program files/microchip/xc32/v1.21/bin/../lib/gcc/pic32mx/4.5.2/../../../../pic32mx/lib/size\libpic32.a(vector36.o)
 .text          0x00000000        0x0 c:/program files/microchip/xc32/v1.21/bin/../lib/gcc/pic32mx/4.5.2/../../../../pic32mx/lib/size\libpic32.a(vector37.o)
 .data          0x00000000        0x0 c:/program files/microchip/xc32/v1.21/bin/../lib/gcc/pic32mx/4.5.2/../../../../pic32mx/lib/size\libpic32.a(vector37.o)
 .bss           0x00000000        0x0 c:/program files/microchip/xc32/v1.21/bin/../lib/gcc/pic32mx/4.5.2/../../../../pic32mx/lib/size\libpic32.a(vector37.o)
 .reginfo       0x00000000       0x18 c:/program files/microchip/xc32/v1.21/bin/../lib/gcc/pic32mx/4.5.2/../../../../pic32mx/lib/size\libpic32.a(vector37.o)
 .pdr           0x00000000       0x20 c:/program files/microchip/xc32/v1.21/bin/../lib/gcc/pic32mx/4.5.2/../../../../pic32mx/lib/size\libpic32.a(vector37.o)
 .text          0x00000000        0x0 c:/program files/microchip/xc32/v1.21/bin/../lib/gcc/pic32mx/4.5.2/../../../../pic32mx/lib/size\libpic32.a(vector38.o)
 .data          0x00000000        0x0 c:/program files/microchip/xc32/v1.21/bin/../lib/gcc/pic32mx/4.5.2/../../../../pic32mx/lib/size\libpic32.a(vector38.o)
 .bss           0x00000000        0x0 c:/program files/microchip/xc32/v1.21/bin/../lib/gcc/pic32mx/4.5.2/../../../../pic32mx/lib/size\libpic32.a(vector38.o)
 .reginfo       0x00000000       0x18 c:/program files/microchip/xc32/v1.21/bin/../lib/gcc/pic32mx/4.5.2/../../../../pic32mx/lib/size\libpic32.a(vector38.o)
 .pdr           0x00000000       0x20 c:/program files/microchip/xc32/v1.21/bin/../lib/gcc/pic32mx/4.5.2/../../../../pic32mx/lib/size\libpic32.a(vector38.o)
 .text          0x00000000        0x0 c:/program files/microchip/xc32/v1.21/bin/../lib/gcc/pic32mx/4.5.2/../../../../pic32mx/lib/size\libpic32.a(vector39.o)
 .data          0x00000000        0x0 c:/program files/microchip/xc32/v1.21/bin/../lib/gcc/pic32mx/4.5.2/../../../../pic32mx/lib/size\libpic32.a(vector39.o)
 .bss           0x00000000        0x0 c:/program files/microchip/xc32/v1.21/bin/../lib/gcc/pic32mx/4.5.2/../../../../pic32mx/lib/size\libpic32.a(vector39.o)
 .reginfo       0x00000000       0x18 c:/program files/microchip/xc32/v1.21/bin/../lib/gcc/pic32mx/4.5.2/../../../../pic32mx/lib/size\libpic32.a(vector39.o)
 .pdr           0x00000000       0x20 c:/program files/microchip/xc32/v1.21/bin/../lib/gcc/pic32mx/4.5.2/../../../../pic32mx/lib/size\libpic32.a(vector39.o)
 .text          0x00000000        0x0 c:/program files/microchip/xc32/v1.21/bin/../lib/gcc/pic32mx/4.5.2/../../../../pic32mx/lib/size\libpic32.a(vector40.o)
 .data          0x00000000        0x0 c:/program files/microchip/xc32/v1.21/bin/../lib/gcc/pic32mx/4.5.2/../../../../pic32mx/lib/size\libpic32.a(vector40.o)
 .bss           0x00000000        0x0 c:/program files/microchip/xc32/v1.21/bin/../lib/gcc/pic32mx/4.5.2/../../../../pic32mx/lib/size\libpic32.a(vector40.o)
 .reginfo       0x00000000       0x18 c:/program files/microchip/xc32/v1.21/bin/../lib/gcc/pic32mx/4.5.2/../../../../pic32mx/lib/size\libpic32.a(vector40.o)
 .pdr           0x00000000       0x20 c:/program files/microchip/xc32/v1.21/bin/../lib/gcc/pic32mx/4.5.2/../../../../pic32mx/lib/size\libpic32.a(vector40.o)
 .text          0x00000000        0x0 c:/program files/microchip/xc32/v1.21/bin/../lib/gcc/pic32mx/4.5.2/../../../../pic32mx/lib/size\libpic32.a(vector41.o)
 .data          0x00000000        0x0 c:/program files/microchip/xc32/v1.21/bin/../lib/gcc/pic32mx/4.5.2/../../../../pic32mx/lib/size\libpic32.a(vector41.o)
 .bss           0x00000000        0x0 c:/program files/microchip/xc32/v1.21/bin/../lib/gcc/pic32mx/4.5.2/../../../../pic32mx/lib/size\libpic32.a(vector41.o)
 .reginfo       0x00000000       0x18 c:/program files/microchip/xc32/v1.21/bin/../lib/gcc/pic32mx/4.5.2/../../../../pic32mx/lib/size\libpic32.a(vector41.o)
 .pdr           0x00000000       0x20 c:/program files/microchip/xc32/v1.21/bin/../lib/gcc/pic32mx/4.5.2/../../../../pic32mx/lib/size\libpic32.a(vector41.o)
 .text          0x00000000        0x0 c:/program files/microchip/xc32/v1.21/bin/../lib/gcc/pic32mx/4.5.2/../../../../pic32mx/lib/size\libpic32.a(vector42.o)
 .data          0x00000000        0x0 c:/program files/microchip/xc32/v1.21/bin/../lib/gcc/pic32mx/4.5.2/../../../../pic32mx/lib/size\libpic32.a(vector42.o)
 .bss           0x00000000        0x0 c:/program files/microchip/xc32/v1.21/bin/../lib/gcc/pic32mx/4.5.2/../../../../pic32mx/lib/size\libpic32.a(vector42.o)
 .reginfo       0x00000000       0x18 c:/program files/microchip/xc32/v1.21/bin/../lib/gcc/pic32mx/4.5.2/../../../../pic32mx/lib/size\libpic32.a(vector42.o)
 .pdr           0x00000000       0x20 c:/program files/microchip/xc32/v1.21/bin/../lib/gcc/pic32mx/4.5.2/../../../../pic32mx/lib/size\libpic32.a(vector42.o)
 .text          0x00000000        0x0 c:/program files/microchip/xc32/v1.21/bin/../lib/gcc/pic32mx/4.5.2/../../../../pic32mx/lib/size\libpic32.a(vector43.o)
 .data          0x00000000        0x0 c:/program files/microchip/xc32/v1.21/bin/../lib/gcc/pic32mx/4.5.2/../../../../pic32mx/lib/size\libpic32.a(vector43.o)
 .bss           0x00000000        0x0 c:/program files/microchip/xc32/v1.21/bin/../lib/gcc/pic32mx/4.5.2/../../../../pic32mx/lib/size\libpic32.a(vector43.o)
 .reginfo       0x00000000       0x18 c:/program files/microchip/xc32/v1.21/bin/../lib/gcc/pic32mx/4.5.2/../../../../pic32mx/lib/size\libpic32.a(vector43.o)
 .pdr           0x00000000       0x20 c:/program files/microchip/xc32/v1.21/bin/../lib/gcc/pic32mx/4.5.2/../../../../pic32mx/lib/size\libpic32.a(vector43.o)
 .text          0x00000000        0x0 c:/program files/microchip/xc32/v1.21/bin/../lib/gcc/pic32mx/4.5.2/../../../../pic32mx/lib/size\libpic32.a(vector44.o)
 .data          0x00000000        0x0 c:/program files/microchip/xc32/v1.21/bin/../lib/gcc/pic32mx/4.5.2/../../../../pic32mx/lib/size\libpic32.a(vector44.o)
 .bss           0x00000000        0x0 c:/program files/microchip/xc32/v1.21/bin/../lib/gcc/pic32mx/4.5.2/../../../../pic32mx/lib/size\libpic32.a(vector44.o)
 .reginfo       0x00000000       0x18 c:/program files/microchip/xc32/v1.21/bin/../lib/gcc/pic32mx/4.5.2/../../../../pic32mx/lib/size\libpic32.a(vector44.o)
 .pdr           0x00000000       0x20 c:/program files/microchip/xc32/v1.21/bin/../lib/gcc/pic32mx/4.5.2/../../../../pic32mx/lib/size\libpic32.a(vector44.o)
 .text          0x00000000        0x0 c:/program files/microchip/xc32/v1.21/bin/../lib/gcc/pic32mx/4.5.2/../../../../pic32mx/lib/size\libpic32.a(vector45.o)
 .data          0x00000000        0x0 c:/program files/microchip/xc32/v1.21/bin/../lib/gcc/pic32mx/4.5.2/../../../../pic32mx/lib/size\libpic32.a(vector45.o)
 .bss           0x00000000        0x0 c:/program files/microchip/xc32/v1.21/bin/../lib/gcc/pic32mx/4.5.2/../../../../pic32mx/lib/size\libpic32.a(vector45.o)
 .reginfo       0x00000000       0x18 c:/program files/microchip/xc32/v1.21/bin/../lib/gcc/pic32mx/4.5.2/../../../../pic32mx/lib/size\libpic32.a(vector45.o)
 .pdr           0x00000000       0x20 c:/program files/microchip/xc32/v1.21/bin/../lib/gcc/pic32mx/4.5.2/../../../../pic32mx/lib/size\libpic32.a(vector45.o)
 .text          0x00000000        0x0 c:/program files/microchip/xc32/v1.21/bin/../lib/gcc/pic32mx/4.5.2/../../../../pic32mx/lib/size\libpic32.a(vector46.o)
 .data          0x00000000        0x0 c:/program files/microchip/xc32/v1.21/bin/../lib/gcc/pic32mx/4.5.2/../../../../pic32mx/lib/size\libpic32.a(vector46.o)
 .bss           0x00000000        0x0 c:/program files/microchip/xc32/v1.21/bin/../lib/gcc/pic32mx/4.5.2/../../../../pic32mx/lib/size\libpic32.a(vector46.o)
 .reginfo       0x00000000       0x18 c:/program files/microchip/xc32/v1.21/bin/../lib/gcc/pic32mx/4.5.2/../../../../pic32mx/lib/size\libpic32.a(vector46.o)
 .pdr           0x00000000       0x20 c:/program files/microchip/xc32/v1.21/bin/../lib/gcc/pic32mx/4.5.2/../../../../pic32mx/lib/size\libpic32.a(vector46.o)
 .text          0x00000000        0x0 c:/program files/microchip/xc32/v1.21/bin/../lib/gcc/pic32mx/4.5.2/../../../../pic32mx/lib/size\libpic32.a(vector47.o)
 .data          0x00000000        0x0 c:/program files/microchip/xc32/v1.21/bin/../lib/gcc/pic32mx/4.5.2/../../../../pic32mx/lib/size\libpic32.a(vector47.o)
 .bss           0x00000000        0x0 c:/program files/microchip/xc32/v1.21/bin/../lib/gcc/pic32mx/4.5.2/../../../../pic32mx/lib/size\libpic32.a(vector47.o)
 .reginfo       0x00000000       0x18 c:/program files/microchip/xc32/v1.21/bin/../lib/gcc/pic32mx/4.5.2/../../../../pic32mx/lib/size\libpic32.a(vector47.o)
 .pdr           0x00000000       0x20 c:/program files/microchip/xc32/v1.21/bin/../lib/gcc/pic32mx/4.5.2/../../../../pic32mx/lib/size\libpic32.a(vector47.o)
 .text          0x00000000        0x0 c:/program files/microchip/xc32/v1.21/bin/../lib/gcc/pic32mx/4.5.2/../../../../pic32mx/lib/size\libpic32.a(vector49.o)
 .data          0x00000000        0x0 c:/program files/microchip/xc32/v1.21/bin/../lib/gcc/pic32mx/4.5.2/../../../../pic32mx/lib/size\libpic32.a(vector49.o)
 .bss           0x00000000        0x0 c:/program files/microchip/xc32/v1.21/bin/../lib/gcc/pic32mx/4.5.2/../../../../pic32mx/lib/size\libpic32.a(vector49.o)
 .reginfo       0x00000000       0x18 c:/program files/microchip/xc32/v1.21/bin/../lib/gcc/pic32mx/4.5.2/../../../../pic32mx/lib/size\libpic32.a(vector49.o)
 .pdr           0x00000000       0x20 c:/program files/microchip/xc32/v1.21/bin/../lib/gcc/pic32mx/4.5.2/../../../../pic32mx/lib/size\libpic32.a(vector49.o)
 .text          0x00000000        0x0 c:/program files/microchip/xc32/v1.21/bin/../lib/gcc/pic32mx/4.5.2/../../../../pic32mx/lib/size\libpic32.a(vector50.o)
 .data          0x00000000        0x0 c:/program files/microchip/xc32/v1.21/bin/../lib/gcc/pic32mx/4.5.2/../../../../pic32mx/lib/size\libpic32.a(vector50.o)
 .bss           0x00000000        0x0 c:/program files/microchip/xc32/v1.21/bin/../lib/gcc/pic32mx/4.5.2/../../../../pic32mx/lib/size\libpic32.a(vector50.o)
 .reginfo       0x00000000       0x18 c:/program files/microchip/xc32/v1.21/bin/../lib/gcc/pic32mx/4.5.2/../../../../pic32mx/lib/size\libpic32.a(vector50.o)
 .pdr           0x00000000       0x20 c:/program files/microchip/xc32/v1.21/bin/../lib/gcc/pic32mx/4.5.2/../../../../pic32mx/lib/size\libpic32.a(vector50.o)
 .text          0x00000000        0x0 c:/program files/microchip/xc32/v1.21/bin/../lib/gcc/pic32mx/4.5.2/../../../../pic32mx/lib/size\libpic32.a(vector51.o)
 .data          0x00000000        0x0 c:/program files/microchip/xc32/v1.21/bin/../lib/gcc/pic32mx/4.5.2/../../../../pic32mx/lib/size\libpic32.a(vector51.o)
 .bss           0x00000000        0x0 c:/program files/microchip/xc32/v1.21/bin/../lib/gcc/pic32mx/4.5.2/../../../../pic32mx/lib/size\libpic32.a(vector51.o)
 .reginfo       0x00000000       0x18 c:/program files/microchip/xc32/v1.21/bin/../lib/gcc/pic32mx/4.5.2/../../../../pic32mx/lib/size\libpic32.a(vector51.o)
 .pdr           0x00000000       0x20 c:/program files/microchip/xc32/v1.21/bin/../lib/gcc/pic32mx/4.5.2/../../../../pic32mx/lib/size\libpic32.a(vector51.o)
 .text          0x00000000        0x0 c:/program files/microchip/xc32/v1.21/bin/../lib/gcc/pic32mx/4.5.2/../../../../pic32mx/lib/size\libpic32.a(vector52.o)
 .data          0x00000000        0x0 c:/program files/microchip/xc32/v1.21/bin/../lib/gcc/pic32mx/4.5.2/../../../../pic32mx/lib/size\libpic32.a(vector52.o)
 .bss           0x00000000        0x0 c:/program files/microchip/xc32/v1.21/bin/../lib/gcc/pic32mx/4.5.2/../../../../pic32mx/lib/size\libpic32.a(vector52.o)
 .reginfo       0x00000000       0x18 c:/program files/microchip/xc32/v1.21/bin/../lib/gcc/pic32mx/4.5.2/../../../../pic32mx/lib/size\libpic32.a(vector52.o)
 .pdr           0x00000000       0x20 c:/program files/microchip/xc32/v1.21/bin/../lib/gcc/pic32mx/4.5.2/../../../../pic32mx/lib/size\libpic32.a(vector52.o)
 .text          0x00000000        0x0 c:/program files/microchip/xc32/v1.21/bin/../lib/gcc/pic32mx/4.5.2/../../../../pic32mx/lib/size\libpic32.a(vector53.o)
 .data          0x00000000        0x0 c:/program files/microchip/xc32/v1.21/bin/../lib/gcc/pic32mx/4.5.2/../../../../pic32mx/lib/size\libpic32.a(vector53.o)
 .bss           0x00000000        0x0 c:/program files/microchip/xc32/v1.21/bin/../lib/gcc/pic32mx/4.5.2/../../../../pic32mx/lib/size\libpic32.a(vector53.o)
 .reginfo       0x00000000       0x18 c:/program files/microchip/xc32/v1.21/bin/../lib/gcc/pic32mx/4.5.2/../../../../pic32mx/lib/size\libpic32.a(vector53.o)
 .pdr           0x00000000       0x20 c:/program files/microchip/xc32/v1.21/bin/../lib/gcc/pic32mx/4.5.2/../../../../pic32mx/lib/size\libpic32.a(vector53.o)
 .text          0x00000000        0x0 c:/program files/microchip/xc32/v1.21/bin/../lib/gcc/pic32mx/4.5.2/../../../../pic32mx/lib/size\libpic32.a(vector54.o)
 .data          0x00000000        0x0 c:/program files/microchip/xc32/v1.21/bin/../lib/gcc/pic32mx/4.5.2/../../../../pic32mx/lib/size\libpic32.a(vector54.o)
 .bss           0x00000000        0x0 c:/program files/microchip/xc32/v1.21/bin/../lib/gcc/pic32mx/4.5.2/../../../../pic32mx/lib/size\libpic32.a(vector54.o)
 .reginfo       0x00000000       0x18 c:/program files/microchip/xc32/v1.21/bin/../lib/gcc/pic32mx/4.5.2/../../../../pic32mx/lib/size\libpic32.a(vector54.o)
 .pdr           0x00000000       0x20 c:/program files/microchip/xc32/v1.21/bin/../lib/gcc/pic32mx/4.5.2/../../../../pic32mx/lib/size\libpic32.a(vector54.o)
 .text          0x00000000        0x0 c:/program files/microchip/xc32/v1.21/bin/../lib/gcc/pic32mx/4.5.2/../../../../pic32mx/lib/size\libpic32.a(vector55.o)
 .data          0x00000000        0x0 c:/program files/microchip/xc32/v1.21/bin/../lib/gcc/pic32mx/4.5.2/../../../../pic32mx/lib/size\libpic32.a(vector55.o)
 .bss           0x00000000        0x0 c:/program files/microchip/xc32/v1.21/bin/../lib/gcc/pic32mx/4.5.2/../../../../pic32mx/lib/size\libpic32.a(vector55.o)
 .reginfo       0x00000000       0x18 c:/program files/microchip/xc32/v1.21/bin/../lib/gcc/pic32mx/4.5.2/../../../../pic32mx/lib/size\libpic32.a(vector55.o)
 .pdr           0x00000000       0x20 c:/program files/microchip/xc32/v1.21/bin/../lib/gcc/pic32mx/4.5.2/../../../../pic32mx/lib/size\libpic32.a(vector55.o)
 .text          0x00000000        0x0 c:/program files/microchip/xc32/v1.21/bin/../lib/gcc/pic32mx/4.5.2/../../../../pic32mx/lib/size\libpic32.a(vector56.o)
 .data          0x00000000        0x0 c:/program files/microchip/xc32/v1.21/bin/../lib/gcc/pic32mx/4.5.2/../../../../pic32mx/lib/size\libpic32.a(vector56.o)
 .bss           0x00000000        0x0 c:/program files/microchip/xc32/v1.21/bin/../lib/gcc/pic32mx/4.5.2/../../../../pic32mx/lib/size\libpic32.a(vector56.o)
 .reginfo       0x00000000       0x18 c:/program files/microchip/xc32/v1.21/bin/../lib/gcc/pic32mx/4.5.2/../../../../pic32mx/lib/size\libpic32.a(vector56.o)
 .pdr           0x00000000       0x20 c:/program files/microchip/xc32/v1.21/bin/../lib/gcc/pic32mx/4.5.2/../../../../pic32mx/lib/size\libpic32.a(vector56.o)
 .text          0x00000000        0x0 c:/program files/microchip/xc32/v1.21/bin/../lib/gcc/pic32mx/4.5.2/../../../../pic32mx/lib/size\libpic32.a(vector57.o)
 .data          0x00000000        0x0 c:/program files/microchip/xc32/v1.21/bin/../lib/gcc/pic32mx/4.5.2/../../../../pic32mx/lib/size\libpic32.a(vector57.o)
 .bss           0x00000000        0x0 c:/program files/microchip/xc32/v1.21/bin/../lib/gcc/pic32mx/4.5.2/../../../../pic32mx/lib/size\libpic32.a(vector57.o)
 .reginfo       0x00000000       0x18 c:/program files/microchip/xc32/v1.21/bin/../lib/gcc/pic32mx/4.5.2/../../../../pic32mx/lib/size\libpic32.a(vector57.o)
 .pdr           0x00000000       0x20 c:/program files/microchip/xc32/v1.21/bin/../lib/gcc/pic32mx/4.5.2/../../../../pic32mx/lib/size\libpic32.a(vector57.o)
 .text          0x00000000        0x0 c:/program files/microchip/xc32/v1.21/bin/../lib/gcc/pic32mx/4.5.2/../../../../pic32mx/lib/size\libpic32.a(vector58.o)
 .data          0x00000000        0x0 c:/program files/microchip/xc32/v1.21/bin/../lib/gcc/pic32mx/4.5.2/../../../../pic32mx/lib/size\libpic32.a(vector58.o)
 .bss           0x00000000        0x0 c:/program files/microchip/xc32/v1.21/bin/../lib/gcc/pic32mx/4.5.2/../../../../pic32mx/lib/size\libpic32.a(vector58.o)
 .reginfo       0x00000000       0x18 c:/program files/microchip/xc32/v1.21/bin/../lib/gcc/pic32mx/4.5.2/../../../../pic32mx/lib/size\libpic32.a(vector58.o)
 .pdr           0x00000000       0x20 c:/program files/microchip/xc32/v1.21/bin/../lib/gcc/pic32mx/4.5.2/../../../../pic32mx/lib/size\libpic32.a(vector58.o)
 .text          0x00000000        0x0 c:/program files/microchip/xc32/v1.21/bin/../lib/gcc/pic32mx/4.5.2/../../../../pic32mx/lib/size\libpic32.a(vector59.o)
 .data          0x00000000        0x0 c:/program files/microchip/xc32/v1.21/bin/../lib/gcc/pic32mx/4.5.2/../../../../pic32mx/lib/size\libpic32.a(vector59.o)
 .bss           0x00000000        0x0 c:/program files/microchip/xc32/v1.21/bin/../lib/gcc/pic32mx/4.5.2/../../../../pic32mx/lib/size\libpic32.a(vector59.o)
 .reginfo       0x00000000       0x18 c:/program files/microchip/xc32/v1.21/bin/../lib/gcc/pic32mx/4.5.2/../../../../pic32mx/lib/size\libpic32.a(vector59.o)
 .pdr           0x00000000       0x20 c:/program files/microchip/xc32/v1.21/bin/../lib/gcc/pic32mx/4.5.2/../../../../pic32mx/lib/size\libpic32.a(vector59.o)
 .text          0x00000000        0x0 c:/program files/microchip/xc32/v1.21/bin/../lib/gcc/pic32mx/4.5.2/../../../../pic32mx/lib/size\libpic32.a(vector60.o)
 .data          0x00000000        0x0 c:/program files/microchip/xc32/v1.21/bin/../lib/gcc/pic32mx/4.5.2/../../../../pic32mx/lib/size\libpic32.a(vector60.o)
 .bss           0x00000000        0x0 c:/program files/microchip/xc32/v1.21/bin/../lib/gcc/pic32mx/4.5.2/../../../../pic32mx/lib/size\libpic32.a(vector60.o)
 .reginfo       0x00000000       0x18 c:/program files/microchip/xc32/v1.21/bin/../lib/gcc/pic32mx/4.5.2/../../../../pic32mx/lib/size\libpic32.a(vector60.o)
 .pdr           0x00000000       0x20 c:/program files/microchip/xc32/v1.21/bin/../lib/gcc/pic32mx/4.5.2/../../../../pic32mx/lib/size\libpic32.a(vector60.o)
 .text          0x00000000        0x0 c:/program files/microchip/xc32/v1.21/bin/../lib/gcc/pic32mx/4.5.2/../../../../pic32mx/lib/size\libpic32.a(vector61.o)
 .data          0x00000000        0x0 c:/program files/microchip/xc32/v1.21/bin/../lib/gcc/pic32mx/4.5.2/../../../../pic32mx/lib/size\libpic32.a(vector61.o)
 .bss           0x00000000        0x0 c:/program files/microchip/xc32/v1.21/bin/../lib/gcc/pic32mx/4.5.2/../../../../pic32mx/lib/size\libpic32.a(vector61.o)
 .reginfo       0x00000000       0x18 c:/program files/microchip/xc32/v1.21/bin/../lib/gcc/pic32mx/4.5.2/../../../../pic32mx/lib/size\libpic32.a(vector61.o)
 .pdr           0x00000000       0x20 c:/program files/microchip/xc32/v1.21/bin/../lib/gcc/pic32mx/4.5.2/../../../../pic32mx/lib/size\libpic32.a(vector61.o)
 .text          0x00000000        0x0 c:/program files/microchip/xc32/v1.21/bin/../lib/gcc/pic32mx/4.5.2/../../../../pic32mx/lib/size\libpic32.a(vector62.o)
 .data          0x00000000        0x0 c:/program files/microchip/xc32/v1.21/bin/../lib/gcc/pic32mx/4.5.2/../../../../pic32mx/lib/size\libpic32.a(vector62.o)
 .bss           0x00000000        0x0 c:/program files/microchip/xc32/v1.21/bin/../lib/gcc/pic32mx/4.5.2/../../../../pic32mx/lib/size\libpic32.a(vector62.o)
 .reginfo       0x00000000       0x18 c:/program files/microchip/xc32/v1.21/bin/../lib/gcc/pic32mx/4.5.2/../../../../pic32mx/lib/size\libpic32.a(vector62.o)
 .pdr           0x00000000       0x20 c:/program files/microchip/xc32/v1.21/bin/../lib/gcc/pic32mx/4.5.2/../../../../pic32mx/lib/size\libpic32.a(vector62.o)
 .text          0x00000000        0x0 c:/program files/microchip/xc32/v1.21/bin/../lib/gcc/pic32mx/4.5.2/../../../../pic32mx/lib/size\libpic32.a(vector63.o)
 .data          0x00000000        0x0 c:/program files/microchip/xc32/v1.21/bin/../lib/gcc/pic32mx/4.5.2/../../../../pic32mx/lib/size\libpic32.a(vector63.o)
 .bss           0x00000000        0x0 c:/program files/microchip/xc32/v1.21/bin/../lib/gcc/pic32mx/4.5.2/../../../../pic32mx/lib/size\libpic32.a(vector63.o)
 .reginfo       0x00000000       0x18 c:/program files/microchip/xc32/v1.21/bin/../lib/gcc/pic32mx/4.5.2/../../../../pic32mx/lib/size\libpic32.a(vector63.o)
 .pdr           0x00000000       0x20 c:/program files/microchip/xc32/v1.21/bin/../lib/gcc/pic32mx/4.5.2/../../../../pic32mx/lib/size\libpic32.a(vector63.o)
 .text          0x00000000        0x0 c:/program files/microchip/xc32/v1.21/bin/../lib/gcc/pic32mx/4.5.2/../../../../pic32mx/lib/size\libpic32.a(defaultinterrupt.o)
 .data          0x00000000        0x0 c:/program files/microchip/xc32/v1.21/bin/../lib/gcc/pic32mx/4.5.2/../../../../pic32mx/lib/size\libpic32.a(defaultinterrupt.o)
 .bss           0x00000000        0x0 c:/program files/microchip/xc32/v1.21/bin/../lib/gcc/pic32mx/4.5.2/../../../../pic32mx/lib/size\libpic32.a(defaultinterrupt.o)
 .reginfo       0x00000000       0x18 c:/program files/microchip/xc32/v1.21/bin/../lib/gcc/pic32mx/4.5.2/../../../../pic32mx/lib/size\libpic32.a(defaultinterrupt.o)
 .pdr           0x00000000       0x20 c:/program files/microchip/xc32/v1.21/bin/../lib/gcc/pic32mx/4.5.2/../../../../pic32mx/lib/size\libpic32.a(defaultinterrupt.o)
 .text          0x00000000        0x0 c:/program files/microchip/xc32/v1.21/bin/../lib/gcc/pic32mx/4.5.2/../../../../pic32mx/lib/size\libdebug.a(db_utils.o)
 .data          0x00000000        0x0 c:/program files/microchip/xc32/v1.21/bin/../lib/gcc/pic32mx/4.5.2/../../../../pic32mx/lib/size\libdebug.a(db_utils.o)
 .reginfo       0x00000000       0x18 c:/program files/microchip/xc32/v1.21/bin/../lib/gcc/pic32mx/4.5.2/../../../../pic32mx/lib/size\libdebug.a(db_utils.o)
 .pdr           0x00000000       0xc0 c:/program files/microchip/xc32/v1.21/bin/../lib/gcc/pic32mx/4.5.2/../../../../pic32mx/lib/size\libdebug.a(db_utils.o)
 .data          0x00000000        0x0 c:/program files/microchip/xc32/v1.21/bin/../lib/gcc/pic32mx/4.5.2/../../../../pic32mx/lib/size\libm.a(fp32.o)
 .bss           0x00000000        0x0 c:/program files/microchip/xc32/v1.21/bin/../lib/gcc/pic32mx/4.5.2/../../../../pic32mx/lib/size\libm.a(fp32.o)
 .reginfo       0x00000000       0x18 c:/program files/microchip/xc32/v1.21/bin/../lib/gcc/pic32mx/4.5.2/../../../../pic32mx/lib/size\libm.a(fp32.o)
 .pdr           0x00000000        0x0 c:/program files/microchip/xc32/v1.21/bin/../lib/gcc/pic32mx/4.5.2/../../../../pic32mx/lib/size\libm.a(fp32.o)
 .text          0x00000000        0x0 c:/program files/microchip/xc32/v1.21/bin/../lib/gcc/pic32mx/4.5.2/../../../../pic32mx/lib/size\libpic32.a(xc32_uart.o)
 .data          0x00000000        0x0 c:/program files/microchip/xc32/v1.21/bin/../lib/gcc/pic32mx/4.5.2/../../../../pic32mx/lib/size\libpic32.a(xc32_uart.o)
 .bss           0x00000000        0x0 c:/program files/microchip/xc32/v1.21/bin/../lib/gcc/pic32mx/4.5.2/../../../../pic32mx/lib/size\libpic32.a(xc32_uart.o)
 .reginfo       0x00000000       0x18 c:/program files/microchip/xc32/v1.21/bin/../lib/gcc/pic32mx/4.5.2/../../../../pic32mx/lib/size\libpic32.a(xc32_uart.o)
 .pdr           0x00000000        0x0 c:/program files/microchip/xc32/v1.21/bin/../lib/gcc/pic32mx/4.5.2/../../../../pic32mx/lib/size\libpic32.a(xc32_uart.o)
 .text          0x00000000        0x0 c:/program files/microchip/xc32/v1.21/bin/../lib/gcc/pic32mx/4.5.2/../../../../pic32mx/lib/size\libc.a(_iob.o)
 .reginfo       0x00000000       0x18 c:/program files/microchip/xc32/v1.21/bin/../lib/gcc/pic32mx/4.5.2/../../../../pic32mx/lib/size\libc.a(_iob.o)
 .pdr           0x00000000        0x0 c:/program files/microchip/xc32/v1.21/bin/../lib/gcc/pic32mx/4.5.2/../../../../pic32mx/lib/size\libc.a(_iob.o)
 .sdata         0x00000000        0x4 c:/program files/microchip/xc32/v1.21/bin/../lib/gcc/pic32mx/4.5.2/../../../../pic32mx/lib/size\libc.a(_iob.o)
 .text          0x00000000        0x0 c:/program files/microchip/xc32/v1.21/bin/../lib/gcc/pic32mx/4.5.2/../../../../pic32mx/lib/size\libc.a(atoi.o)
 .data          0x00000000        0x0 c:/program files/microchip/xc32/v1.21/bin/../lib/gcc/pic32mx/4.5.2/../../../../pic32mx/lib/size\libc.a(atoi.o)
 .bss           0x00000000        0x0 c:/program files/microchip/xc32/v1.21/bin/../lib/gcc/pic32mx/4.5.2/../../../../pic32mx/lib/size\libc.a(atoi.o)
 .reginfo       0x00000000       0x18 c:/program files/microchip/xc32/v1.21/bin/../lib/gcc/pic32mx/4.5.2/../../../../pic32mx/lib/size\libc.a(atoi.o)
 .pdr           0x00000000       0x20 c:/program files/microchip/xc32/v1.21/bin/../lib/gcc/pic32mx/4.5.2/../../../../pic32mx/lib/size\libc.a(atoi.o)
 .text          0x00000000        0x0 c:/program files/microchip/xc32/v1.21/bin/../lib/gcc/pic32mx/4.5.2/../../../../pic32mx/lib/size\libc.a(atol.o)
 .data          0x00000000        0x0 c:/program files/microchip/xc32/v1.21/bin/../lib/gcc/pic32mx/4.5.2/../../../../pic32mx/lib/size\libc.a(atol.o)
 .bss           0x00000000        0x0 c:/program files/microchip/xc32/v1.21/bin/../lib/gcc/pic32mx/4.5.2/../../../../pic32mx/lib/size\libc.a(atol.o)
 .reginfo       0x00000000       0x18 c:/program files/microchip/xc32/v1.21/bin/../lib/gcc/pic32mx/4.5.2/../../../../pic32mx/lib/size\libc.a(atol.o)
 .pdr           0x00000000       0x20 c:/program files/microchip/xc32/v1.21/bin/../lib/gcc/pic32mx/4.5.2/../../../../pic32mx/lib/size\libc.a(atol.o)
 .text          0x00000000        0x0 c:/program files/microchip/xc32/v1.21/bin/../lib/gcc/pic32mx/4.5.2/../../../../pic32mx/lib/size\libc.a(calloc.o)
 .data          0x00000000        0x0 c:/program files/microchip/xc32/v1.21/bin/../lib/gcc/pic32mx/4.5.2/../../../../pic32mx/lib/size\libc.a(calloc.o)
 .bss           0x00000000        0x0 c:/program files/microchip/xc32/v1.21/bin/../lib/gcc/pic32mx/4.5.2/../../../../pic32mx/lib/size\libc.a(calloc.o)
 .reginfo       0x00000000       0x18 c:/program files/microchip/xc32/v1.21/bin/../lib/gcc/pic32mx/4.5.2/../../../../pic32mx/lib/size\libc.a(calloc.o)
 .pdr           0x00000000       0x20 c:/program files/microchip/xc32/v1.21/bin/../lib/gcc/pic32mx/4.5.2/../../../../pic32mx/lib/size\libc.a(calloc.o)
 .text          0x00000000        0x0 c:/program files/microchip/xc32/v1.21/bin/../lib/gcc/pic32mx/4.5.2/../../../../pic32mx/lib/size\libc.a(ctype.o)
 .data          0x00000000        0x0 c:/program files/microchip/xc32/v1.21/bin/../lib/gcc/pic32mx/4.5.2/../../../../pic32mx/lib/size\libc.a(ctype.o)
 .bss           0x00000000        0x0 c:/program files/microchip/xc32/v1.21/bin/../lib/gcc/pic32mx/4.5.2/../../../../pic32mx/lib/size\libc.a(ctype.o)
 .reginfo       0x00000000       0x18 c:/program files/microchip/xc32/v1.21/bin/../lib/gcc/pic32mx/4.5.2/../../../../pic32mx/lib/size\libc.a(ctype.o)
 .pdr           0x00000000        0x0 c:/program files/microchip/xc32/v1.21/bin/../lib/gcc/pic32mx/4.5.2/../../../../pic32mx/lib/size\libc.a(ctype.o)
 .text          0x00000000        0x0 c:/program files/microchip/xc32/v1.21/bin/../lib/gcc/pic32mx/4.5.2/../../../../pic32mx/lib/size\libc.a(malloc.o)
 .data          0x00000000        0x0 c:/program files/microchip/xc32/v1.21/bin/../lib/gcc/pic32mx/4.5.2/../../../../pic32mx/lib/size\libc.a(malloc.o)
 .reginfo       0x00000000       0x18 c:/program files/microchip/xc32/v1.21/bin/../lib/gcc/pic32mx/4.5.2/../../../../pic32mx/lib/size\libc.a(malloc.o)
 .pdr           0x00000000       0x60 c:/program files/microchip/xc32/v1.21/bin/../lib/gcc/pic32mx/4.5.2/../../../../pic32mx/lib/size\libc.a(malloc.o)
 .text          0x00000000        0x0 c:/program files/microchip/xc32/v1.21/bin/../lib/gcc/pic32mx/4.5.2/../../../../pic32mx/lib/size\libc.a(rand.o)
 .data          0x00000000        0x0 c:/program files/microchip/xc32/v1.21/bin/../lib/gcc/pic32mx/4.5.2/../../../../pic32mx/lib/size\libc.a(rand.o)
 .reginfo       0x00000000       0x18 c:/program files/microchip/xc32/v1.21/bin/../lib/gcc/pic32mx/4.5.2/../../../../pic32mx/lib/size\libc.a(rand.o)
 .pdr           0x00000000       0x40 c:/program files/microchip/xc32/v1.21/bin/../lib/gcc/pic32mx/4.5.2/../../../../pic32mx/lib/size\libc.a(rand.o)
 .text          0x00000000        0x0 c:/program files/microchip/xc32/v1.21/bin/../lib/gcc/pic32mx/4.5.2/../../../../pic32mx/lib/size\libc.a(setbuf.o)
 .data          0x00000000        0x0 c:/program files/microchip/xc32/v1.21/bin/../lib/gcc/pic32mx/4.5.2/../../../../pic32mx/lib/size\libc.a(setbuf.o)
 .bss           0x00000000        0x0 c:/program files/microchip/xc32/v1.21/bin/../lib/gcc/pic32mx/4.5.2/../../../../pic32mx/lib/size\libc.a(setbuf.o)
 .reginfo       0x00000000       0x18 c:/program files/microchip/xc32/v1.21/bin/../lib/gcc/pic32mx/4.5.2/../../../../pic32mx/lib/size\libc.a(setbuf.o)
 .pdr           0x00000000       0x40 c:/program files/microchip/xc32/v1.21/bin/../lib/gcc/pic32mx/4.5.2/../../../../pic32mx/lib/size\libc.a(setbuf.o)
 .text.setbuf   0x00000000       0x20 c:/program files/microchip/xc32/v1.21/bin/../lib/gcc/pic32mx/4.5.2/../../../../pic32mx/lib/size\libc.a(setbuf.o)
 .text          0x00000000        0x0 c:/program files/microchip/xc32/v1.21/bin/../lib/gcc/pic32mx/4.5.2/../../../../pic32mx/lib/size\libc.a(strcat.o)
 .data          0x00000000        0x0 c:/program files/microchip/xc32/v1.21/bin/../lib/gcc/pic32mx/4.5.2/../../../../pic32mx/lib/size\libc.a(strcat.o)
 .bss           0x00000000        0x0 c:/program files/microchip/xc32/v1.21/bin/../lib/gcc/pic32mx/4.5.2/../../../../pic32mx/lib/size\libc.a(strcat.o)
 .reginfo       0x00000000       0x18 c:/program files/microchip/xc32/v1.21/bin/../lib/gcc/pic32mx/4.5.2/../../../../pic32mx/lib/size\libc.a(strcat.o)
 .pdr           0x00000000       0x20 c:/program files/microchip/xc32/v1.21/bin/../lib/gcc/pic32mx/4.5.2/../../../../pic32mx/lib/size\libc.a(strcat.o)
 .text          0x00000000        0x0 c:/program files/microchip/xc32/v1.21/bin/../lib/gcc/pic32mx/4.5.2/../../../../pic32mx/lib/size\libc.a(strchr.o)
 .data          0x00000000        0x0 c:/program files/microchip/xc32/v1.21/bin/../lib/gcc/pic32mx/4.5.2/../../../../pic32mx/lib/size\libc.a(strchr.o)
 .bss           0x00000000        0x0 c:/program files/microchip/xc32/v1.21/bin/../lib/gcc/pic32mx/4.5.2/../../../../pic32mx/lib/size\libc.a(strchr.o)
 .reginfo       0x00000000       0x18 c:/program files/microchip/xc32/v1.21/bin/../lib/gcc/pic32mx/4.5.2/../../../../pic32mx/lib/size\libc.a(strchr.o)
 .pdr           0x00000000       0x20 c:/program files/microchip/xc32/v1.21/bin/../lib/gcc/pic32mx/4.5.2/../../../../pic32mx/lib/size\libc.a(strchr.o)
 .text          0x00000000        0x0 c:/program files/microchip/xc32/v1.21/bin/../lib/gcc/pic32mx/4.5.2/../../../../pic32mx/lib/size\libc.a(strncmp.o)
 .data          0x00000000        0x0 c:/program files/microchip/xc32/v1.21/bin/../lib/gcc/pic32mx/4.5.2/../../../../pic32mx/lib/size\libc.a(strncmp.o)
 .bss           0x00000000        0x0 c:/program files/microchip/xc32/v1.21/bin/../lib/gcc/pic32mx/4.5.2/../../../../pic32mx/lib/size\libc.a(strncmp.o)
 .reginfo       0x00000000       0x18 c:/program files/microchip/xc32/v1.21/bin/../lib/gcc/pic32mx/4.5.2/../../../../pic32mx/lib/size\libc.a(strncmp.o)
 .pdr           0x00000000       0x20 c:/program files/microchip/xc32/v1.21/bin/../lib/gcc/pic32mx/4.5.2/../../../../pic32mx/lib/size\libc.a(strncmp.o)
 .text          0x00000000        0x0 c:/program files/microchip/xc32/v1.21/bin/../lib/gcc/pic32mx/4.5.2/../../../../pic32mx/lib/size\libc.a(strncpy.o)
 .data          0x00000000        0x0 c:/program files/microchip/xc32/v1.21/bin/../lib/gcc/pic32mx/4.5.2/../../../../pic32mx/lib/size\libc.a(strncpy.o)
 .bss           0x00000000        0x0 c:/program files/microchip/xc32/v1.21/bin/../lib/gcc/pic32mx/4.5.2/../../../../pic32mx/lib/size\libc.a(strncpy.o)
 .reginfo       0x00000000       0x18 c:/program files/microchip/xc32/v1.21/bin/../lib/gcc/pic32mx/4.5.2/../../../../pic32mx/lib/size\libc.a(strncpy.o)
 .pdr           0x00000000       0x20 c:/program files/microchip/xc32/v1.21/bin/../lib/gcc/pic32mx/4.5.2/../../../../pic32mx/lib/size\libc.a(strncpy.o)
 .text          0x00000000        0x0 c:/program files/microchip/xc32/v1.21/bin/../lib/gcc/pic32mx/4.5.2/../../../../pic32mx/lib/size\libc.a(strrchr.o)
 .data          0x00000000        0x0 c:/program files/microchip/xc32/v1.21/bin/../lib/gcc/pic32mx/4.5.2/../../../../pic32mx/lib/size\libc.a(strrchr.o)
 .bss           0x00000000        0x0 c:/program files/microchip/xc32/v1.21/bin/../lib/gcc/pic32mx/4.5.2/../../../../pic32mx/lib/size\libc.a(strrchr.o)
 .reginfo       0x00000000       0x18 c:/program files/microchip/xc32/v1.21/bin/../lib/gcc/pic32mx/4.5.2/../../../../pic32mx/lib/size\libc.a(strrchr.o)
 .pdr           0x00000000       0x20 c:/program files/microchip/xc32/v1.21/bin/../lib/gcc/pic32mx/4.5.2/../../../../pic32mx/lib/size\libc.a(strrchr.o)
 .text.strrchr  0x00000000       0x4c c:/program files/microchip/xc32/v1.21/bin/../lib/gcc/pic32mx/4.5.2/../../../../pic32mx/lib/size\libc.a(strrchr.o)
 .text          0x00000000        0x0 c:/program files/microchip/xc32/v1.21/bin/../lib/gcc/pic32mx/4.5.2/../../../../pic32mx/lib/size\libc.a(strstr.o)
 .data          0x00000000        0x0 c:/program files/microchip/xc32/v1.21/bin/../lib/gcc/pic32mx/4.5.2/../../../../pic32mx/lib/size\libc.a(strstr.o)
 .bss           0x00000000        0x0 c:/program files/microchip/xc32/v1.21/bin/../lib/gcc/pic32mx/4.5.2/../../../../pic32mx/lib/size\libc.a(strstr.o)
 .reginfo       0x00000000       0x18 c:/program files/microchip/xc32/v1.21/bin/../lib/gcc/pic32mx/4.5.2/../../../../pic32mx/lib/size\libc.a(strstr.o)
 .pdr           0x00000000       0x20 c:/program files/microchip/xc32/v1.21/bin/../lib/gcc/pic32mx/4.5.2/../../../../pic32mx/lib/size\libc.a(strstr.o)
 .text          0x00000000        0x0 c:/program files/microchip/xc32/v1.21/bin/../lib/gcc/pic32mx/4.5.2/../../../../pic32mx/lib/size\libc.a(strtok.o)
 .data          0x00000000        0x0 c:/program files/microchip/xc32/v1.21/bin/../lib/gcc/pic32mx/4.5.2/../../../../pic32mx/lib/size\libc.a(strtok.o)
 .reginfo       0x00000000       0x18 c:/program files/microchip/xc32/v1.21/bin/../lib/gcc/pic32mx/4.5.2/../../../../pic32mx/lib/size\libc.a(strtok.o)
 .pdr           0x00000000       0x20 c:/program files/microchip/xc32/v1.21/bin/../lib/gcc/pic32mx/4.5.2/../../../../pic32mx/lib/size\libc.a(strtok.o)
 .text          0x00000000        0x0 c:/program files/microchip/xc32/v1.21/bin/../lib/gcc/pic32mx/4.5.2/../../../../pic32mx/lib/size\libc.a(snprintf_cdnopsuxX.eo)
 .data          0x00000000        0x0 c:/program files/microchip/xc32/v1.21/bin/../lib/gcc/pic32mx/4.5.2/../../../../pic32mx/lib/size\libc.a(snprintf_cdnopsuxX.eo)
 .bss           0x00000000        0x0 c:/program files/microchip/xc32/v1.21/bin/../lib/gcc/pic32mx/4.5.2/../../../../pic32mx/lib/size\libc.a(snprintf_cdnopsuxX.eo)
 .reginfo       0x00000000       0x18 c:/program files/microchip/xc32/v1.21/bin/../lib/gcc/pic32mx/4.5.2/../../../../pic32mx/lib/size\libc.a(snprintf_cdnopsuxX.eo)
 .pdr           0x00000000       0x20 c:/program files/microchip/xc32/v1.21/bin/../lib/gcc/pic32mx/4.5.2/../../../../pic32mx/lib/size\libc.a(snprintf_cdnopsuxX.eo)
 .text          0x00000000        0x0 c:/program files/microchip/xc32/v1.21/bin/../lib/gcc/pic32mx/4.5.2/../../../../pic32mx/lib/size\libc.a(sprintf_cdnopsuxX.eo)
 .data          0x00000000        0x0 c:/program files/microchip/xc32/v1.21/bin/../lib/gcc/pic32mx/4.5.2/../../../../pic32mx/lib/size\libc.a(sprintf_cdnopsuxX.eo)
 .bss           0x00000000        0x0 c:/program files/microchip/xc32/v1.21/bin/../lib/gcc/pic32mx/4.5.2/../../../../pic32mx/lib/size\libc.a(sprintf_cdnopsuxX.eo)
 .reginfo       0x00000000       0x18 c:/program files/microchip/xc32/v1.21/bin/../lib/gcc/pic32mx/4.5.2/../../../../pic32mx/lib/size\libc.a(sprintf_cdnopsuxX.eo)
 .pdr           0x00000000       0x20 c:/program files/microchip/xc32/v1.21/bin/../lib/gcc/pic32mx/4.5.2/../../../../pic32mx/lib/size\libc.a(sprintf_cdnopsuxX.eo)
 .text          0x00000000        0x0 c:/program files/microchip/xc32/v1.21/bin/../lib/gcc/pic32mx/4.5.2/../../../../pic32mx/lib/size\libc.a(vsnprintf_cdnopsuxX.eo)
 .data          0x00000000        0x0 c:/program files/microchip/xc32/v1.21/bin/../lib/gcc/pic32mx/4.5.2/../../../../pic32mx/lib/size\libc.a(vsnprintf_cdnopsuxX.eo)
 .bss           0x00000000        0x0 c:/program files/microchip/xc32/v1.21/bin/../lib/gcc/pic32mx/4.5.2/../../../../pic32mx/lib/size\libc.a(vsnprintf_cdnopsuxX.eo)
 .reginfo       0x00000000       0x18 c:/program files/microchip/xc32/v1.21/bin/../lib/gcc/pic32mx/4.5.2/../../../../pic32mx/lib/size\libc.a(vsnprintf_cdnopsuxX.eo)
 .pdr           0x00000000       0x20 c:/program files/microchip/xc32/v1.21/bin/../lib/gcc/pic32mx/4.5.2/../../../../pic32mx/lib/size\libc.a(vsnprintf_cdnopsuxX.eo)
 .text          0x00000000        0x0 c:/program files/microchip/xc32/v1.21/bin/../lib/gcc/pic32mx/4.5.2/../../../../pic32mx/lib/size\libc.a(vsnprintf.o)
 .data          0x00000000        0x0 c:/program files/microchip/xc32/v1.21/bin/../lib/gcc/pic32mx/4.5.2/../../../../pic32mx/lib/size\libc.a(vsnprintf.o)
 .bss           0x00000000        0x0 c:/program files/microchip/xc32/v1.21/bin/../lib/gcc/pic32mx/4.5.2/../../../../pic32mx/lib/size\libc.a(vsnprintf.o)
 .reginfo       0x00000000       0x18 c:/program files/microchip/xc32/v1.21/bin/../lib/gcc/pic32mx/4.5.2/../../../../pic32mx/lib/size\libc.a(vsnprintf.o)
 .pdr           0x00000000       0x20 c:/program files/microchip/xc32/v1.21/bin/../lib/gcc/pic32mx/4.5.2/../../../../pic32mx/lib/size\libc.a(vsnprintf.o)
 .text          0x00000000        0x0 c:/program files/microchip/xc32/v1.21/bin/../lib/gcc/pic32mx/4.5.2/../../../../pic32mx/lib/size\libc.a(buf.o)
 .data          0x00000000        0x0 c:/program files/microchip/xc32/v1.21/bin/../lib/gcc/pic32mx/4.5.2/../../../../pic32mx/lib/size\libc.a(buf.o)
 .reginfo       0x00000000       0x18 c:/program files/microchip/xc32/v1.21/bin/../lib/gcc/pic32mx/4.5.2/../../../../pic32mx/lib/size\libc.a(buf.o)
 .pdr           0x00000000       0x40 c:/program files/microchip/xc32/v1.21/bin/../lib/gcc/pic32mx/4.5.2/../../../../pic32mx/lib/size\libc.a(buf.o)
 .text          0x00000000        0x0 c:/program files/microchip/xc32/v1.21/bin/../lib/gcc/pic32mx/4.5.2/../../../../pic32mx/lib/size\libc.a(strcspn.o)
 .data          0x00000000        0x0 c:/program files/microchip/xc32/v1.21/bin/../lib/gcc/pic32mx/4.5.2/../../../../pic32mx/lib/size\libc.a(strcspn.o)
 .bss           0x00000000        0x0 c:/program files/microchip/xc32/v1.21/bin/../lib/gcc/pic32mx/4.5.2/../../../../pic32mx/lib/size\libc.a(strcspn.o)
 .reginfo       0x00000000       0x18 c:/program files/microchip/xc32/v1.21/bin/../lib/gcc/pic32mx/4.5.2/../../../../pic32mx/lib/size\libc.a(strcspn.o)
 .pdr           0x00000000       0x20 c:/program files/microchip/xc32/v1.21/bin/../lib/gcc/pic32mx/4.5.2/../../../../pic32mx/lib/size\libc.a(strcspn.o)
 .text          0x00000000        0x0 c:/program files/microchip/xc32/v1.21/bin/../lib/gcc/pic32mx/4.5.2/../../../../pic32mx/lib/size\libc.a(strspn.o)
 .data          0x00000000        0x0 c:/program files/microchip/xc32/v1.21/bin/../lib/gcc/pic32mx/4.5.2/../../../../pic32mx/lib/size\libc.a(strspn.o)
 .bss           0x00000000        0x0 c:/program files/microchip/xc32/v1.21/bin/../lib/gcc/pic32mx/4.5.2/../../../../pic32mx/lib/size\libc.a(strspn.o)
 .reginfo       0x00000000       0x18 c:/program files/microchip/xc32/v1.21/bin/../lib/gcc/pic32mx/4.5.2/../../../../pic32mx/lib/size\libc.a(strspn.o)
 .pdr           0x00000000       0x20 c:/program files/microchip/xc32/v1.21/bin/../lib/gcc/pic32mx/4.5.2/../../../../pic32mx/lib/size\libc.a(strspn.o)
 .text          0x00000000        0x0 c:/program files/microchip/xc32/v1.21/bin/../lib/gcc/pic32mx/4.5.2/../../../../pic32mx/lib/size\libc.a(doprnt_cdnopsuxX.eo)
 .data          0x00000000        0x0 c:/program files/microchip/xc32/v1.21/bin/../lib/gcc/pic32mx/4.5.2/../../../../pic32mx/lib/size\libc.a(doprnt_cdnopsuxX.eo)
 .bss           0x00000000        0x0 c:/program files/microchip/xc32/v1.21/bin/../lib/gcc/pic32mx/4.5.2/../../../../pic32mx/lib/size\libc.a(doprnt_cdnopsuxX.eo)
 .reginfo       0x00000000       0x18 c:/program files/microchip/xc32/v1.21/bin/../lib/gcc/pic32mx/4.5.2/../../../../pic32mx/lib/size\libc.a(doprnt_cdnopsuxX.eo)
 .pdr           0x00000000       0x20 c:/program files/microchip/xc32/v1.21/bin/../lib/gcc/pic32mx/4.5.2/../../../../pic32mx/lib/size\libc.a(doprnt_cdnopsuxX.eo)
 .text          0x00000000        0x0 c:/program files/microchip/xc32/v1.21/bin/../lib/gcc/pic32mx/4.5.2/../../../../pic32mx/lib/size\libc.a(doprnt.o)
 .data          0x00000000        0x0 c:/program files/microchip/xc32/v1.21/bin/../lib/gcc/pic32mx/4.5.2/../../../../pic32mx/lib/size\libc.a(doprnt.o)
 .bss           0x00000000        0x0 c:/program files/microchip/xc32/v1.21/bin/../lib/gcc/pic32mx/4.5.2/../../../../pic32mx/lib/size\libc.a(doprnt.o)
 .reginfo       0x00000000       0x18 c:/program files/microchip/xc32/v1.21/bin/../lib/gcc/pic32mx/4.5.2/../../../../pic32mx/lib/size\libc.a(doprnt.o)
 .pdr           0x00000000       0x60 c:/program files/microchip/xc32/v1.21/bin/../lib/gcc/pic32mx/4.5.2/../../../../pic32mx/lib/size\libc.a(doprnt.o)
 .text          0x00000000        0x0 c:/program files/microchip/xc32/v1.21/bin/../lib/gcc/pic32mx/4.5.2/../../../../pic32mx/lib/size\libc.a(_fputc_simple.o)
 .data          0x00000000        0x0 c:/program files/microchip/xc32/v1.21/bin/../lib/gcc/pic32mx/4.5.2/../../../../pic32mx/lib/size\libc.a(_fputc_simple.o)
 .bss           0x00000000        0x0 c:/program files/microchip/xc32/v1.21/bin/../lib/gcc/pic32mx/4.5.2/../../../../pic32mx/lib/size\libc.a(_fputc_simple.o)
 .reginfo       0x00000000       0x18 c:/program files/microchip/xc32/v1.21/bin/../lib/gcc/pic32mx/4.5.2/../../../../pic32mx/lib/size\libc.a(_fputc_simple.o)
 .pdr           0x00000000       0x20 c:/program files/microchip/xc32/v1.21/bin/../lib/gcc/pic32mx/4.5.2/../../../../pic32mx/lib/size\libc.a(_fputc_simple.o)
 .text          0x00000000        0x0 c:/program files/microchip/xc32/v1.21/bin/../lib/gcc/pic32mx/4.5.2/../../../../pic32mx/lib/size\libc.a(powersf.o)
 .data          0x00000000        0x0 c:/program files/microchip/xc32/v1.21/bin/../lib/gcc/pic32mx/4.5.2/../../../../pic32mx/lib/size\libc.a(powersf.o)
 .bss           0x00000000        0x0 c:/program files/microchip/xc32/v1.21/bin/../lib/gcc/pic32mx/4.5.2/../../../../pic32mx/lib/size\libc.a(powersf.o)
 .reginfo       0x00000000       0x18 c:/program files/microchip/xc32/v1.21/bin/../lib/gcc/pic32mx/4.5.2/../../../../pic32mx/lib/size\libc.a(powersf.o)
 .pdr           0x00000000        0x0 c:/program files/microchip/xc32/v1.21/bin/../lib/gcc/pic32mx/4.5.2/../../../../pic32mx/lib/size\libc.a(powersf.o)
 .text          0x00000000        0x0 c:/program files/microchip/xc32/v1.21/bin/../lib/gcc/pic32mx/4.5.2/../../../../pic32mx/lib/size\libc.a(_flsbuf_simple.o)
 .data          0x00000000        0x0 c:/program files/microchip/xc32/v1.21/bin/../lib/gcc/pic32mx/4.5.2/../../../../pic32mx/lib/size\libc.a(_flsbuf_simple.o)
 .bss           0x00000000        0x0 c:/program files/microchip/xc32/v1.21/bin/../lib/gcc/pic32mx/4.5.2/../../../../pic32mx/lib/size\libc.a(_flsbuf_simple.o)
 .reginfo       0x00000000       0x18 c:/program files/microchip/xc32/v1.21/bin/../lib/gcc/pic32mx/4.5.2/../../../../pic32mx/lib/size\libc.a(_flsbuf_simple.o)
 .pdr           0x00000000       0x20 c:/program files/microchip/xc32/v1.21/bin/../lib/gcc/pic32mx/4.5.2/../../../../pic32mx/lib/size\libc.a(_flsbuf_simple.o)
 .text          0x00000000        0x0 c:/program files/microchip/xc32/v1.21/bin/../lib/gcc/pic32mx/4.5.2/../../../../pic32mx/lib/size\libpic32.a(sbrk.o)
 .data          0x00000000        0x0 c:/program files/microchip/xc32/v1.21/bin/../lib/gcc/pic32mx/4.5.2/../../../../pic32mx/lib/size\libpic32.a(sbrk.o)
 .reginfo       0x00000000       0x18 c:/program files/microchip/xc32/v1.21/bin/../lib/gcc/pic32mx/4.5.2/../../../../pic32mx/lib/size\libpic32.a(sbrk.o)
 .pdr           0x00000000       0xa0 c:/program files/microchip/xc32/v1.21/bin/../lib/gcc/pic32mx/4.5.2/../../../../pic32mx/lib/size\libpic32.a(sbrk.o)
 .text.getpagesize
                0x00000000        0x8 c:/program files/microchip/xc32/v1.21/bin/../lib/gcc/pic32mx/4.5.2/../../../../pic32mx/lib/size\libpic32.a(sbrk.o)
 .text          0x00000000        0x0 c:/program files/microchip/xc32/v1.21/bin/../lib/gcc/pic32mx/4.5.2/../../../../pic32mx/lib/size\libpic32.a(write.o)
 .data          0x00000000        0x0 c:/program files/microchip/xc32/v1.21/bin/../lib/gcc/pic32mx/4.5.2/../../../../pic32mx/lib/size\libpic32.a(write.o)
 .bss           0x00000000        0x0 c:/program files/microchip/xc32/v1.21/bin/../lib/gcc/pic32mx/4.5.2/../../../../pic32mx/lib/size\libpic32.a(write.o)
 .reginfo       0x00000000       0x18 c:/program files/microchip/xc32/v1.21/bin/../lib/gcc/pic32mx/4.5.2/../../../../pic32mx/lib/size\libpic32.a(write.o)
 .pdr           0x00000000       0x20 c:/program files/microchip/xc32/v1.21/bin/../lib/gcc/pic32mx/4.5.2/../../../../pic32mx/lib/size\libpic32.a(write.o)
 .data          0x00000000        0x0 c:/program files/microchip/xc32/v1.21/bin/../lib/gcc/pic32mx/4.5.2/../../../../pic32mx/lib/size\libm.a(fpmod32.o)
 .bss           0x00000000        0x0 c:/program files/microchip/xc32/v1.21/bin/../lib/gcc/pic32mx/4.5.2/../../../../pic32mx/lib/size\libm.a(fpmod32.o)
 .reginfo       0x00000000       0x18 c:/program files/microchip/xc32/v1.21/bin/../lib/gcc/pic32mx/4.5.2/../../../../pic32mx/lib/size\libm.a(fpmod32.o)
 .pdr           0x00000000        0x0 c:/program files/microchip/xc32/v1.21/bin/../lib/gcc/pic32mx/4.5.2/../../../../pic32mx/lib/size\libm.a(fpmod32.o)
 .text          0x00000000        0x0 c:/program files/microchip/xc32/v1.21/bin/../lib/gcc/pic32mx/4.5.2/../../../../pic32mx/lib/size\libe.a(_floatdisf.o)
 .data          0x00000000        0x0 c:/program files/microchip/xc32/v1.21/bin/../lib/gcc/pic32mx/4.5.2/../../../../pic32mx/lib/size\libe.a(_floatdisf.o)
 .bss           0x00000000        0x0 c:/program files/microchip/xc32/v1.21/bin/../lib/gcc/pic32mx/4.5.2/../../../../pic32mx/lib/size\libe.a(_floatdisf.o)
 .reginfo       0x00000000       0x18 c:/program files/microchip/xc32/v1.21/bin/../lib/gcc/pic32mx/4.5.2/../../../../pic32mx/lib/size\libe.a(_floatdisf.o)
 .pdr           0x00000000       0x20 c:/program files/microchip/xc32/v1.21/bin/../lib/gcc/pic32mx/4.5.2/../../../../pic32mx/lib/size\libe.a(_floatdisf.o)
 .data          0x00000000        0x0 c:/program files/microchip/xc32/v1.21/bin/../lib/gcc/pic32mx/4.5.2/size\libgcc.a(_lshrdi3.o)
 .bss           0x00000000        0x0 c:/program files/microchip/xc32/v1.21/bin/../lib/gcc/pic32mx/4.5.2/size\libgcc.a(_lshrdi3.o)
 .reginfo       0x00000000       0x18 c:/program files/microchip/xc32/v1.21/bin/../lib/gcc/pic32mx/4.5.2/size\libgcc.a(_lshrdi3.o)
 .pdr           0x00000000       0x20 c:/program files/microchip/xc32/v1.21/bin/../lib/gcc/pic32mx/4.5.2/size\libgcc.a(_lshrdi3.o)
 .data          0x00000000        0x0 c:/program files/microchip/xc32/v1.21/bin/../lib/gcc/pic32mx/4.5.2/size\libgcc.a(_floatundisf.o)
 .bss           0x00000000        0x0 c:/program files/microchip/xc32/v1.21/bin/../lib/gcc/pic32mx/4.5.2/size\libgcc.a(_floatundisf.o)
 .reginfo       0x00000000       0x18 c:/program files/microchip/xc32/v1.21/bin/../lib/gcc/pic32mx/4.5.2/size\libgcc.a(_floatundisf.o)
 .pdr           0x00000000       0x20 c:/program files/microchip/xc32/v1.21/bin/../lib/gcc/pic32mx/4.5.2/size\libgcc.a(_floatundisf.o)
 .data          0x00000000        0x0 c:/program files/microchip/xc32/v1.21/bin/../lib/gcc/pic32mx/4.5.2/size\libgcc.a(_umoddi3.o)
 .bss           0x00000000        0x0 c:/program files/microchip/xc32/v1.21/bin/../lib/gcc/pic32mx/4.5.2/size\libgcc.a(_umoddi3.o)
 .reginfo       0x00000000       0x18 c:/program files/microchip/xc32/v1.21/bin/../lib/gcc/pic32mx/4.5.2/size\libgcc.a(_umoddi3.o)
 .pdr           0x00000000       0x20 c:/program files/microchip/xc32/v1.21/bin/../lib/gcc/pic32mx/4.5.2/size\libgcc.a(_umoddi3.o)

Memory Configuration

Name             Origin             Length             Attributes
kseg0_program_mem 0x9d000000         0x00080000         xr
kseg0_boot_mem   0x9fc00490         0x00000970
exception_mem    0x9fc01000         0x00001000
kseg1_boot_mem   0xbfc00000         0x00000490
debug_exec_mem   0xbfc02000         0x00000ff0
config3          0xbfc02ff0         0x00000004
config2          0xbfc02ff4         0x00000004
config1          0xbfc02ff8         0x00000004
config0          0xbfc02ffc         0x00000004
kseg1_data_mem   0xa0000000         0x00020000         w !x
sfrs             0xbf800000         0x00100000
configsfrs       0xbfc02ff0         0x00000010
*default*        0x00000000         0xffffffff

Linker script and memory map

LOAD c:/program files/microchip/xc32/v1.21/bin/../lib/gcc/pic32mx/4.5.2/../../../../pic32mx/lib/size/crt0.o
                0x00000001                _DEBUGGER = 0x1
LOAD build/default/debug/_ext/979510709/bsp.o
LOAD build/default/debug/_ext/101875047/lfsr.o
LOAD build/default/debug/_ext/101875047/hashes.o
LOAD build/default/debug/_ext/101875047/big_int.o
LOAD build/default/debug/_ext/101875047/big_int_helper_c32.o
LOAD build/default/debug/_ext/101875047/helpers.o
LOAD build/default/debug/_ext/1472/berkeley_tcp_client_demo.o
LOAD build/default/debug/_ext/1472/berkeley_tcp_server_demo.o
LOAD build/default/debug/_ext/1472/berkeley_udp_client_demo.o
LOAD build/default/debug/_ext/1472/generic_tcp_client.o
LOAD build/default/debug/_ext/1472/generic_tcp_server.o
LOAD build/default/debug/_ext/1472/ping_demo.o
LOAD build/default/debug/_ext/1472/smtp_demo.o
LOAD build/default/debug/_ext/365611741/system_services.o
LOAD build/default/debug/_ext/365611741/system_debug.o
LOAD build/default/debug/_ext/365611741/system_random.o
LOAD build/default/debug/_ext/365611741/system_command.o
LOAD build/default/debug/_ext/365611741/system_userio.o
LOAD build/default/debug/_ext/97638081/sys_fs.o
LOAD build/default/debug/_ext/97638081/mpfs2.o
LOAD build/default/debug/_ext/792872985/usart.o
LOAD build/default/debug/_ext/792872985/lcd.o
LOAD build/default/debug/_ext/792872985/drv_spi.o
LOAD build/default/debug/_ext/792872985/db_appio.o
LOAD build/default/debug/_ext/792872985/spi_ram.o
LOAD build/default/debug/_ext/792872985/spi_eeprom.o
LOAD build/default/debug/_ext/792872985/spi_flash.o
LOAD build/default/debug/_ext/792872985/drv_media.o
LOAD build/default/debug/_ext/427700826/tcpip_announce.o
LOAD build/default/debug/_ext/427700826/http2.o
LOAD build/default/debug/_ext/427700826/arcfour.o
LOAD build/default/debug/_ext/427700826/arp.o
LOAD build/default/debug/_ext/427700826/berkeley_api.o
LOAD build/default/debug/_ext/427700826/dhcp.o
LOAD build/default/debug/_ext/427700826/dhcps.o
LOAD build/default/debug/_ext/427700826/dns.o
LOAD build/default/debug/_ext/427700826/dnss.o
LOAD build/default/debug/_ext/427700826/dyn_dns.o
LOAD build/default/debug/_ext/427700826/enc28_mac.o
LOAD build/default/debug/_ext/427700826/enc28j60.o
LOAD build/default/debug/_ext/427700826/encs24j600.o
LOAD build/default/debug/_ext/427700826/encx24_mac.o
LOAD build/default/debug/_ext/427700826/eth_pic32_ext_phy.o
LOAD build/default/debug/_ext/427700826/eth_pic32_ext_phy_dp83848.o
LOAD build/default/debug/_ext/427700826/eth_pic32_int_mac.o
LOAD build/default/debug/_ext/427700826/ftp.o
LOAD build/default/debug/_ext/427700826/hash_fnv.o
LOAD build/default/debug/_ext/427700826/hash_tbl.o
LOAD build/default/debug/_ext/427700826/icmp.o
LOAD build/default/debug/_ext/427700826/icmpv6.o
LOAD build/default/debug/_ext/427700826/ipv4.o
LOAD build/default/debug/_ext/427700826/ipv6.o
LOAD build/default/debug/_ext/427700826/mac_events_pic32.o
LOAD build/default/debug/_ext/427700826/nbns.o
LOAD build/default/debug/_ext/427700826/ndp.o
LOAD build/default/debug/_ext/427700826/tcpip_reboot.o
LOAD build/default/debug/_ext/427700826/rsa.o
LOAD build/default/debug/_ext/427700826/smtp.o
LOAD build/default/debug/_ext/427700826/snmp.o
LOAD build/default/debug/_ext/427700826/snmpv3.o
LOAD build/default/debug/_ext/427700826/snmpv3_usm.o
LOAD build/default/debug/_ext/427700826/sntp.o
LOAD build/default/debug/_ext/427700826/ssl.o
LOAD build/default/debug/_ext/427700826/tcp.o
LOAD build/default/debug/_ext/427700826/tcpip_heap_alloc.o
LOAD build/default/debug/_ext/427700826/tcpip_storage.o
LOAD build/default/debug/_ext/427700826/telnet.o
LOAD build/default/debug/_ext/427700826/tftpc.o
LOAD build/default/debug/_ext/427700826/udp.o
LOAD build/default/debug/_ext/427700826/tcpip_mac_object.o
LOAD build/default/debug/_ext/427700826/tcpip_manager.o
LOAD build/default/debug/_ext/427700826/tcpip_helpers.o
LOAD build/default/debug/_ext/427700826/tcpip_commands.o
LOAD build/default/debug/_ext/427700826/iperf.o
LOAD build/default/debug/_ext/427700826/tcpip_helper_c32.o
LOAD build/default/debug/_ext/427700826/tcpip_notify.o
LOAD build/default/debug/_ext/427700826/zero_conf_helper.o
LOAD build/default/debug/_ext/427700826/zero_conf_link_local.o
LOAD build/default/debug/_ext/427700826/zero_conf_multicast_dns.o
LOAD build/default/debug/_ext/334706090/wf_tx_power.o
LOAD build/default/debug/_ext/334706090/wf_connect.o
LOAD build/default/debug/_ext/334706090/wf_connection_algorithm.o
LOAD build/default/debug/_ext/334706090/wf_connection_manager.o
LOAD build/default/debug/_ext/334706090/wf_connection_profile.o
LOAD build/default/debug/_ext/334706090/wf_easy_config.o
LOAD build/default/debug/_ext/334706090/wf_eint.o
LOAD build/default/debug/_ext/334706090/wf_event_handler.o
LOAD build/default/debug/_ext/334706090/wf_init.o
LOAD build/default/debug/_ext/334706090/wf_power_save.o
LOAD build/default/debug/_ext/334706090/wf_scan.o
LOAD build/default/debug/_ext/334706090/wf_spi.o
LOAD build/default/debug/_ext/334706090/mrf24w_mac_pic32.o
LOAD build/default/debug/_ext/334706090/mrf24w_events.o
LOAD build/default/debug/_ext/334706090/wf_debug_output.o
LOAD build/default/debug/_ext/334706090/wf_commands.o
LOAD build/default/debug/_ext/334706090/wf_pbkdf2.o
LOAD build/default/debug/_ext/334706090/wf_driver_com_24g.o
LOAD build/default/debug/_ext/334706090/wf_driver_raw_24g.o
LOAD build/default/debug/_ext/334706090/wf_mac_24g.o
LOAD build/default/debug/_ext/334706090/wf_mgmt_msg_24g.o
LOAD build/default/debug/_ext/334706090/wf_param_msg_24g.o
LOAD build/default/debug/_ext/334706090/wf_configData.o
LOAD build/default/debug/_ext/1472/main_demo.o
LOAD build/default/debug/_ext/1472/custom_snmp_app.o
LOAD build/default/debug/_ext/1472/custom_ssl_cert.o
LOAD build/default/debug/_ext/1472/mpfs_img2.o
LOAD build/default/debug/_ext/1472/wf_config.o
LOAD build/default/debug/_ext/1472/custom_http_app.o
                0x00000001                __MPLAB_BUILD = 0x1
                0x00000001                __ICD2RAM = 0x1
                0x00000001                __MPLAB_DEBUG = 0x1
                0x00000001                __DEBUG = 0x1
                0x00000001                __MPLAB_DEBUGGER_PIC32MXSK = 0x1
                0x0000a3e8                _min_heap_size = 0xa3e8
                0x00000800                _min_stack_size = 0x800
LOAD c:/program files/microchip/xc32/v1.21/bin/../lib/gcc/pic32mx/4.5.2/../../../../pic32mx/lib/./proc/32MX795F512L\default_isr_vectors.o
                0x00000400                PROVIDE (_min_stack_size, 0x400)
LOAD c:/program files/microchip/xc32/v1.21/bin/../lib/gcc/pic32mx/4.5.2/../../../../pic32mx/lib/./proc/32MX795F512L\processor.o
START GROUP
LOAD c:/program files/microchip/xc32/v1.21/bin/../lib/gcc/pic32mx/4.5.2/../../../../pic32mx/lib/size\libmchp_peripheral.a
END GROUP
START GROUP
LOAD c:/program files/microchip/xc32/v1.21/bin/../lib/gcc/pic32mx/4.5.2/../../../../pic32mx/lib/size\libmchp_peripheral_32MX795F512L.a
END GROUP
                0x00000001                PROVIDE (_vector_spacing, 0x1)
                0x9fc01000                _ebase_address = 0x9fc01000
                0xbfc00000                _RESET_ADDR = 0xbfc00000
                0xbfc00380                _BEV_EXCPT_ADDR = 0xbfc00380
                0xbfc00480                _DBG_EXCPT_ADDR = 0xbfc00480
                0xbfc02000                _DBG_CODE_ADDR = 0xbfc02000
                0x00000ff0                _DBG_CODE_SIZE = 0xff0
                0x9fc01180                _GEN_EXCPT_ADDR = (_ebase_address + 0x180)

.config_BFC02FF0
                0xbfc02ff0        0x4
 *(.config_BFC02FF0)
 .config_BFC02FF0
                0xbfc02ff0        0x4 build/default/debug/_ext/979510709/bsp.o

.config_BFC02FF4
                0xbfc02ff4        0x4
 *(.config_BFC02FF4)
 .config_BFC02FF4
                0xbfc02ff4        0x4 build/default/debug/_ext/979510709/bsp.o

.config_BFC02FF8
                0xbfc02ff8        0x4
 *(.config_BFC02FF8)
 .config_BFC02FF8
                0xbfc02ff8        0x4 build/default/debug/_ext/979510709/bsp.o

.config_BFC02FFC
                0xbfc02ffc        0x4
 *(.config_BFC02FFC)
 .config_BFC02FFC
                0xbfc02ffc        0x4 build/default/debug/_ext/979510709/bsp.o
                0xbfc02000                PROVIDE (_DBG_CODE_ADDR, 0xbfc02000)
                0x00000ff0                PROVIDE (_DBG_CODE_SIZE, 0xff0)

.reset          0xbfc00000      0x1f4
 *(.reset)
 .reset         0xbfc00000       0x10 c:/program files/microchip/xc32/v1.21/bin/../lib/gcc/pic32mx/4.5.2/../../../../pic32mx/lib/size/crt0.o
                0xbfc00000                _reset
 *(.reset.startup)
 .reset.startup
                0xbfc00010      0x1e4 c:/program files/microchip/xc32/v1.21/bin/../lib/gcc/pic32mx/4.5.2/../../../../pic32mx/lib/size/crt0.o

.bev_excpt      0xbfc00380       0x10
 *(.bev_handler)
 .bev_handler   0xbfc00380       0x10 c:/program files/microchip/xc32/v1.21/bin/../lib/gcc/pic32mx/4.5.2/../../../../pic32mx/lib/size/crt0.o

.dbg_excpt      0xbfc00480        0x8
                0xbfc00480                . = (. + DEFINED (_DEBUGGER)?0x8:0x0)
 *fill*         0xbfc00480        0x8 00

.dbg_code       0xbfc02000      0xff0
                0xbfc02000                . = (. + DEFINED (_DEBUGGER)?_DBG_CODE_SIZE:0x0)
 *fill*         0xbfc02000      0xff0 00

.app_excpt      0x9fc01180       0x10
 *(.gen_handler)
 .gen_handler   0x9fc01180       0x10 c:/program files/microchip/xc32/v1.21/bin/../lib/gcc/pic32mx/4.5.2/../../../../pic32mx/lib/size/crt0.o

.vector_0       0x9fc01200        0x8
 *(.vector_0)
 .vector_0      0x9fc01200        0x8 build/default/debug/_ext/365611741/system_services.o
                0x9fc01200                __vector_dispatch_0
                0x00000001                ASSERT (((_vector_spacing == 0x0) || (SIZEOF (.vector_0) <= (_vector_spacing << 0x5))), function at exception vector 0 too large)

.vector_1       0x9fc01220        0x8
 *(.vector_1)
 .vector_1      0x9fc01220        0x8 c:/program files/microchip/xc32/v1.21/bin/../lib/gcc/pic32mx/4.5.2/../../../../pic32mx/lib/size\libpic32.a(vector1.o)
                0x9fc01220                __vector_dispatch_1
                0x00000001                ASSERT (((_vector_spacing == 0x0) || (SIZEOF (.vector_1) <= (_vector_spacing << 0x5))), function at exception vector 1 too large)

.vector_2       0x9fc01240        0x8
 *(.vector_2)
 .vector_2      0x9fc01240        0x8 c:/program files/microchip/xc32/v1.21/bin/../lib/gcc/pic32mx/4.5.2/../../../../pic32mx/lib/size\libpic32.a(vector2.o)
                0x9fc01240                __vector_dispatch_2
                0x00000001                ASSERT (((_vector_spacing == 0x0) || (SIZEOF (.vector_2) <= (_vector_spacing << 0x5))), function at exception vector 2 too large)

.vector_3       0x9fc01260        0x8
 *(.vector_3)
 .vector_3      0x9fc01260        0x8 c:/program files/microchip/xc32/v1.21/bin/../lib/gcc/pic32mx/4.5.2/../../../../pic32mx/lib/size\libpic32.a(vector3.o)
                0x9fc01260                __vector_dispatch_3
                0x00000001                ASSERT (((_vector_spacing == 0x0) || (SIZEOF (.vector_3) <= (_vector_spacing << 0x5))), function at exception vector 3 too large)

.vector_4       0x9fc01280        0x8
 *(.vector_4)
 .vector_4      0x9fc01280        0x8 c:/program files/microchip/xc32/v1.21/bin/../lib/gcc/pic32mx/4.5.2/../../../../pic32mx/lib/size\libpic32.a(vector4.o)
                0x9fc01280                __vector_dispatch_4
                0x00000001                ASSERT (((_vector_spacing == 0x0) || (SIZEOF (.vector_4) <= (_vector_spacing << 0x5))), function at exception vector 4 too large)

.vector_5       0x9fc012a0        0x8
 *(.vector_5)
 .vector_5      0x9fc012a0        0x8 c:/program files/microchip/xc32/v1.21/bin/../lib/gcc/pic32mx/4.5.2/../../../../pic32mx/lib/size\libpic32.a(vector5.o)
                0x9fc012a0                __vector_dispatch_5
                0x00000001                ASSERT (((_vector_spacing == 0x0) || (SIZEOF (.vector_5) <= (_vector_spacing << 0x5))), function at exception vector 5 too large)

.vector_6       0x9fc012c0        0x8
 *(.vector_6)
 .vector_6      0x9fc012c0        0x8 c:/program files/microchip/xc32/v1.21/bin/../lib/gcc/pic32mx/4.5.2/../../../../pic32mx/lib/size\libpic32.a(vector6.o)
                0x9fc012c0                __vector_dispatch_6
                0x00000001                ASSERT (((_vector_spacing == 0x0) || (SIZEOF (.vector_6) <= (_vector_spacing << 0x5))), function at exception vector 6 too large)

.vector_7       0x9fc012e0        0x8
 *(.vector_7)
 .vector_7      0x9fc012e0        0x8 build/default/debug/_ext/365611741/system_services.o
                0x9fc012e0                __vector_dispatch_7
                0x00000001                ASSERT (((_vector_spacing == 0x0) || (SIZEOF (.vector_7) <= (_vector_spacing << 0x5))), function at exception vector 7 too large)

.vector_8       0x9fc01300        0x8
 *(.vector_8)
 .vector_8      0x9fc01300        0x8 c:/program files/microchip/xc32/v1.21/bin/../lib/gcc/pic32mx/4.5.2/../../../../pic32mx/lib/size\libpic32.a(vector8.o)
                0x9fc01300                __vector_dispatch_8
                0x00000001                ASSERT (((_vector_spacing == 0x0) || (SIZEOF (.vector_8) <= (_vector_spacing << 0x5))), function at exception vector 8 too large)

.vector_9       0x9fc01320        0x8
 *(.vector_9)
 .vector_9      0x9fc01320        0x8 c:/program files/microchip/xc32/v1.21/bin/../lib/gcc/pic32mx/4.5.2/../../../../pic32mx/lib/size\libpic32.a(vector9.o)
                0x9fc01320                __vector_dispatch_9
                0x00000001                ASSERT (((_vector_spacing == 0x0) || (SIZEOF (.vector_9) <= (_vector_spacing << 0x5))), function at exception vector 9 too large)

.vector_10      0x9fc01340        0x8
 *(.vector_10)
 .vector_10     0x9fc01340        0x8 c:/program files/microchip/xc32/v1.21/bin/../lib/gcc/pic32mx/4.5.2/../../../../pic32mx/lib/size\libpic32.a(vector10.o)
                0x9fc01340                __vector_dispatch_10
                0x00000001                ASSERT (((_vector_spacing == 0x0) || (SIZEOF (.vector_10) <= (_vector_spacing << 0x5))), function at exception vector 10 too large)

.vector_11      0x9fc01360        0x8
 *(.vector_11)
 .vector_11     0x9fc01360        0x8 c:/program files/microchip/xc32/v1.21/bin/../lib/gcc/pic32mx/4.5.2/../../../../pic32mx/lib/size\libpic32.a(vector11.o)
                0x9fc01360                __vector_dispatch_11
                0x00000001                ASSERT (((_vector_spacing == 0x0) || (SIZEOF (.vector_11) <= (_vector_spacing << 0x5))), function at exception vector 11 too large)

.vector_12      0x9fc01380        0x8
 *(.vector_12)
 .vector_12     0x9fc01380        0x8 c:/program files/microchip/xc32/v1.21/bin/../lib/gcc/pic32mx/4.5.2/../../../../pic32mx/lib/size\libpic32.a(vector12.o)
                0x9fc01380                __vector_dispatch_12
                0x00000001                ASSERT (((_vector_spacing == 0x0) || (SIZEOF (.vector_12) <= (_vector_spacing << 0x5))), function at exception vector 12 too large)

.vector_13      0x9fc013a0        0x8
 *(.vector_13)
 .vector_13     0x9fc013a0        0x8 c:/program files/microchip/xc32/v1.21/bin/../lib/gcc/pic32mx/4.5.2/../../../../pic32mx/lib/size\libpic32.a(vector13.o)
                0x9fc013a0                __vector_dispatch_13
                0x00000001                ASSERT (((_vector_spacing == 0x0) || (SIZEOF (.vector_13) <= (_vector_spacing << 0x5))), function at exception vector 13 too large)

.vector_14      0x9fc013c0        0x8
 *(.vector_14)
 .vector_14     0x9fc013c0        0x8 c:/program files/microchip/xc32/v1.21/bin/../lib/gcc/pic32mx/4.5.2/../../../../pic32mx/lib/size\libpic32.a(vector14.o)
                0x9fc013c0                __vector_dispatch_14
                0x00000001                ASSERT (((_vector_spacing == 0x0) || (SIZEOF (.vector_14) <= (_vector_spacing << 0x5))), function at exception vector 14 too large)

.vector_15      0x9fc013e0        0x8
 *(.vector_15)
 .vector_15     0x9fc013e0        0x8 build/default/debug/_ext/365611741/system_services.o
                0x9fc013e0                __vector_dispatch_15
                0x00000001                ASSERT (((_vector_spacing == 0x0) || (SIZEOF (.vector_15) <= (_vector_spacing << 0x5))), function at exception vector 15 too large)

.vector_16      0x9fc01400        0x8
 *(.vector_16)
 .vector_16     0x9fc01400        0x8 c:/program files/microchip/xc32/v1.21/bin/../lib/gcc/pic32mx/4.5.2/../../../../pic32mx/lib/size\libpic32.a(vector16.o)
                0x9fc01400                __vector_dispatch_16
                0x00000001                ASSERT (((_vector_spacing == 0x0) || (SIZEOF (.vector_16) <= (_vector_spacing << 0x5))), function at exception vector 16 too large)

.vector_17      0x9fc01420        0x8
 *(.vector_17)
 .vector_17     0x9fc01420        0x8 c:/program files/microchip/xc32/v1.21/bin/../lib/gcc/pic32mx/4.5.2/../../../../pic32mx/lib/size\libpic32.a(vector17.o)
                0x9fc01420                __vector_dispatch_17
                0x00000001                ASSERT (((_vector_spacing == 0x0) || (SIZEOF (.vector_17) <= (_vector_spacing << 0x5))), function at exception vector 17 too large)

.vector_18      0x9fc01440        0x8
 *(.vector_18)
 .vector_18     0x9fc01440        0x8 c:/program files/microchip/xc32/v1.21/bin/../lib/gcc/pic32mx/4.5.2/../../../../pic32mx/lib/size\libpic32.a(vector18.o)
                0x9fc01440                __vector_dispatch_18
                0x00000001                ASSERT (((_vector_spacing == 0x0) || (SIZEOF (.vector_18) <= (_vector_spacing << 0x5))), function at exception vector 18 too large)

.vector_19      0x9fc01460        0x8
 *(.vector_19)
 .vector_19     0x9fc01460        0x8 c:/program files/microchip/xc32/v1.21/bin/../lib/gcc/pic32mx/4.5.2/../../../../pic32mx/lib/size\libpic32.a(vector19.o)
                0x9fc01460                __vector_dispatch_19
                0x00000001                ASSERT (((_vector_spacing == 0x0) || (SIZEOF (.vector_19) <= (_vector_spacing << 0x5))), function at exception vector 19 too large)

.vector_20      0x9fc01480        0x8
 *(.vector_20)
 .vector_20     0x9fc01480        0x8 c:/program files/microchip/xc32/v1.21/bin/../lib/gcc/pic32mx/4.5.2/../../../../pic32mx/lib/size\libpic32.a(vector20.o)
                0x9fc01480                __vector_dispatch_20
                0x00000001                ASSERT (((_vector_spacing == 0x0) || (SIZEOF (.vector_20) <= (_vector_spacing << 0x5))), function at exception vector 20 too large)

.vector_21      0x9fc014a0        0x8
 *(.vector_21)
 .vector_21     0x9fc014a0        0x8 c:/program files/microchip/xc32/v1.21/bin/../lib/gcc/pic32mx/4.5.2/../../../../pic32mx/lib/size\libpic32.a(vector21.o)
                0x9fc014a0                __vector_dispatch_21
                0x00000001                ASSERT (((_vector_spacing == 0x0) || (SIZEOF (.vector_21) <= (_vector_spacing << 0x5))), function at exception vector 21 too large)

.vector_22      0x9fc014c0        0x8
 *(.vector_22)
 .vector_22     0x9fc014c0        0x8 c:/program files/microchip/xc32/v1.21/bin/../lib/gcc/pic32mx/4.5.2/../../../../pic32mx/lib/size\libpic32.a(vector22.o)
                0x9fc014c0                __vector_dispatch_22
                0x00000001                ASSERT (((_vector_spacing == 0x0) || (SIZEOF (.vector_22) <= (_vector_spacing << 0x5))), function at exception vector 22 too large)

.vector_23      0x9fc014e0        0x8
 *(.vector_23)
 .vector_23     0x9fc014e0        0x8 c:/program files/microchip/xc32/v1.21/bin/../lib/gcc/pic32mx/4.5.2/../../../../pic32mx/lib/size\libpic32.a(vector23.o)
                0x9fc014e0                __vector_dispatch_23
                0x00000001                ASSERT (((_vector_spacing == 0x0) || (SIZEOF (.vector_23) <= (_vector_spacing << 0x5))), function at exception vector 23 too large)

.vector_24      0x9fc01500        0x8
 *(.vector_24)
 .vector_24     0x9fc01500        0x8 c:/program files/microchip/xc32/v1.21/bin/../lib/gcc/pic32mx/4.5.2/../../../../pic32mx/lib/size\libpic32.a(vector24.o)
                0x9fc01500                __vector_dispatch_24
                0x00000001                ASSERT (((_vector_spacing == 0x0) || (SIZEOF (.vector_24) <= (_vector_spacing << 0x5))), function at exception vector 24 too large)

.vector_25      0x9fc01520        0x8
 *(.vector_25)
 .vector_25     0x9fc01520        0x8 c:/program files/microchip/xc32/v1.21/bin/../lib/gcc/pic32mx/4.5.2/../../../../pic32mx/lib/size\libpic32.a(vector25.o)
                0x9fc01520                __vector_dispatch_25
                0x00000001                ASSERT (((_vector_spacing == 0x0) || (SIZEOF (.vector_25) <= (_vector_spacing << 0x5))), function at exception vector 25 too large)

.vector_26      0x9fc01540        0x8
 *(.vector_26)
 .vector_26     0x9fc01540        0x8 build/default/debug/_ext/365611741/system_services.o
                0x9fc01540                __vector_dispatch_26
                0x00000001                ASSERT (((_vector_spacing == 0x0) || (SIZEOF (.vector_26) <= (_vector_spacing << 0x5))), function at exception vector 26 too large)

.vector_27      0x9fc01560        0x8
 *(.vector_27)
 .vector_27     0x9fc01560        0x8 c:/program files/microchip/xc32/v1.21/bin/../lib/gcc/pic32mx/4.5.2/../../../../pic32mx/lib/size\libpic32.a(vector27.o)
                0x9fc01560                __vector_dispatch_27
                0x00000001                ASSERT (((_vector_spacing == 0x0) || (SIZEOF (.vector_27) <= (_vector_spacing << 0x5))), function at exception vector 27 too large)

.vector_28      0x9fc01580        0x8
 *(.vector_28)
 .vector_28     0x9fc01580        0x8 c:/program files/microchip/xc32/v1.21/bin/../lib/gcc/pic32mx/4.5.2/../../../../pic32mx/lib/size\libpic32.a(vector28.o)
                0x9fc01580                __vector_dispatch_28
                0x00000001                ASSERT (((_vector_spacing == 0x0) || (SIZEOF (.vector_28) <= (_vector_spacing << 0x5))), function at exception vector 28 too large)

.vector_29      0x9fc015a0        0x8
 *(.vector_29)
 .vector_29     0x9fc015a0        0x8 c:/program files/microchip/xc32/v1.21/bin/../lib/gcc/pic32mx/4.5.2/../../../../pic32mx/lib/size\libpic32.a(vector29.o)
                0x9fc015a0                __vector_dispatch_29
                0x00000001                ASSERT (((_vector_spacing == 0x0) || (SIZEOF (.vector_29) <= (_vector_spacing << 0x5))), function at exception vector 29 too large)

.vector_30      0x9fc015c0        0x8
 *(.vector_30)
 .vector_30     0x9fc015c0        0x8 c:/program files/microchip/xc32/v1.21/bin/../lib/gcc/pic32mx/4.5.2/../../../../pic32mx/lib/size\libpic32.a(vector30.o)
                0x9fc015c0                __vector_dispatch_30
                0x00000001                ASSERT (((_vector_spacing == 0x0) || (SIZEOF (.vector_30) <= (_vector_spacing << 0x5))), function at exception vector 30 too large)

.vector_31      0x9fc015e0        0x8
 *(.vector_31)
 .vector_31     0x9fc015e0        0x8 c:/program files/microchip/xc32/v1.21/bin/../lib/gcc/pic32mx/4.5.2/../../../../pic32mx/lib/size\libpic32.a(vector31.o)
                0x9fc015e0                __vector_dispatch_31
                0x00000001                ASSERT (((_vector_spacing == 0x0) || (SIZEOF (.vector_31) <= (_vector_spacing << 0x5))), function at exception vector 31 too large)

.vector_32      0x9fc01600        0x8
 *(.vector_32)
 .vector_32     0x9fc01600        0x8 c:/program files/microchip/xc32/v1.21/bin/../lib/gcc/pic32mx/4.5.2/../../../../pic32mx/lib/size\libpic32.a(vector32.o)
                0x9fc01600                __vector_dispatch_32
                0x00000001                ASSERT (((_vector_spacing == 0x0) || (SIZEOF (.vector_32) <= (_vector_spacing << 0x5))), function at exception vector 32 too large)

.vector_33      0x9fc01620        0x8
 *(.vector_33)
 .vector_33     0x9fc01620        0x8 c:/program files/microchip/xc32/v1.21/bin/../lib/gcc/pic32mx/4.5.2/../../../../pic32mx/lib/size\libpic32.a(vector33.o)
                0x9fc01620                __vector_dispatch_33
                0x00000001                ASSERT (((_vector_spacing == 0x0) || (SIZEOF (.vector_33) <= (_vector_spacing << 0x5))), function at exception vector 33 too large)

.vector_34      0x9fc01640        0x8
 *(.vector_34)
 .vector_34     0x9fc01640        0x8 c:/program files/microchip/xc32/v1.21/bin/../lib/gcc/pic32mx/4.5.2/../../../../pic32mx/lib/size\libpic32.a(vector34.o)
                0x9fc01640                __vector_dispatch_34
                0x00000001                ASSERT (((_vector_spacing == 0x0) || (SIZEOF (.vector_34) <= (_vector_spacing << 0x5))), function at exception vector 34 too large)

.vector_35      0x9fc01660        0x8
 *(.vector_35)
 .vector_35     0x9fc01660        0x8 c:/program files/microchip/xc32/v1.21/bin/../lib/gcc/pic32mx/4.5.2/../../../../pic32mx/lib/size\libpic32.a(vector35.o)
                0x9fc01660                __vector_dispatch_35
                0x00000001                ASSERT (((_vector_spacing == 0x0) || (SIZEOF (.vector_35) <= (_vector_spacing << 0x5))), function at exception vector 35 too large)

.vector_36      0x9fc01680        0x8
 *(.vector_36)
 .vector_36     0x9fc01680        0x8 c:/program files/microchip/xc32/v1.21/bin/../lib/gcc/pic32mx/4.5.2/../../../../pic32mx/lib/size\libpic32.a(vector36.o)
                0x9fc01680                __vector_dispatch_36
                0x00000001                ASSERT (((_vector_spacing == 0x0) || (SIZEOF (.vector_36) <= (_vector_spacing << 0x5))), function at exception vector 36 too large)

.vector_37      0x9fc016a0        0x8
 *(.vector_37)
 .vector_37     0x9fc016a0        0x8 c:/program files/microchip/xc32/v1.21/bin/../lib/gcc/pic32mx/4.5.2/../../../../pic32mx/lib/size\libpic32.a(vector37.o)
                0x9fc016a0                __vector_dispatch_37
                0x00000001                ASSERT (((_vector_spacing == 0x0) || (SIZEOF (.vector_37) <= (_vector_spacing << 0x5))), function at exception vector 37 too large)

.vector_38      0x9fc016c0        0x8
 *(.vector_38)
 .vector_38     0x9fc016c0        0x8 c:/program files/microchip/xc32/v1.21/bin/../lib/gcc/pic32mx/4.5.2/../../../../pic32mx/lib/size\libpic32.a(vector38.o)
                0x9fc016c0                __vector_dispatch_38
                0x00000001                ASSERT (((_vector_spacing == 0x0) || (SIZEOF (.vector_38) <= (_vector_spacing << 0x5))), function at exception vector 38 too large)

.vector_39      0x9fc016e0        0x8
 *(.vector_39)
 .vector_39     0x9fc016e0        0x8 c:/program files/microchip/xc32/v1.21/bin/../lib/gcc/pic32mx/4.5.2/../../../../pic32mx/lib/size\libpic32.a(vector39.o)
                0x9fc016e0                __vector_dispatch_39
                0x00000001                ASSERT (((_vector_spacing == 0x0) || (SIZEOF (.vector_39) <= (_vector_spacing << 0x5))), function at exception vector 39 too large)

.vector_40      0x9fc01700        0x8
 *(.vector_40)
 .vector_40     0x9fc01700        0x8 c:/program files/microchip/xc32/v1.21/bin/../lib/gcc/pic32mx/4.5.2/../../../../pic32mx/lib/size\libpic32.a(vector40.o)
                0x9fc01700                __vector_dispatch_40
                0x00000001                ASSERT (((_vector_spacing == 0x0) || (SIZEOF (.vector_40) <= (_vector_spacing << 0x5))), function at exception vector 40 too large)

.vector_41      0x9fc01720        0x8
 *(.vector_41)
 .vector_41     0x9fc01720        0x8 c:/program files/microchip/xc32/v1.21/bin/../lib/gcc/pic32mx/4.5.2/../../../../pic32mx/lib/size\libpic32.a(vector41.o)
                0x9fc01720                __vector_dispatch_41
                0x00000001                ASSERT (((_vector_spacing == 0x0) || (SIZEOF (.vector_41) <= (_vector_spacing << 0x5))), function at exception vector 41 too large)

.vector_42      0x9fc01740        0x8
 *(.vector_42)
 .vector_42     0x9fc01740        0x8 c:/program files/microchip/xc32/v1.21/bin/../lib/gcc/pic32mx/4.5.2/../../../../pic32mx/lib/size\libpic32.a(vector42.o)
                0x9fc01740                __vector_dispatch_42
                0x00000001                ASSERT (((_vector_spacing == 0x0) || (SIZEOF (.vector_42) <= (_vector_spacing << 0x5))), function at exception vector 42 too large)

.vector_43      0x9fc01760        0x8
 *(.vector_43)
 .vector_43     0x9fc01760        0x8 c:/program files/microchip/xc32/v1.21/bin/../lib/gcc/pic32mx/4.5.2/../../../../pic32mx/lib/size\libpic32.a(vector43.o)
                0x9fc01760                __vector_dispatch_43
                0x00000001                ASSERT (((_vector_spacing == 0x0) || (SIZEOF (.vector_43) <= (_vector_spacing << 0x5))), function at exception vector 43 too large)

.vector_44      0x9fc01780        0x8
 *(.vector_44)
 .vector_44     0x9fc01780        0x8 c:/program files/microchip/xc32/v1.21/bin/../lib/gcc/pic32mx/4.5.2/../../../../pic32mx/lib/size\libpic32.a(vector44.o)
                0x9fc01780                __vector_dispatch_44
                0x00000001                ASSERT (((_vector_spacing == 0x0) || (SIZEOF (.vector_44) <= (_vector_spacing << 0x5))), function at exception vector 44 too large)

.vector_45      0x9fc017a0        0x8
 *(.vector_45)
 .vector_45     0x9fc017a0        0x8 c:/program files/microchip/xc32/v1.21/bin/../lib/gcc/pic32mx/4.5.2/../../../../pic32mx/lib/size\libpic32.a(vector45.o)
                0x9fc017a0                __vector_dispatch_45
                0x00000001                ASSERT (((_vector_spacing == 0x0) || (SIZEOF (.vector_45) <= (_vector_spacing << 0x5))), function at exception vector 45 too large)

.vector_46      0x9fc017c0        0x8
 *(.vector_46)
 .vector_46     0x9fc017c0        0x8 c:/program files/microchip/xc32/v1.21/bin/../lib/gcc/pic32mx/4.5.2/../../../../pic32mx/lib/size\libpic32.a(vector46.o)
                0x9fc017c0                __vector_dispatch_46
                0x00000001                ASSERT (((_vector_spacing == 0x0) || (SIZEOF (.vector_46) <= (_vector_spacing << 0x5))), function at exception vector 46 too large)

.vector_47      0x9fc017e0        0x8
 *(.vector_47)
 .vector_47     0x9fc017e0        0x8 c:/program files/microchip/xc32/v1.21/bin/../lib/gcc/pic32mx/4.5.2/../../../../pic32mx/lib/size\libpic32.a(vector47.o)
                0x9fc017e0                __vector_dispatch_47
                0x00000001                ASSERT (((_vector_spacing == 0x0) || (SIZEOF (.vector_47) <= (_vector_spacing << 0x5))), function at exception vector 47 too large)

.vector_48      0x9fc01800        0x8
 *(.vector_48)
 .vector_48     0x9fc01800        0x8 build/default/debug/_ext/365611741/system_services.o
                0x9fc01800                __vector_dispatch_48
                0x00000001                ASSERT (((_vector_spacing == 0x0) || (SIZEOF (.vector_48) <= (_vector_spacing << 0x5))), function at exception vector 48 too large)

.vector_49      0x9fc01820        0x8
 *(.vector_49)
 .vector_49     0x9fc01820        0x8 c:/program files/microchip/xc32/v1.21/bin/../lib/gcc/pic32mx/4.5.2/../../../../pic32mx/lib/size\libpic32.a(vector49.o)
                0x9fc01820                __vector_dispatch_49
                0x00000001                ASSERT (((_vector_spacing == 0x0) || (SIZEOF (.vector_49) <= (_vector_spacing << 0x5))), function at exception vector 49 too large)

.vector_50      0x9fc01840        0x8
 *(.vector_50)
 .vector_50     0x9fc01840        0x8 c:/program files/microchip/xc32/v1.21/bin/../lib/gcc/pic32mx/4.5.2/../../../../pic32mx/lib/size\libpic32.a(vector50.o)
                0x9fc01840                __vector_dispatch_50
                0x00000001                ASSERT (((_vector_spacing == 0x0) || (SIZEOF (.vector_50) <= (_vector_spacing << 0x5))), function at exception vector 50 too large)

.vector_51      0x9fc01860        0x8
 *(.vector_51)
 .vector_51     0x9fc01860        0x8 c:/program files/microchip/xc32/v1.21/bin/../lib/gcc/pic32mx/4.5.2/../../../../pic32mx/lib/size\libpic32.a(vector51.o)
                0x9fc01860                __vector_dispatch_51
                0x00000001                ASSERT (((_vector_spacing == 0x0) || (SIZEOF (.vector_51) <= (_vector_spacing << 0x5))), function at exception vector 51 too large)

.vector_52      0x9fc01880        0x8
 *(.vector_52)
 .vector_52     0x9fc01880        0x8 c:/program files/microchip/xc32/v1.21/bin/../lib/gcc/pic32mx/4.5.2/../../../../pic32mx/lib/size\libpic32.a(vector52.o)
                0x9fc01880                __vector_dispatch_52
                0x00000001                ASSERT (((_vector_spacing == 0x0) || (SIZEOF (.vector_52) <= (_vector_spacing << 0x5))), function at exception vector 52 too large)

.vector_53      0x9fc018a0        0x8
 *(.vector_53)
 .vector_53     0x9fc018a0        0x8 c:/program files/microchip/xc32/v1.21/bin/../lib/gcc/pic32mx/4.5.2/../../../../pic32mx/lib/size\libpic32.a(vector53.o)
                0x9fc018a0                __vector_dispatch_53
                0x00000001                ASSERT (((_vector_spacing == 0x0) || (SIZEOF (.vector_53) <= (_vector_spacing << 0x5))), function at exception vector 53 too large)

.vector_54      0x9fc018c0        0x8
 *(.vector_54)
 .vector_54     0x9fc018c0        0x8 c:/program files/microchip/xc32/v1.21/bin/../lib/gcc/pic32mx/4.5.2/../../../../pic32mx/lib/size\libpic32.a(vector54.o)
                0x9fc018c0                __vector_dispatch_54
                0x00000001                ASSERT (((_vector_spacing == 0x0) || (SIZEOF (.vector_54) <= (_vector_spacing << 0x5))), function at exception vector 54 too large)

.vector_55      0x9fc018e0        0x8
 *(.vector_55)
 .vector_55     0x9fc018e0        0x8 c:/program files/microchip/xc32/v1.21/bin/../lib/gcc/pic32mx/4.5.2/../../../../pic32mx/lib/size\libpic32.a(vector55.o)
                0x9fc018e0                __vector_dispatch_55
                0x00000001                ASSERT (((_vector_spacing == 0x0) || (SIZEOF (.vector_55) <= (_vector_spacing << 0x5))), function at exception vector 55 too large)

.vector_56      0x9fc01900        0x8
 *(.vector_56)
 .vector_56     0x9fc01900        0x8 c:/program files/microchip/xc32/v1.21/bin/../lib/gcc/pic32mx/4.5.2/../../../../pic32mx/lib/size\libpic32.a(vector56.o)
                0x9fc01900                __vector_dispatch_56
                0x00000001                ASSERT (((_vector_spacing == 0x0) || (SIZEOF (.vector_56) <= (_vector_spacing << 0x5))), function at exception vector 56 too large)

.vector_57      0x9fc01920        0x8
 *(.vector_57)
 .vector_57     0x9fc01920        0x8 c:/program files/microchip/xc32/v1.21/bin/../lib/gcc/pic32mx/4.5.2/../../../../pic32mx/lib/size\libpic32.a(vector57.o)
                0x9fc01920                __vector_dispatch_57
                0x00000001                ASSERT (((_vector_spacing == 0x0) || (SIZEOF (.vector_57) <= (_vector_spacing << 0x5))), function at exception vector 57 too large)

.vector_58      0x9fc01940        0x8
 *(.vector_58)
 .vector_58     0x9fc01940        0x8 c:/program files/microchip/xc32/v1.21/bin/../lib/gcc/pic32mx/4.5.2/../../../../pic32mx/lib/size\libpic32.a(vector58.o)
                0x9fc01940                __vector_dispatch_58
                0x00000001                ASSERT (((_vector_spacing == 0x0) || (SIZEOF (.vector_58) <= (_vector_spacing << 0x5))), function at exception vector 58 too large)

.vector_59      0x9fc01960        0x8
 *(.vector_59)
 .vector_59     0x9fc01960        0x8 c:/program files/microchip/xc32/v1.21/bin/../lib/gcc/pic32mx/4.5.2/../../../../pic32mx/lib/size\libpic32.a(vector59.o)
                0x9fc01960                __vector_dispatch_59
                0x00000001                ASSERT (((_vector_spacing == 0x0) || (SIZEOF (.vector_59) <= (_vector_spacing << 0x5))), function at exception vector 59 too large)

.vector_60      0x9fc01980        0x8
 *(.vector_60)
 .vector_60     0x9fc01980        0x8 c:/program files/microchip/xc32/v1.21/bin/../lib/gcc/pic32mx/4.5.2/../../../../pic32mx/lib/size\libpic32.a(vector60.o)
                0x9fc01980                __vector_dispatch_60
                0x00000001                ASSERT (((_vector_spacing == 0x0) || (SIZEOF (.vector_60) <= (_vector_spacing << 0x5))), function at exception vector 60 too large)

.vector_61      0x9fc019a0        0x8
 *(.vector_61)
 .vector_61     0x9fc019a0        0x8 c:/program files/microchip/xc32/v1.21/bin/../lib/gcc/pic32mx/4.5.2/../../../../pic32mx/lib/size\libpic32.a(vector61.o)
                0x9fc019a0                __vector_dispatch_61
                0x00000001                ASSERT (((_vector_spacing == 0x0) || (SIZEOF (.vector_61) <= (_vector_spacing << 0x5))), function at exception vector 61 too large)

.vector_62      0x9fc019c0        0x8
 *(.vector_62)
 .vector_62     0x9fc019c0        0x8 c:/program files/microchip/xc32/v1.21/bin/../lib/gcc/pic32mx/4.5.2/../../../../pic32mx/lib/size\libpic32.a(vector62.o)
                0x9fc019c0                __vector_dispatch_62
                0x00000001                ASSERT (((_vector_spacing == 0x0) || (SIZEOF (.vector_62) <= (_vector_spacing << 0x5))), function at exception vector 62 too large)

.vector_63      0x9fc019e0        0x8
 *(.vector_63)
 .vector_63     0x9fc019e0        0x8 c:/program files/microchip/xc32/v1.21/bin/../lib/gcc/pic32mx/4.5.2/../../../../pic32mx/lib/size\libpic32.a(vector63.o)
                0x9fc019e0                __vector_dispatch_63
                0x00000001                ASSERT (((_vector_spacing == 0x0) || (SIZEOF (.vector_63) <= (_vector_spacing << 0x5))), function at exception vector 63 too large)

.startup
 *(.startup)

.text           0x9d000000        0x0
 *(.stub .gnu.linkonce.t.*)
 *(.text.*personality*)
 *(.mips16.fn.*)
 *(.mips16.call.*)
 *(.gnu.warning)
                0x9d000000                . = ALIGN (0x4)

.init           0x9d000000        0x0
 *crti.o(.init)
 *crtbegin.o(.init)
 *(EXCLUDE_FILE(*crtn.o *crtend?.o *crtend.o) .init)
 *crtend.o(.init)
 *crtn.o(.init)
                0x9d000000                . = ALIGN (0x4)

.fini           0x9d000000        0x0
 *(.fini)
                0x9d000000                . = ALIGN (0x4)

.preinit_array  0x9d000000        0x0
                0x9d000000                PROVIDE (__preinit_array_start, .)
 *(.preinit_array)
                0x9d000000                PROVIDE (__preinit_array_end, .)
                0x9d000000                . = ALIGN (0x4)

.init_array     0x9d000000        0x0
                0x9d000000                PROVIDE (__init_array_start, .)
 *(SORT(.init_array.*))
 *(.init_array)
                0x9d000000                PROVIDE (__init_array_end, .)
                0x9d000000                . = ALIGN (0x4)

.fini_array     0x9d000000        0x0
                0x9d000000                PROVIDE (__fini_array_start, .)
 *(SORT(.fini_array.*))
 *(.fini_array)
                0x9d000000                PROVIDE (__fini_array_end, .)
                0x9d000000                . = ALIGN (0x4)

.ctors          0x9d000000        0x0
 *crtbegin.o(.ctors)
 *crtbegin?.o(.ctors)
 *(EXCLUDE_FILE(*crtend?.o *crtend.o) .ctors)
 *(SORT(.ctors.*))
 *(.ctors)
                0x9d000000                . = ALIGN (0x4)

.dtors          0x9d000000        0x0
 *crtbegin.o(.dtors)
 *crtbegin?.o(.dtors)
 *(EXCLUDE_FILE(*crtend?.o *crtend.o) .dtors)
 *(SORT(.dtors.*))
 *(.dtors)
                0x9d000000                . = ALIGN (0x4)

.rodata         0x9d000000        0x0
 *(.gnu.linkonce.r.*)
 *(.rodata1)
                0x9d000000                . = ALIGN (0x4)

.sdata2         0x9fc00490        0x0
 *(.sdata2 .sdata2.* .gnu.linkonce.s2.*)
                0x9fc00490                . = ALIGN (0x4)

.sbss2          0x9fc00490        0x0
 *(.sbss2 .sbss2.* .gnu.linkonce.sb2.*)
                0x9fc00490                . = ALIGN (0x4)

.eh_frame_hdr
 *(.eh_frame_hdr)
                0x9fc00490                . = ALIGN (0x4)

.eh_frame
 *(.eh_frame)
                0x9fc00490                . = ALIGN (0x4)

.gcc_except_table
 *(.gcc_except_table .gcc_except_table.*)
                0x9fc00490                . = ALIGN (0x4)

.dbg_data       0xa0000000      0x200
                0xa0000000                . = (. + DEFINED (_DEBUGGER)?0x200:0x0)
 *fill*         0xa0000000      0x200 00

.jcr            0xa0000200        0x0
 *(.jcr)
                0xa0000200                . = ALIGN (0x4)

.eh_frame       0xa0000200       0x30
 *(.eh_frame)
 .eh_frame      0xa0000200       0x20 c:/program files/microchip/xc32/v1.21/bin/../lib/gcc/pic32mx/4.5.2/size\libgcc.a(_udivdi3.o)
 .eh_frame      0xa0000220       0x10 c:/program files/microchip/xc32/v1.21/bin/../lib/gcc/pic32mx/4.5.2/size\libgcc.a(_umoddi3.o)
                0xa0000230                . = ALIGN (0x4)

.gcc_except_table
 *(.gcc_except_table .gcc_except_table.*)
                0xa0000230                . = ALIGN (0x4)

.persist        0xa0000230        0x0
                0xa0000230                _persist_begin = .
 *(.persist .persist.*)
 *(.pbss .pbss.*)
                0xa0000230                . = ALIGN (0x4)
                0xa0000230                _persist_end = .

.data           0xa0000230        0x0
 *(.gnu.linkonce.d.*)
 *(.data1)
                0xa0000230                . = ALIGN (0x4)
                0xa0000230                . = .
                0xa0008220                _gp = (ALIGN (0x10) + 0x7ff0)

.got            0xa0000230        0x0
 *(.got.plt)
 *(.got)
                0xa0000230                . = ALIGN (0x4)

.sdata          0xa0000230      0x288
                0xa0000230                _sdata_begin = .
 *(.sdata .sdata.* .gnu.linkonce.s.*)
 .sdata         0xa0000230        0x4 build/default/debug/_ext/101875047/lfsr.o
 .sdata         0xa0000234       0x1c build/default/debug/_ext/1472/generic_tcp_client.o
 .sdata         0xa0000250       0x50 build/default/debug/_ext/1472/smtp_demo.o
 .sdata         0xa00002a0        0x8 build/default/debug/_ext/365611741/system_services.o
                0xa00002a0                MEDIA_STORAGE_PARTITION_TABLE
 .sdata         0xa00002a8       0x70 build/default/debug/_ext/365611741/system_debug.o
 .sdata         0xa0000318       0x1c build/default/debug/_ext/792872985/usart.o
                0xa0000318                _usart_cdev_obj
 .sdata         0xa0000334       0x1c build/default/debug/_ext/792872985/db_appio.o
                0xa0000334                _dbappio_cdev_obj
 .sdata         0xa0000350       0x2c build/default/debug/_ext/792872985/drv_media.o
 .sdata         0xa000037c        0x8 build/default/debug/_ext/427700826/arp.o
 .sdata         0xa0000384        0x2 build/default/debug/_ext/427700826/dns.o
 .sdata         0xa0000386        0x2 build/default/debug/_ext/427700826/smtp.o
 .sdata         0xa0000388        0x4 build/default/debug/_ext/427700826/tcpip_heap_alloc.o
 .sdata         0xa000038c        0x8 build/default/debug/_ext/427700826/zero_conf_link_local.o
 .sdata         0xa0000394        0x1 build/default/debug/_ext/334706090/wf_connection_algorithm.o
 .sdata         0xa0000395        0x1 build/default/debug/_ext/334706090/wf_power_save.o
 *fill*         0xa0000396        0x2 00
 .sdata         0xa0000398        0xc build/default/debug/_ext/334706090/mrf24w_mac_pic32.o
 .sdata         0xa00003a4      0x100 build/default/debug/_ext/334706090/wf_debug_output.o
                0xa00003a4                connectionLostStrings
                0xa00003bc                wpsState
                0xa00003f8                wpsConfigErr
 .sdata         0xa00004a4        0x4 build/default/debug/_ext/334706090/wf_configData.o
                0xa00004a4                p_wifi_ConfigData
 .sdata         0xa00004a8        0xc build/default/debug/_ext/1472/mpfs_img2.o
                0xa00004a8                MPFS_IMAGE_PARTITION_INFO
 .sdata         0xa00004b4        0x4 c:/program files/microchip/xc32/v1.21/bin/../lib/gcc/pic32mx/4.5.2/../../../../pic32mx/lib/size\libpic32.a(xc32_uart.o)
                0xa00004b4                __XC_UART
                0xa00004b8                . = ALIGN (0x4)
                0xa00004b8                _sdata_end = .

.lit8
 *(.lit8)

.lit4
 *(.lit4)
                0xa00004b8                . = ALIGN (0x4)
                0xa00004b8                _data_end = .
                0xa00004b8                _bss_begin = .

.sbss           0xa00004b8      0x4fc
                0xa00004b8                _sbss_begin = .
 *(.dynsbss)
 *(.sbss .sbss.* .gnu.linkonce.sb.*)
 .sbss          0xa00004b8       0x10 build/default/debug/_ext/1472/generic_tcp_client.o
 .sbss          0xa00004c8        0x8 build/default/debug/_ext/1472/generic_tcp_server.o
 .sbss          0xa00004d0        0x8 build/default/debug/_ext/1472/smtp_demo.o
 .sbss          0xa00004d8       0x34 build/default/debug/_ext/365611741/system_services.o
                0xa00004d8                _SystemTickCount
                0xa00004dc                _SystemTickResolution
 .sbss          0xa000050c        0x8 build/default/debug/_ext/365611741/system_debug.o
 .sbss          0xa0000514       0x18 build/default/debug/_ext/365611741/system_random.o
 .sbss          0xa000052c       0x5c build/default/debug/_ext/365611741/system_command.o
 .sbss          0xa0000588       0x30 build/default/debug/_ext/365611741/system_userio.o
 .sbss          0xa00005b8       0x10 build/default/debug/_ext/97638081/sys_fs.o
 .sbss          0xa00005c8       0x24 build/default/debug/_ext/97638081/mpfs2.o
 .sbss          0xa00005ec       0x1c build/default/debug/_ext/792872985/drv_media.o
 .sbss          0xa0000608       0x1c build/default/debug/_ext/427700826/tcpip_announce.o
 .sbss          0xa0000624       0x14 build/default/debug/_ext/427700826/http2.o
 .sbss          0xa0000638       0x4c build/default/debug/_ext/427700826/arp.o
 .sbss          0xa0000684       0x20 build/default/debug/_ext/427700826/dhcp.o
 .sbss          0xa00006a4       0x3c build/default/debug/_ext/427700826/dns.o
 .sbss          0xa00006e0        0x8 build/default/debug/_ext/427700826/icmp.o
 .sbss          0xa00006e8       0x20 build/default/debug/_ext/427700826/ipv4.o
                0xa00006f8                ipv4QueuedPackets
 .sbss          0xa0000708        0x4 build/default/debug/_ext/427700826/mac_events_pic32.o
 .sbss          0xa000070c        0xc build/default/debug/_ext/427700826/nbns.o
 .sbss          0xa0000718       0x34 build/default/debug/_ext/427700826/rsa.o
 .sbss          0xa000074c       0x60 build/default/debug/_ext/427700826/smtp.o
 .sbss          0xa00007ac       0x10 build/default/debug/_ext/427700826/ssl.o
 .sbss          0xa00007bc       0x20 build/default/debug/_ext/427700826/tcp.o
 .sbss          0xa00007dc       0x28 build/default/debug/_ext/427700826/telnet.o
 .sbss          0xa0000804       0x18 build/default/debug/_ext/427700826/udp.o
                0xa0000804                UDPSocketDcpt
 .sbss          0xa000081c       0x3c build/default/debug/_ext/427700826/tcpip_manager.o
 .sbss          0xa0000858       0x14 build/default/debug/_ext/427700826/tcpip_commands.o
 .sbss          0xa000086c        0x8 build/default/debug/_ext/427700826/zero_conf_link_local.o
 .sbss          0xa0000874        0x8 build/default/debug/_ext/427700826/zero_conf_multicast_dns.o
 .sbss          0xa000087c        0x1 build/default/debug/_ext/334706090/wf_connection_manager.o
 .sbss          0xa000087d        0x1 build/default/debug/_ext/334706090/wf_connection_profile.o
 .sbss          0xa000087e        0x2 build/default/debug/_ext/334706090/wf_event_handler.o
                0xa000087e                g_DhcpRenew
                0xa000087f                g_asyncTaskFlags
 .sbss          0xa0000880        0x3 build/default/debug/_ext/334706090/wf_power_save.o
 .sbss          0xa0000883        0x1 build/default/debug/_ext/334706090/wf_spi.o
 .sbss          0xa0000884       0x18 build/default/debug/_ext/334706090/mrf24w_events.o
 .sbss          0xa000089c        0x1 build/default/debug/_ext/334706090/wf_debug_output.o
                0xa000089c                g_outputConnectionContext
 .sbss          0xa000089d        0x3 build/default/debug/_ext/334706090/wf_commands.o
                0xa000089d                g_hibernate_state
                0xa000089e                g_wakeup_notice
 .sbss          0xa00008a0       0x14 build/default/debug/_ext/334706090/wf_driver_com_24g.o
                0xa00008ad                g_DhcpSuccessful
                0xa00008ae                g_WiFiConnectionChanged
                0xa00008af                g_WiFiConnection
                0xa00008b0                g_dhcpInProgress
 .sbss          0xa00008b4        0x2 build/default/debug/_ext/334706090/wf_driver_raw_24g.o
                0xa00008b4                g_HostRAWDataPacketReceived
                0xa00008b5                g_RawIndexPastEnd
 *fill*         0xa00008b6        0x2 00
 .sbss          0xa00008b8        0xc build/default/debug/_ext/334706090/wf_mac_24g.o
 .sbss          0xa00008c4        0x3 build/default/debug/_ext/334706090/wf_mgmt_msg_24g.o
                0xa00008c5                g_WaitingForMgmtResponse
 *fill*         0xa00008c7        0x1 00
 .sbss          0xa00008c8       0x20 build/default/debug/_ext/1472/main_demo.o
                0xa00008c8                stackNotifyCnt
                0xa00008cc                stackTotEvents
                0xa00008d0                mrf_txEvents
                0xa00008d2                mrf_txEventInfo
                0xa00008d4                mrf_mgmtEvents
                0xa00008d6                mrf_mgmtEventInfo
                0xa00008d8                mrf_EventCnt
 .sbss          0xa00008e8       0x3c build/default/debug/_ext/1472/custom_http_app.o
 .sbss          0xa0000924       0x20 c:/program files/microchip/xc32/v1.21/bin/../lib/gcc/pic32mx/4.5.2/../../../../pic32mx/lib/size\libmchp_peripheral_32MX795F512L.a(eth_descriptors_add_lib.o)
                0xa0000924                _EthTxFreeList
                0xa000092c                _EthTxBusyList
                0xa0000934                _EthRxFreeList
                0xa000093c                _EthRxBusyList
 .sbss          0xa0000944        0x4 c:/program files/microchip/xc32/v1.21/bin/../lib/gcc/pic32mx/4.5.2/../../../../pic32mx/lib/size\libpic32.a(errno.o)
                0xa0000944                errno
 .sbss          0xa0000948        0x1 c:/program files/microchip/xc32/v1.21/bin/../lib/gcc/pic32mx/4.5.2/../../../../pic32mx/lib/size\libc.a(_iob.o)
                0xa0000948                _outdone
 *fill*         0xa0000949        0x3 00
 .sbss          0xa000094c       0x10 c:/program files/microchip/xc32/v1.21/bin/../lib/gcc/pic32mx/4.5.2/../../../../pic32mx/lib/size\libc.a(malloc.o)
                0xa000094c                __allocp
                0xa0000950                __alloct
                0xa0000954                __allocx
 .sbss          0xa000095c        0x8 c:/program files/microchip/xc32/v1.21/bin/../lib/gcc/pic32mx/4.5.2/../../../../pic32mx/lib/size\libpic32.a(sbrk.o)
                0xa000095c                _minbrk
                0xa0000960                _maxbrk
 *(.scommon)
 .scommon       0xa0000964       0x1e build/default/debug/_ext/1472/ping_demo.o
                0xa0000964                pNetIf
                0xa0000968                pingCount
                0xa000096c                targetAddressIPv4
                0xa0000970                pingTimer
                0xa0000974                firstHopAddress
                0xa0000978                targetHostName
                0xa000097c                targetMACAddr
 *fill*         0xa0000982        0x2 00
 .scommon       0xa0000984        0x4 build/default/debug/_ext/427700826/eth_pic32_ext_phy.o
                0xa0000984                _PhyAdd
 .scommon       0xa0000988        0x8 build/default/debug/_ext/334706090/wf_event_handler.o
                0xa0000988                g_softAPEvent
 .scommon       0xa0000990        0x6 build/default/debug/_ext/334706090/wf_power_save.o
                0xa0000990                g_savedPsPollContext
 *fill*         0xa0000996        0x2 00
 .scommon       0xa0000998        0x4 build/default/debug/_ext/334706090/wf_scan.o
                0xa0000998                hMac_softap_connect
 .scommon       0xa000099c        0x3 build/default/debug/_ext/334706090/wf_commands.o
                0xa000099c                iwconfigCb
 *fill*         0xa000099f        0x1 00
 .scommon       0xa00009a0        0x3 build/default/debug/_ext/334706090/wf_driver_com_24g.o
                0xa00009a0                RawMoveState
                0xa00009a2                g_powerSaveState
 *fill*         0xa00009a3        0x1 00
 .scommon       0xa00009a4        0x2 build/default/debug/_ext/334706090/wf_driver_raw_24g.o
                0xa00009a4                RawWindowState
 *fill*         0xa00009a6        0x2 00
 .scommon       0xa00009a8        0x6 build/default/debug/_ext/334706090/wf_mac_24g.o
                0xa00009a8                g_pNetIf
                0xa00009ac                g_rxBufferLength
 *fill*         0xa00009ae        0x2 00
 .scommon       0xa00009b0        0x4 build/default/debug/_ext/1472/main_demo.o
                0xa00009b0                stackNotifyHandle
                0xa00009b4                _sbss_end = .
                0xa00009b4                . = ALIGN (0x4)

.bss            0xa00009b4      0x10c
 *(.dynbss)
 *(COMMON)
 COMMON         0xa00009b4       0x40 build/default/debug/_ext/101875047/hashes.o
                0xa00009b4                lastBlock
 COMMON         0xa00009f4        0xa build/default/debug/_ext/427700826/tcpip_manager.o
                0xa00009f4                remoteNode
 *fill*         0xa00009fe        0x2 00
 COMMON         0xa0000a00       0x34 build/default/debug/_ext/427700826/iperf.o
                0xa0000a00                g_bfr
 COMMON         0xa0000a34       0x8a build/default/debug/_ext/334706090/wf_configData.o
                0xa0000a34                wifi_ConfigData
                0xa0000ac0                . = ALIGN ((. != 0x0)?0x4:0x1)
 *fill*         0xa0000abe        0x2 00
                0xa0000ac0                . = ALIGN (0x4)
                0xa0000ac0                _end = .
                0xa0000ac0                _bss_end = .
                0x00020000                _bmxdudba_address = 0x20000
                0x00020000                _bmxdupba_address = 0x20000

/DISCARD/
 *(.pdr)
 *(.rel.dyn)
 *(.note.GNU-stack)
 *(.note.GNU-stack)
 *(.gnu_debuglink)
 *(.gnu.lto_*)
 *(.discard)

.gptab.sdata
 *(.gptab.data)
 *(.gptab.sdata)

.gptab.sbss
 *(.gptab.bss)
 *(.gptab.sbss)

.mdebug.abi32   0xa0000ac0        0x0
 *(.mdebug.abi32)
 .mdebug.abi32  0xa0000ac0        0x0 build/default/debug/_ext/979510709/bsp.o
 .mdebug.abi32  0xa0000ac0        0x0 build/default/debug/_ext/101875047/lfsr.o
 .mdebug.abi32  0xa0000ac0        0x0 build/default/debug/_ext/101875047/hashes.o
 .mdebug.abi32  0xa0000ac0        0x0 build/default/debug/_ext/101875047/big_int.o
 .mdebug.abi32  0xa0000ac0        0x0 build/default/debug/_ext/101875047/helpers.o
 .mdebug.abi32  0xa0000ac0        0x0 build/default/debug/_ext/1472/berkeley_tcp_client_demo.o
 .mdebug.abi32  0xa0000ac0        0x0 build/default/debug/_ext/1472/berkeley_tcp_server_demo.o
 .mdebug.abi32  0xa0000ac0        0x0 build/default/debug/_ext/1472/berkeley_udp_client_demo.o
 .mdebug.abi32  0xa0000ac0        0x0 build/default/debug/_ext/1472/generic_tcp_client.o
 .mdebug.abi32  0xa0000ac0        0x0 build/default/debug/_ext/1472/generic_tcp_server.o
 .mdebug.abi32  0xa0000ac0        0x0 build/default/debug/_ext/1472/ping_demo.o
 .mdebug.abi32  0xa0000ac0        0x0 build/default/debug/_ext/1472/smtp_demo.o
 .mdebug.abi32  0xa0000ac0        0x0 build/default/debug/_ext/365611741/system_services.o
 .mdebug.abi32  0xa0000ac0        0x0 build/default/debug/_ext/365611741/system_debug.o
 .mdebug.abi32  0xa0000ac0        0x0 build/default/debug/_ext/365611741/system_random.o
 .mdebug.abi32  0xa0000ac0        0x0 build/default/debug/_ext/365611741/system_command.o
 .mdebug.abi32  0xa0000ac0        0x0 build/default/debug/_ext/365611741/system_userio.o
 .mdebug.abi32  0xa0000ac0        0x0 build/default/debug/_ext/97638081/sys_fs.o
 .mdebug.abi32  0xa0000ac0        0x0 build/default/debug/_ext/97638081/mpfs2.o
 .mdebug.abi32  0xa0000ac0        0x0 build/default/debug/_ext/792872985/usart.o
 .mdebug.abi32  0xa0000ac0        0x0 build/default/debug/_ext/792872985/lcd.o
 .mdebug.abi32  0xa0000ac0        0x0 build/default/debug/_ext/792872985/drv_spi.o
 .mdebug.abi32  0xa0000ac0        0x0 build/default/debug/_ext/792872985/db_appio.o
 .mdebug.abi32  0xa0000ac0        0x0 build/default/debug/_ext/792872985/spi_ram.o
 .mdebug.abi32  0xa0000ac0        0x0 build/default/debug/_ext/792872985/spi_eeprom.o
 .mdebug.abi32  0xa0000ac0        0x0 build/default/debug/_ext/792872985/spi_flash.o
 .mdebug.abi32  0xa0000ac0        0x0 build/default/debug/_ext/792872985/drv_media.o
 .mdebug.abi32  0xa0000ac0        0x0 build/default/debug/_ext/427700826/tcpip_announce.o
 .mdebug.abi32  0xa0000ac0        0x0 build/default/debug/_ext/427700826/http2.o
 .mdebug.abi32  0xa0000ac0        0x0 build/default/debug/_ext/427700826/arcfour.o
 .mdebug.abi32  0xa0000ac0        0x0 build/default/debug/_ext/427700826/arp.o
 .mdebug.abi32  0xa0000ac0        0x0 build/default/debug/_ext/427700826/berkeley_api.o
 .mdebug.abi32  0xa0000ac0        0x0 build/default/debug/_ext/427700826/dhcp.o
 .mdebug.abi32  0xa0000ac0        0x0 build/default/debug/_ext/427700826/dhcps.o
 .mdebug.abi32  0xa0000ac0        0x0 build/default/debug/_ext/427700826/dns.o
 .mdebug.abi32  0xa0000ac0        0x0 build/default/debug/_ext/427700826/dnss.o
 .mdebug.abi32  0xa0000ac0        0x0 build/default/debug/_ext/427700826/dyn_dns.o
 .mdebug.abi32  0xa0000ac0        0x0 build/default/debug/_ext/427700826/enc28_mac.o
 .mdebug.abi32  0xa0000ac0        0x0 build/default/debug/_ext/427700826/enc28j60.o
 .mdebug.abi32  0xa0000ac0        0x0 build/default/debug/_ext/427700826/encs24j600.o
 .mdebug.abi32  0xa0000ac0        0x0 build/default/debug/_ext/427700826/encx24_mac.o
 .mdebug.abi32  0xa0000ac0        0x0 build/default/debug/_ext/427700826/eth_pic32_ext_phy.o
 .mdebug.abi32  0xa0000ac0        0x0 build/default/debug/_ext/427700826/eth_pic32_ext_phy_dp83848.o
 .mdebug.abi32  0xa0000ac0        0x0 build/default/debug/_ext/427700826/eth_pic32_int_mac.o
 .mdebug.abi32  0xa0000ac0        0x0 build/default/debug/_ext/427700826/ftp.o
 .mdebug.abi32  0xa0000ac0        0x0 build/default/debug/_ext/427700826/hash_fnv.o
 .mdebug.abi32  0xa0000ac0        0x0 build/default/debug/_ext/427700826/hash_tbl.o
 .mdebug.abi32  0xa0000ac0        0x0 build/default/debug/_ext/427700826/icmp.o
 .mdebug.abi32  0xa0000ac0        0x0 build/default/debug/_ext/427700826/icmpv6.o
 .mdebug.abi32  0xa0000ac0        0x0 build/default/debug/_ext/427700826/ipv4.o
 .mdebug.abi32  0xa0000ac0        0x0 build/default/debug/_ext/427700826/ipv6.o
 .mdebug.abi32  0xa0000ac0        0x0 build/default/debug/_ext/427700826/mac_events_pic32.o
 .mdebug.abi32  0xa0000ac0        0x0 build/default/debug/_ext/427700826/nbns.o
 .mdebug.abi32  0xa0000ac0        0x0 build/default/debug/_ext/427700826/ndp.o
 .mdebug.abi32  0xa0000ac0        0x0 build/default/debug/_ext/427700826/tcpip_reboot.o
 .mdebug.abi32  0xa0000ac0        0x0 build/default/debug/_ext/427700826/rsa.o
 .mdebug.abi32  0xa0000ac0        0x0 build/default/debug/_ext/427700826/smtp.o
 .mdebug.abi32  0xa0000ac0        0x0 build/default/debug/_ext/427700826/snmp.o
 .mdebug.abi32  0xa0000ac0        0x0 build/default/debug/_ext/427700826/snmpv3.o
 .mdebug.abi32  0xa0000ac0        0x0 build/default/debug/_ext/427700826/snmpv3_usm.o
 .mdebug.abi32  0xa0000ac0        0x0 build/default/debug/_ext/427700826/sntp.o
 .mdebug.abi32  0xa0000ac0        0x0 build/default/debug/_ext/427700826/ssl.o
 .mdebug.abi32  0xa0000ac0        0x0 build/default/debug/_ext/427700826/tcp.o
 .mdebug.abi32  0xa0000ac0        0x0 build/default/debug/_ext/427700826/tcpip_heap_alloc.o
 .mdebug.abi32  0xa0000ac0        0x0 build/default/debug/_ext/427700826/tcpip_storage.o
 .mdebug.abi32  0xa0000ac0        0x0 build/default/debug/_ext/427700826/telnet.o
 .mdebug.abi32  0xa0000ac0        0x0 build/default/debug/_ext/427700826/tftpc.o
 .mdebug.abi32  0xa0000ac0        0x0 build/default/debug/_ext/427700826/udp.o
 .mdebug.abi32  0xa0000ac0        0x0 build/default/debug/_ext/427700826/tcpip_mac_object.o
 .mdebug.abi32  0xa0000ac0        0x0 build/default/debug/_ext/427700826/tcpip_manager.o
 .mdebug.abi32  0xa0000ac0        0x0 build/default/debug/_ext/427700826/tcpip_helpers.o
 .mdebug.abi32  0xa0000ac0        0x0 build/default/debug/_ext/427700826/tcpip_commands.o
 .mdebug.abi32  0xa0000ac0        0x0 build/default/debug/_ext/427700826/iperf.o
 .mdebug.abi32  0xa0000ac0        0x0 build/default/debug/_ext/427700826/tcpip_notify.o
 .mdebug.abi32  0xa0000ac0        0x0 build/default/debug/_ext/427700826/zero_conf_helper.o
 .mdebug.abi32  0xa0000ac0        0x0 build/default/debug/_ext/427700826/zero_conf_link_local.o
 .mdebug.abi32  0xa0000ac0        0x0 build/default/debug/_ext/427700826/zero_conf_multicast_dns.o
 .mdebug.abi32  0xa0000ac0        0x0 build/default/debug/_ext/334706090/wf_tx_power.o
 .mdebug.abi32  0xa0000ac0        0x0 build/default/debug/_ext/334706090/wf_connect.o
 .mdebug.abi32  0xa0000ac0        0x0 build/default/debug/_ext/334706090/wf_connection_algorithm.o
 .mdebug.abi32  0xa0000ac0        0x0 build/default/debug/_ext/334706090/wf_connection_manager.o
 .mdebug.abi32  0xa0000ac0        0x0 build/default/debug/_ext/334706090/wf_connection_profile.o
 .mdebug.abi32  0xa0000ac0        0x0 build/default/debug/_ext/334706090/wf_easy_config.o
 .mdebug.abi32  0xa0000ac0        0x0 build/default/debug/_ext/334706090/wf_eint.o
 .mdebug.abi32  0xa0000ac0        0x0 build/default/debug/_ext/334706090/wf_event_handler.o
 .mdebug.abi32  0xa0000ac0        0x0 build/default/debug/_ext/334706090/wf_init.o
 .mdebug.abi32  0xa0000ac0        0x0 build/default/debug/_ext/334706090/wf_power_save.o
 .mdebug.abi32  0xa0000ac0        0x0 build/default/debug/_ext/334706090/wf_scan.o
 .mdebug.abi32  0xa0000ac0        0x0 build/default/debug/_ext/334706090/wf_spi.o
 .mdebug.abi32  0xa0000ac0        0x0 build/default/debug/_ext/334706090/mrf24w_mac_pic32.o
 .mdebug.abi32  0xa0000ac0        0x0 build/default/debug/_ext/334706090/mrf24w_events.o
 .mdebug.abi32  0xa0000ac0        0x0 build/default/debug/_ext/334706090/wf_debug_output.o
 .mdebug.abi32  0xa0000ac0        0x0 build/default/debug/_ext/334706090/wf_commands.o
 .mdebug.abi32  0xa0000ac0        0x0 build/default/debug/_ext/334706090/wf_pbkdf2.o
 .mdebug.abi32  0xa0000ac0        0x0 build/default/debug/_ext/334706090/wf_driver_com_24g.o
 .mdebug.abi32  0xa0000ac0        0x0 build/default/debug/_ext/334706090/wf_driver_raw_24g.o
 .mdebug.abi32  0xa0000ac0        0x0 build/default/debug/_ext/334706090/wf_mac_24g.o
 .mdebug.abi32  0xa0000ac0        0x0 build/default/debug/_ext/334706090/wf_mgmt_msg_24g.o
 .mdebug.abi32  0xa0000ac0        0x0 build/default/debug/_ext/334706090/wf_param_msg_24g.o
 .mdebug.abi32  0xa0000ac0        0x0 build/default/debug/_ext/334706090/wf_configData.o
 .mdebug.abi32  0xa0000ac0        0x0 build/default/debug/_ext/1472/main_demo.o
 .mdebug.abi32  0xa0000ac0        0x0 build/default/debug/_ext/1472/custom_snmp_app.o
 .mdebug.abi32  0xa0000ac0        0x0 build/default/debug/_ext/1472/custom_ssl_cert.o
 .mdebug.abi32  0xa0000ac0        0x0 build/default/debug/_ext/1472/mpfs_img2.o
 .mdebug.abi32  0xa0000ac0        0x0 build/default/debug/_ext/1472/wf_config.o
 .mdebug.abi32  0xa0000ac0        0x0 build/default/debug/_ext/1472/custom_http_app.o
 .mdebug.abi32  0xa0000ac0        0x0 c:/program files/microchip/xc32/v1.21/bin/../lib/gcc/pic32mx/4.5.2/../../../../pic32mx/lib/size\libmchp_peripheral.a(open_core_timer_lib.o)
 .mdebug.abi32  0xa0000ac0        0x0 c:/program files/microchip/xc32/v1.21/bin/../lib/gcc/pic32mx/4.5.2/../../../../pic32mx/lib/size\libmchp_peripheral_32MX795F512L.a(eth_ack_packet_lib.o)
 .mdebug.abi32  0xa0000ac0        0x0 c:/program files/microchip/xc32/v1.21/bin/../lib/gcc/pic32mx/4.5.2/../../../../pic32mx/lib/size\libmchp_peripheral_32MX795F512L.a(eth_close_lib.o)
 .mdebug.abi32  0xa0000ac0        0x0 c:/program files/microchip/xc32/v1.21/bin/../lib/gcc/pic32mx/4.5.2/../../../../pic32mx/lib/size\libmchp_peripheral_32MX795F512L.a(eth_descriptors_add_lib.o)
 .mdebug.abi32  0xa0000ac0        0x0 c:/program files/microchip/xc32/v1.21/bin/../lib/gcc/pic32mx/4.5.2/../../../../pic32mx/lib/size\libmchp_peripheral_32MX795F512L.a(eth_descriptors_remove_lib.o)
 .mdebug.abi32  0xa0000ac0        0x0 c:/program files/microchip/xc32/v1.21/bin/../lib/gcc/pic32mx/4.5.2/../../../../pic32mx/lib/size\libmchp_peripheral_32MX795F512L.a(eth_events_lib.o)
 .mdebug.abi32  0xa0000ac0        0x0 c:/program files/microchip/xc32/v1.21/bin/../lib/gcc/pic32mx/4.5.2/../../../../pic32mx/lib/size\libmchp_peripheral_32MX795F512L.a(eth_init_lib.o)
 .mdebug.abi32  0xa0000ac0        0x0 c:/program files/microchip/xc32/v1.21/bin/../lib/gcc/pic32mx/4.5.2/../../../../pic32mx/lib/size\libmchp_peripheral_32MX795F512L.a(eth_mac_open_lib.o)
 .mdebug.abi32  0xa0000ac0        0x0 c:/program files/microchip/xc32/v1.21/bin/../lib/gcc/pic32mx/4.5.2/../../../../pic32mx/lib/size\libmchp_peripheral_32MX795F512L.a(eth_mac_set_address_max_lib.o)
 .mdebug.abi32  0xa0000ac0        0x0 c:/program files/microchip/xc32/v1.21/bin/../lib/gcc/pic32mx/4.5.2/../../../../pic32mx/lib/size\libmchp_peripheral_32MX795F512L.a(eth_rx_buffers_append_lib.o)
 .mdebug.abi32  0xa0000ac0        0x0 c:/program files/microchip/xc32/v1.21/bin/../lib/gcc/pic32mx/4.5.2/../../../../pic32mx/lib/size\libmchp_peripheral_32MX795F512L.a(eth_rx_filters_lib.o)
 .mdebug.abi32  0xa0000ac0        0x0 c:/program files/microchip/xc32/v1.21/bin/../lib/gcc/pic32mx/4.5.2/../../../../pic32mx/lib/size\libmchp_peripheral_32MX795F512L.a(eth_rx_get_packet_lib.o)
 .mdebug.abi32  0xa0000ac0        0x0 c:/program files/microchip/xc32/v1.21/bin/../lib/gcc/pic32mx/4.5.2/../../../../pic32mx/lib/size\libmchp_peripheral_32MX795F512L.a(eth_rx_set_buffer_size_lib.o)
 .mdebug.abi32  0xa0000ac0        0x0 c:/program files/microchip/xc32/v1.21/bin/../lib/gcc/pic32mx/4.5.2/../../../../pic32mx/lib/size\libmchp_peripheral_32MX795F512L.a(eth_tx_packet_lib.o)
 .mdebug.abi32  0xa0000ac0        0x0 c:/program files/microchip/xc32/v1.21/bin/../lib/gcc/pic32mx/4.5.2/../../../../pic32mx/lib/size\libmchp_peripheral_32MX795F512L.a(_eth_append_busy_list_lib.o)
 .mdebug.abi32  0xa0000ac0        0x0 c:/program files/microchip/xc32/v1.21/bin/../lib/gcc/pic32mx/4.5.2/../../../../pic32mx/lib/size\libmchp_peripheral_32MX795F512L.a(eth_miim_access.o)
 .mdebug.abi32  0xa0000ac0        0x0 c:/program files/microchip/xc32/v1.21/bin/../lib/gcc/pic32mx/4.5.2/../../../../pic32mx/lib/size\libmchp_peripheral_32MX795F512L.a(soft_reset_lib.o)
 .mdebug.abi32  0xa0000ac0        0x0 c:/program files/microchip/xc32/v1.21/bin/../lib/gcc/pic32mx/4.5.2/../../../../pic32mx/lib/size\libmchp_peripheral_32MX795F512L.a(pcache.o)
 .mdebug.abi32  0xa0000ac0        0x0 c:/program files/microchip/xc32/v1.21/bin/../lib/gcc/pic32mx/4.5.2/../../../../pic32mx/lib/size\libmchp_peripheral_32MX795F512L.a(int_disable_interrupts_lib.o)
 .mdebug.abi32  0xa0000ac0        0x0 c:/program files/microchip/xc32/v1.21/bin/../lib/gcc/pic32mx/4.5.2/../../../../pic32mx/lib/size\libmchp_peripheral_32MX795F512L.a(int_restore_interrupts_lib.o)
 .mdebug.abi32  0xa0000ac0        0x0 c:/program files/microchip/xc32/v1.21/bin/../lib/gcc/pic32mx/4.5.2/../../../../pic32mx/lib/size\libmchp_peripheral_32MX795F512L.a(int_enable_mv_int_lib.o)
 .mdebug.abi32  0xa0000ac0        0x0 c:/program files/microchip/xc32/v1.21/bin/../lib/gcc/pic32mx/4.5.2/../../../../pic32mx/lib/size\libmchp_peripheral_32MX795F512L.a(int_tbl_lib.o)
 .mdebug.abi32  0xa0000ac0        0x0 c:/program files/microchip/xc32/v1.21/bin/../lib/gcc/pic32mx/4.5.2/../../../../pic32mx/lib/size\libmchp_peripheral_32MX795F512L.a(rtcc_init_lib.o)
 .mdebug.abi32  0xa0000ac0        0x0 c:/program files/microchip/xc32/v1.21/bin/../lib/gcc/pic32mx/4.5.2/../../../../pic32mx/lib/size\libmchp_peripheral_32MX795F512L.a(rtcc_open_lib.o)
 .mdebug.abi32  0xa0000ac0        0x0 c:/program files/microchip/xc32/v1.21/bin/../lib/gcc/pic32mx/4.5.2/../../../../pic32mx/lib/size\libmchp_peripheral_32MX795F512L.a(spi_chn_data_rdy_lib.o)
 .mdebug.abi32  0xa0000ac0        0x0 c:/program files/microchip/xc32/v1.21/bin/../lib/gcc/pic32mx/4.5.2/../../../../pic32mx/lib/size\libmchp_peripheral_32MX795F512L.a(spi_chn_getc_lib.o)
 .mdebug.abi32  0xa0000ac0        0x0 c:/program files/microchip/xc32/v1.21/bin/../lib/gcc/pic32mx/4.5.2/../../../../pic32mx/lib/size\libmchp_peripheral_32MX795F512L.a(spi_chn_open_lib.o)
 .mdebug.abi32  0xa0000ac0        0x0 c:/program files/microchip/xc32/v1.21/bin/../lib/gcc/pic32mx/4.5.2/../../../../pic32mx/lib/size\libmchp_peripheral_32MX795F512L.a(spi_chn_putc_lib.o)
 .mdebug.abi32  0xa0000ac0        0x0 c:/program files/microchip/xc32/v1.21/bin/../lib/gcc/pic32mx/4.5.2/../../../../pic32mx/lib/size\libmchp_peripheral_32MX795F512L.a(spi_chn_tx_buff_empty_lib.o)
 .mdebug.abi32  0xa0000ac0        0x0 c:/program files/microchip/xc32/v1.21/bin/../lib/gcc/pic32mx/4.5.2/../../../../pic32mx/lib/size\libmchp_peripheral_32MX795F512L.a(spi_io_tbl_libp.o)
 .mdebug.abi32  0xa0000ac0        0x0 c:/program files/microchip/xc32/v1.21/bin/../lib/gcc/pic32mx/4.5.2/../../../../pic32mx/lib/size\libmchp_peripheral_32MX795F512L.a(spi_map_tbl_libp.o)
 .mdebug.abi32  0xa0000ac0        0x0 c:/program files/microchip/xc32/v1.21/bin/../lib/gcc/pic32mx/4.5.2/../../../../pic32mx/lib/size\libmchp_peripheral_32MX795F512L.a(port_set_pins_digital_in_lib.o)
 .mdebug.abi32  0xa0000ac0        0x0 c:/program files/microchip/xc32/v1.21/bin/../lib/gcc/pic32mx/4.5.2/../../../../pic32mx/lib/size\libmchp_peripheral_32MX795F512L.a(port_set_pins_digital_out_lib.o)
 .mdebug.abi32  0xa0000ac0        0x0 c:/program files/microchip/xc32/v1.21/bin/../lib/gcc/pic32mx/4.5.2/../../../../pic32mx/lib/size\libmchp_peripheral_32MX795F512L.a(_ports_tbl_libp.o)
 .mdebug.abi32  0xa0000ac0        0x0 c:/program files/microchip/xc32/v1.21/bin/../lib/gcc/pic32mx/4.5.2/../../../../pic32mx/lib/size\libmchp_peripheral_32MX795F512L.a(int_enable_interrupts_lib.o)
 .mdebug.abi32  0xa0000ac0        0x0 c:/program files/microchip/xc32/v1.21/bin/../lib/gcc/pic32mx/4.5.2/../../../../pic32mx/lib/size\libmchp_peripheral_32MX795F512L.a(_rtcc_wait_clock_off_lib.o)
 .mdebug.abi32  0xa0000ac0        0x0 c:/program files/microchip/xc32/v1.21/bin/../lib/gcc/pic32mx/4.5.2/../../../../pic32mx/lib/size\libmchp_peripheral_32MX795F512L.a(read_core_timer_lib.o)
 .mdebug.abi32  0xa0000ac0        0x0 c:/program files/microchip/xc32/v1.21/bin/../lib/gcc/pic32mx/4.5.2/size\libgcc.a(_udivdi3.o)
 .mdebug.abi32  0xa0000ac0        0x0 c:/program files/microchip/xc32/v1.21/bin/../lib/gcc/pic32mx/4.5.2/size\libgcc.a(floatunsisf.o)
 .mdebug.abi32  0xa0000ac0        0x0 c:/program files/microchip/xc32/v1.21/bin/../lib/gcc/pic32mx/4.5.2/../../../../pic32mx/lib/size\libpic32.a(default-bootstrap-exception-handler.o)
 .mdebug.abi32  0xa0000ac0        0x0 c:/program files/microchip/xc32/v1.21/bin/../lib/gcc/pic32mx/4.5.2/../../../../pic32mx/lib/size\libpic32.a(default-on-reset.o)
 .mdebug.abi32  0xa0000ac0        0x0 c:/program files/microchip/xc32/v1.21/bin/../lib/gcc/pic32mx/4.5.2/../../../../pic32mx/lib/size\libpic32.a(default-on-bootstrap.o)
 .mdebug.abi32  0xa0000ac0        0x0 c:/program files/microchip/xc32/v1.21/bin/../lib/gcc/pic32mx/4.5.2/../../../../pic32mx/lib/size\libpic32.a(errno.o)
 .mdebug.abi32  0xa0000ac0        0x0 c:/program files/microchip/xc32/v1.21/bin/../lib/gcc/pic32mx/4.5.2/../../../../pic32mx/lib/size\libpic32.a(defaultinterrupt.o)
 .mdebug.abi32  0xa0000ac0        0x0 c:/program files/microchip/xc32/v1.21/bin/../lib/gcc/pic32mx/4.5.2/../../../../pic32mx/lib/size\libdebug.a(db_utils.o)
 .mdebug.abi32  0xa0000ac0        0x0 c:/program files/microchip/xc32/v1.21/bin/../lib/gcc/pic32mx/4.5.2/../../../../pic32mx/lib/size\libpic32.a(xc32_uart.o)
 .mdebug.abi32  0xa0000ac0        0x0 c:/program files/microchip/xc32/v1.21/bin/../lib/gcc/pic32mx/4.5.2/../../../../pic32mx/lib/size\libc.a(_iob.o)
 .mdebug.abi32  0xa0000ac0        0x0 c:/program files/microchip/xc32/v1.21/bin/../lib/gcc/pic32mx/4.5.2/../../../../pic32mx/lib/size\libc.a(atoi.o)
 .mdebug.abi32  0xa0000ac0        0x0 c:/program files/microchip/xc32/v1.21/bin/../lib/gcc/pic32mx/4.5.2/../../../../pic32mx/lib/size\libc.a(atol.o)
 .mdebug.abi32  0xa0000ac0        0x0 c:/program files/microchip/xc32/v1.21/bin/../lib/gcc/pic32mx/4.5.2/../../../../pic32mx/lib/size\libc.a(calloc.o)
 .mdebug.abi32  0xa0000ac0        0x0 c:/program files/microchip/xc32/v1.21/bin/../lib/gcc/pic32mx/4.5.2/../../../../pic32mx/lib/size\libc.a(ctype.o)
 .mdebug.abi32  0xa0000ac0        0x0 c:/program files/microchip/xc32/v1.21/bin/../lib/gcc/pic32mx/4.5.2/../../../../pic32mx/lib/size\libc.a(malloc.o)
 .mdebug.abi32  0xa0000ac0        0x0 c:/program files/microchip/xc32/v1.21/bin/../lib/gcc/pic32mx/4.5.2/../../../../pic32mx/lib/size\libc.a(rand.o)
 .mdebug.abi32  0xa0000ac0        0x0 c:/program files/microchip/xc32/v1.21/bin/../lib/gcc/pic32mx/4.5.2/../../../../pic32mx/lib/size\libc.a(setbuf.o)
 .mdebug.abi32  0xa0000ac0        0x0 c:/program files/microchip/xc32/v1.21/bin/../lib/gcc/pic32mx/4.5.2/../../../../pic32mx/lib/size\libc.a(strcat.o)
 .mdebug.abi32  0xa0000ac0        0x0 c:/program files/microchip/xc32/v1.21/bin/../lib/gcc/pic32mx/4.5.2/../../../../pic32mx/lib/size\libc.a(strchr.o)
 .mdebug.abi32  0xa0000ac0        0x0 c:/program files/microchip/xc32/v1.21/bin/../lib/gcc/pic32mx/4.5.2/../../../../pic32mx/lib/size\libc.a(strncmp.o)
 .mdebug.abi32  0xa0000ac0        0x0 c:/program files/microchip/xc32/v1.21/bin/../lib/gcc/pic32mx/4.5.2/../../../../pic32mx/lib/size\libc.a(strncpy.o)
 .mdebug.abi32  0xa0000ac0        0x0 c:/program files/microchip/xc32/v1.21/bin/../lib/gcc/pic32mx/4.5.2/../../../../pic32mx/lib/size\libc.a(strrchr.o)
 .mdebug.abi32  0xa0000ac0        0x0 c:/program files/microchip/xc32/v1.21/bin/../lib/gcc/pic32mx/4.5.2/../../../../pic32mx/lib/size\libc.a(strstr.o)
 .mdebug.abi32  0xa0000ac0        0x0 c:/program files/microchip/xc32/v1.21/bin/../lib/gcc/pic32mx/4.5.2/../../../../pic32mx/lib/size\libc.a(strtok.o)
 .mdebug.abi32  0xa0000ac0        0x0 c:/program files/microchip/xc32/v1.21/bin/../lib/gcc/pic32mx/4.5.2/../../../../pic32mx/lib/size\libc.a(snprintf_cdnopsuxX.eo)
 .mdebug.abi32  0xa0000ac0        0x0 c:/program files/microchip/xc32/v1.21/bin/../lib/gcc/pic32mx/4.5.2/../../../../pic32mx/lib/size\libc.a(sprintf_cdnopsuxX.eo)
 .mdebug.abi32  0xa0000ac0        0x0 c:/program files/microchip/xc32/v1.21/bin/../lib/gcc/pic32mx/4.5.2/../../../../pic32mx/lib/size\libc.a(vsnprintf_cdnopsuxX.eo)
 .mdebug.abi32  0xa0000ac0        0x0 c:/program files/microchip/xc32/v1.21/bin/../lib/gcc/pic32mx/4.5.2/../../../../pic32mx/lib/size\libc.a(vsnprintf.o)
 .mdebug.abi32  0xa0000ac0        0x0 c:/program files/microchip/xc32/v1.21/bin/../lib/gcc/pic32mx/4.5.2/../../../../pic32mx/lib/size\libc.a(buf.o)
 .mdebug.abi32  0xa0000ac0        0x0 c:/program files/microchip/xc32/v1.21/bin/../lib/gcc/pic32mx/4.5.2/../../../../pic32mx/lib/size\libc.a(strcspn.o)
 .mdebug.abi32  0xa0000ac0        0x0 c:/program files/microchip/xc32/v1.21/bin/../lib/gcc/pic32mx/4.5.2/../../../../pic32mx/lib/size\libc.a(strspn.o)
 .mdebug.abi32  0xa0000ac0        0x0 c:/program files/microchip/xc32/v1.21/bin/../lib/gcc/pic32mx/4.5.2/../../../../pic32mx/lib/size\libc.a(doprnt_cdnopsuxX.eo)
 .mdebug.abi32  0xa0000ac0        0x0 c:/program files/microchip/xc32/v1.21/bin/../lib/gcc/pic32mx/4.5.2/../../../../pic32mx/lib/size\libc.a(doprnt.o)
 .mdebug.abi32  0xa0000ac0        0x0 c:/program files/microchip/xc32/v1.21/bin/../lib/gcc/pic32mx/4.5.2/../../../../pic32mx/lib/size\libc.a(_fputc_simple.o)
 .mdebug.abi32  0xa0000ac0        0x0 c:/program files/microchip/xc32/v1.21/bin/../lib/gcc/pic32mx/4.5.2/../../../../pic32mx/lib/size\libc.a(powersf.o)
 .mdebug.abi32  0xa0000ac0        0x0 c:/program files/microchip/xc32/v1.21/bin/../lib/gcc/pic32mx/4.5.2/../../../../pic32mx/lib/size\libc.a(_flsbuf_simple.o)
 .mdebug.abi32  0xa0000ac0        0x0 c:/program files/microchip/xc32/v1.21/bin/../lib/gcc/pic32mx/4.5.2/../../../../pic32mx/lib/size\libpic32.a(sbrk.o)
 .mdebug.abi32  0xa0000ac0        0x0 c:/program files/microchip/xc32/v1.21/bin/../lib/gcc/pic32mx/4.5.2/../../../../pic32mx/lib/size\libpic32.a(write.o)
 .mdebug.abi32  0xa0000ac0        0x0 c:/program files/microchip/xc32/v1.21/bin/../lib/gcc/pic32mx/4.5.2/../../../../pic32mx/lib/size\libe.a(_floatdisf.o)
 .mdebug.abi32  0xa0000ac0        0x0 c:/program files/microchip/xc32/v1.21/bin/../lib/gcc/pic32mx/4.5.2/size\libgcc.a(_lshrdi3.o)
 .mdebug.abi32  0xa0000ac0        0x0 c:/program files/microchip/xc32/v1.21/bin/../lib/gcc/pic32mx/4.5.2/size\libgcc.a(_floatundisf.o)
 .mdebug.abi32  0xa0000ac0        0x0 c:/program files/microchip/xc32/v1.21/bin/../lib/gcc/pic32mx/4.5.2/size\libgcc.a(_umoddi3.o)

.mdebug.abiN32
 *(.mdebug.abiN32)

.mdebug.abi64
 *(.mdebug.abi64)

.mdebug.abiO64
 *(.mdebug.abiO64)

.mdebug.eabi32
 *(.mdebug.eabi32)

.mdebug.eabi64
 *(.mdebug.eabi64)

.gcc_compiled_long32
 *(.gcc_compiled_long32)

.gcc_compiled_long64
 *(.gcc_compiled_long64)

.stab
 *(.stab)

.stabstr
 *(.stabstr)

.stab.excl
 *(.stab.excl)

.stab.exclstr
 *(.stab.exclstr)

.stab.index
 *(.stab.index)

.stab.indexstr
 *(.stab.indexstr)

.comment        0x00000000      0x266
 *(.comment)
 .comment       0x00000000       0x3c build/default/debug/_ext/979510709/bsp.o
                                 0x3d (size before relaxing)
 .comment       0x00000000       0x3d build/default/debug/_ext/101875047/lfsr.o
 .comment       0x00000000       0x3d build/default/debug/_ext/101875047/hashes.o
 .comment       0x00000000       0x3d build/default/debug/_ext/101875047/big_int.o
 .comment       0x00000000       0x3d build/default/debug/_ext/101875047/helpers.o
 .comment       0x00000000       0x3d build/default/debug/_ext/1472/berkeley_tcp_client_demo.o
 .comment       0x00000000       0x3d build/default/debug/_ext/1472/berkeley_tcp_server_demo.o
 .comment       0x00000000       0x3d build/default/debug/_ext/1472/berkeley_udp_client_demo.o
 .comment       0x00000000       0x3d build/default/debug/_ext/1472/generic_tcp_client.o
 .comment       0x00000000       0x3d build/default/debug/_ext/1472/generic_tcp_server.o
 .comment       0x00000000       0x3d build/default/debug/_ext/1472/ping_demo.o
 .comment       0x00000000       0x3d build/default/debug/_ext/1472/smtp_demo.o
 .comment       0x00000000       0x3d build/default/debug/_ext/365611741/system_services.o
 .comment       0x00000000       0x3d build/default/debug/_ext/365611741/system_debug.o
 .comment       0x00000000       0x3d build/default/debug/_ext/365611741/system_random.o
 .comment       0x00000000       0x3d build/default/debug/_ext/365611741/system_command.o
 .comment       0x00000000       0x3d build/default/debug/_ext/365611741/system_userio.o
 .comment       0x00000000       0x3d build/default/debug/_ext/97638081/sys_fs.o
 .comment       0x00000000       0x3d build/default/debug/_ext/97638081/mpfs2.o
 .comment       0x00000000       0x3d build/default/debug/_ext/792872985/usart.o
 .comment       0x00000000       0x3d build/default/debug/_ext/792872985/lcd.o
 .comment       0x00000000       0x3d build/default/debug/_ext/792872985/drv_spi.o
 .comment       0x00000000       0x3d build/default/debug/_ext/792872985/db_appio.o
 .comment       0x00000000       0x3d build/default/debug/_ext/792872985/spi_ram.o
 .comment       0x00000000       0x3d build/default/debug/_ext/792872985/spi_eeprom.o
 .comment       0x00000000       0x3d build/default/debug/_ext/792872985/spi_flash.o
 .comment       0x00000000       0x3d build/default/debug/_ext/792872985/drv_media.o
 .comment       0x00000000       0x3d build/default/debug/_ext/427700826/tcpip_announce.o
 .comment       0x00000000       0x3d build/default/debug/_ext/427700826/http2.o
 .comment       0x00000000       0x3d build/default/debug/_ext/427700826/arcfour.o
 .comment       0x00000000       0x3d build/default/debug/_ext/427700826/arp.o
 .comment       0x00000000       0x3d build/default/debug/_ext/427700826/berkeley_api.o
 .comment       0x00000000       0x3d build/default/debug/_ext/427700826/dhcp.o
 .comment       0x00000000       0x3d build/default/debug/_ext/427700826/dhcps.o
 .comment       0x00000000       0x3d build/default/debug/_ext/427700826/dns.o
 .comment       0x00000000       0x3d build/default/debug/_ext/427700826/dnss.o
 .comment       0x00000000       0x3d build/default/debug/_ext/427700826/dyn_dns.o
 .comment       0x00000000       0x3d build/default/debug/_ext/427700826/enc28_mac.o
 .comment       0x00000000       0x3d build/default/debug/_ext/427700826/enc28j60.o
 .comment       0x00000000       0x3d build/default/debug/_ext/427700826/encs24j600.o
 .comment       0x00000000       0x3d build/default/debug/_ext/427700826/encx24_mac.o
 .comment       0x00000000       0x3d build/default/debug/_ext/427700826/eth_pic32_ext_phy.o
 .comment       0x00000000       0x3d build/default/debug/_ext/427700826/eth_pic32_ext_phy_dp83848.o
 .comment       0x00000000       0x3d build/default/debug/_ext/427700826/eth_pic32_int_mac.o
 .comment       0x00000000       0x3d build/default/debug/_ext/427700826/ftp.o
 .comment       0x00000000       0x3d build/default/debug/_ext/427700826/hash_fnv.o
 .comment       0x00000000       0x3d build/default/debug/_ext/427700826/hash_tbl.o
 .comment       0x00000000       0x3d build/default/debug/_ext/427700826/icmp.o
 .comment       0x00000000       0x3d build/default/debug/_ext/427700826/icmpv6.o
 .comment       0x00000000       0x3d build/default/debug/_ext/427700826/ipv4.o
 .comment       0x00000000       0x3d build/default/debug/_ext/427700826/ipv6.o
 .comment       0x00000000       0x3d build/default/debug/_ext/427700826/mac_events_pic32.o
 .comment       0x00000000       0x3d build/default/debug/_ext/427700826/nbns.o
 .comment       0x00000000       0x3d build/default/debug/_ext/427700826/ndp.o
 .comment       0x00000000       0x3d build/default/debug/_ext/427700826/tcpip_reboot.o
 .comment       0x00000000       0x3d build/default/debug/_ext/427700826/rsa.o
 .comment       0x00000000       0x3d build/default/debug/_ext/427700826/smtp.o
 .comment       0x00000000       0x3d build/default/debug/_ext/427700826/snmp.o
 .comment       0x00000000       0x3d build/default/debug/_ext/427700826/snmpv3.o
 .comment       0x00000000       0x3d build/default/debug/_ext/427700826/snmpv3_usm.o
 .comment       0x00000000       0x3d build/default/debug/_ext/427700826/sntp.o
 .comment       0x00000000       0x3d build/default/debug/_ext/427700826/ssl.o
 .comment       0x00000000       0x3d build/default/debug/_ext/427700826/tcp.o
 .comment       0x00000000       0x3d build/default/debug/_ext/427700826/tcpip_heap_alloc.o
 .comment       0x00000000       0x3d build/default/debug/_ext/427700826/tcpip_storage.o
 .comment       0x00000000       0x3d build/default/debug/_ext/427700826/telnet.o
 .comment       0x00000000       0x3d build/default/debug/_ext/427700826/tftpc.o
 .comment       0x00000000       0x3d build/default/debug/_ext/427700826/udp.o
 .comment       0x00000000       0x3d build/default/debug/_ext/427700826/tcpip_mac_object.o
 .comment       0x00000000       0x3d build/default/debug/_ext/427700826/tcpip_manager.o
 .comment       0x00000000       0x3d build/default/debug/_ext/427700826/tcpip_helpers.o
 .comment       0x00000000       0x3d build/default/debug/_ext/427700826/tcpip_commands.o
 .comment       0x00000000       0x3d build/default/debug/_ext/427700826/iperf.o
 .comment       0x00000000       0x3d build/default/debug/_ext/427700826/tcpip_notify.o
 .comment       0x00000000       0x3d build/default/debug/_ext/427700826/zero_conf_helper.o
 .comment       0x00000000       0x3d build/default/debug/_ext/427700826/zero_conf_link_local.o
 .comment       0x00000000       0x3d build/default/debug/_ext/427700826/zero_conf_multicast_dns.o
 .comment       0x00000000       0x3d build/default/debug/_ext/334706090/wf_tx_power.o
 .comment       0x00000000       0x3d build/default/debug/_ext/334706090/wf_connect.o
 .comment       0x00000000       0x3d build/default/debug/_ext/334706090/wf_connection_algorithm.o
 .comment       0x00000000       0x3d build/default/debug/_ext/334706090/wf_connection_manager.o
 .comment       0x00000000       0x3d build/default/debug/_ext/334706090/wf_connection_profile.o
 .comment       0x00000000       0x3d build/default/debug/_ext/334706090/wf_easy_config.o
 .comment       0x00000000       0x3d build/default/debug/_ext/334706090/wf_eint.o
 .comment       0x00000000       0x3d build/default/debug/_ext/334706090/wf_event_handler.o
 .comment       0x00000000       0x3d build/default/debug/_ext/334706090/wf_init.o
 .comment       0x00000000       0x3d build/default/debug/_ext/334706090/wf_power_save.o
 .comment       0x00000000       0x3d build/default/debug/_ext/334706090/wf_scan.o
 .comment       0x00000000       0x3d build/default/debug/_ext/334706090/wf_spi.o
 .comment       0x00000000       0x3d build/default/debug/_ext/334706090/mrf24w_mac_pic32.o
 .comment       0x00000000       0x3d build/default/debug/_ext/334706090/mrf24w_events.o
 .comment       0x00000000       0x3d build/default/debug/_ext/334706090/wf_debug_output.o
 .comment       0x00000000       0x3d build/default/debug/_ext/334706090/wf_commands.o
 .comment       0x00000000       0x3d build/default/debug/_ext/334706090/wf_pbkdf2.o
 .comment       0x00000000       0x3d build/default/debug/_ext/334706090/wf_driver_com_24g.o
 .comment       0x00000000       0x3d build/default/debug/_ext/334706090/wf_driver_raw_24g.o
 .comment       0x00000000       0x3d build/default/debug/_ext/334706090/wf_mac_24g.o
 .comment       0x00000000       0x3d build/default/debug/_ext/334706090/wf_mgmt_msg_24g.o
 .comment       0x00000000       0x3d build/default/debug/_ext/334706090/wf_param_msg_24g.o
 .comment       0x00000000       0x3d build/default/debug/_ext/334706090/wf_configData.o
 .comment       0x00000000       0x3d build/default/debug/_ext/1472/main_demo.o
 .comment       0x00000000       0x3d build/default/debug/_ext/1472/custom_snmp_app.o
 .comment       0x00000000       0x3d build/default/debug/_ext/1472/custom_ssl_cert.o
 .comment       0x00000000       0x3d build/default/debug/_ext/1472/mpfs_img2.o
 .comment       0x00000000       0x3d build/default/debug/_ext/1472/wf_config.o
 .comment       0x00000000       0x3d build/default/debug/_ext/1472/custom_http_app.o
 .comment       0x0000003c       0x3c c:/program files/microchip/xc32/v1.21/bin/../lib/gcc/pic32mx/4.5.2/../../../../pic32mx/lib/size\libmchp_peripheral.a(open_core_timer_lib.o)
                                 0x3d (size before relaxing)
 .comment       0x00000000       0x3d c:/program files/microchip/xc32/v1.21/bin/../lib/gcc/pic32mx/4.5.2/../../../../pic32mx/lib/size\libmchp_peripheral_32MX795F512L.a(eth_ack_packet_lib.o)
 .comment       0x00000000       0x3d c:/program files/microchip/xc32/v1.21/bin/../lib/gcc/pic32mx/4.5.2/../../../../pic32mx/lib/size\libmchp_peripheral_32MX795F512L.a(eth_close_lib.o)
 .comment       0x00000000       0x3d c:/program files/microchip/xc32/v1.21/bin/../lib/gcc/pic32mx/4.5.2/../../../../pic32mx/lib/size\libmchp_peripheral_32MX795F512L.a(eth_descriptors_add_lib.o)
 .comment       0x00000000       0x3d c:/program files/microchip/xc32/v1.21/bin/../lib/gcc/pic32mx/4.5.2/../../../../pic32mx/lib/size\libmchp_peripheral_32MX795F512L.a(eth_descriptors_remove_lib.o)
 .comment       0x00000000       0x3d c:/program files/microchip/xc32/v1.21/bin/../lib/gcc/pic32mx/4.5.2/../../../../pic32mx/lib/size\libmchp_peripheral_32MX795F512L.a(eth_events_lib.o)
 .comment       0x00000000       0x3d c:/program files/microchip/xc32/v1.21/bin/../lib/gcc/pic32mx/4.5.2/../../../../pic32mx/lib/size\libmchp_peripheral_32MX795F512L.a(eth_init_lib.o)
 .comment       0x00000000       0x3d c:/program files/microchip/xc32/v1.21/bin/../lib/gcc/pic32mx/4.5.2/../../../../pic32mx/lib/size\libmchp_peripheral_32MX795F512L.a(eth_mac_open_lib.o)
 .comment       0x00000000       0x3d c:/program files/microchip/xc32/v1.21/bin/../lib/gcc/pic32mx/4.5.2/../../../../pic32mx/lib/size\libmchp_peripheral_32MX795F512L.a(eth_mac_set_address_max_lib.o)
 .comment       0x00000000       0x3d c:/program files/microchip/xc32/v1.21/bin/../lib/gcc/pic32mx/4.5.2/../../../../pic32mx/lib/size\libmchp_peripheral_32MX795F512L.a(eth_rx_buffers_append_lib.o)
 .comment       0x00000000       0x3d c:/program files/microchip/xc32/v1.21/bin/../lib/gcc/pic32mx/4.5.2/../../../../pic32mx/lib/size\libmchp_peripheral_32MX795F512L.a(eth_rx_filters_lib.o)
 .comment       0x00000000       0x3d c:/program files/microchip/xc32/v1.21/bin/../lib/gcc/pic32mx/4.5.2/../../../../pic32mx/lib/size\libmchp_peripheral_32MX795F512L.a(eth_rx_get_packet_lib.o)
 .comment       0x00000000       0x3d c:/program files/microchip/xc32/v1.21/bin/../lib/gcc/pic32mx/4.5.2/../../../../pic32mx/lib/size\libmchp_peripheral_32MX795F512L.a(eth_rx_set_buffer_size_lib.o)
 .comment       0x00000000       0x3d c:/program files/microchip/xc32/v1.21/bin/../lib/gcc/pic32mx/4.5.2/../../../../pic32mx/lib/size\libmchp_peripheral_32MX795F512L.a(eth_tx_packet_lib.o)
 .comment       0x00000000       0x3d c:/program files/microchip/xc32/v1.21/bin/../lib/gcc/pic32mx/4.5.2/../../../../pic32mx/lib/size\libmchp_peripheral_32MX795F512L.a(_eth_append_busy_list_lib.o)
 .comment       0x00000000       0x3d c:/program files/microchip/xc32/v1.21/bin/../lib/gcc/pic32mx/4.5.2/../../../../pic32mx/lib/size\libmchp_peripheral_32MX795F512L.a(eth_miim_access.o)
 .comment       0x00000000       0x3d c:/program files/microchip/xc32/v1.21/bin/../lib/gcc/pic32mx/4.5.2/../../../../pic32mx/lib/size\libmchp_peripheral_32MX795F512L.a(soft_reset_lib.o)
 .comment       0x00000000       0x3d c:/program files/microchip/xc32/v1.21/bin/../lib/gcc/pic32mx/4.5.2/../../../../pic32mx/lib/size\libmchp_peripheral_32MX795F512L.a(pcache.o)
 .comment       0x00000000       0x3d c:/program files/microchip/xc32/v1.21/bin/../lib/gcc/pic32mx/4.5.2/../../../../pic32mx/lib/size\libmchp_peripheral_32MX795F512L.a(int_disable_interrupts_lib.o)
 .comment       0x00000000       0x3d c:/program files/microchip/xc32/v1.21/bin/../lib/gcc/pic32mx/4.5.2/../../../../pic32mx/lib/size\libmchp_peripheral_32MX795F512L.a(int_restore_interrupts_lib.o)
 .comment       0x00000000       0x3d c:/program files/microchip/xc32/v1.21/bin/../lib/gcc/pic32mx/4.5.2/../../../../pic32mx/lib/size\libmchp_peripheral_32MX795F512L.a(int_enable_mv_int_lib.o)
 .comment       0x00000000       0x3d c:/program files/microchip/xc32/v1.21/bin/../lib/gcc/pic32mx/4.5.2/../../../../pic32mx/lib/size\libmchp_peripheral_32MX795F512L.a(int_tbl_lib.o)
 .comment       0x00000000       0x3d c:/program files/microchip/xc32/v1.21/bin/../lib/gcc/pic32mx/4.5.2/../../../../pic32mx/lib/size\libmchp_peripheral_32MX795F512L.a(rtcc_init_lib.o)
 .comment       0x00000000       0x3d c:/program files/microchip/xc32/v1.21/bin/../lib/gcc/pic32mx/4.5.2/../../../../pic32mx/lib/size\libmchp_peripheral_32MX795F512L.a(rtcc_open_lib.o)
 .comment       0x00000000       0x3d c:/program files/microchip/xc32/v1.21/bin/../lib/gcc/pic32mx/4.5.2/../../../../pic32mx/lib/size\libmchp_peripheral_32MX795F512L.a(spi_chn_data_rdy_lib.o)
 .comment       0x00000000       0x3d c:/program files/microchip/xc32/v1.21/bin/../lib/gcc/pic32mx/4.5.2/../../../../pic32mx/lib/size\libmchp_peripheral_32MX795F512L.a(spi_chn_getc_lib.o)
 .comment       0x00000000       0x3d c:/program files/microchip/xc32/v1.21/bin/../lib/gcc/pic32mx/4.5.2/../../../../pic32mx/lib/size\libmchp_peripheral_32MX795F512L.a(spi_chn_open_lib.o)
 .comment       0x00000000       0x3d c:/program files/microchip/xc32/v1.21/bin/../lib/gcc/pic32mx/4.5.2/../../../../pic32mx/lib/size\libmchp_peripheral_32MX795F512L.a(spi_chn_putc_lib.o)
 .comment       0x00000000       0x3d c:/program files/microchip/xc32/v1.21/bin/../lib/gcc/pic32mx/4.5.2/../../../../pic32mx/lib/size\libmchp_peripheral_32MX795F512L.a(spi_chn_tx_buff_empty_lib.o)
 .comment       0x00000000       0x3d c:/program files/microchip/xc32/v1.21/bin/../lib/gcc/pic32mx/4.5.2/../../../../pic32mx/lib/size\libmchp_peripheral_32MX795F512L.a(spi_io_tbl_libp.o)
 .comment       0x00000000       0x3d c:/program files/microchip/xc32/v1.21/bin/../lib/gcc/pic32mx/4.5.2/../../../../pic32mx/lib/size\libmchp_peripheral_32MX795F512L.a(spi_map_tbl_libp.o)
 .comment       0x00000000       0x3d c:/program files/microchip/xc32/v1.21/bin/../lib/gcc/pic32mx/4.5.2/../../../../pic32mx/lib/size\libmchp_peripheral_32MX795F512L.a(port_set_pins_digital_in_lib.o)
 .comment       0x00000000       0x3d c:/program files/microchip/xc32/v1.21/bin/../lib/gcc/pic32mx/4.5.2/../../../../pic32mx/lib/size\libmchp_peripheral_32MX795F512L.a(port_set_pins_digital_out_lib.o)
 .comment       0x00000000       0x3d c:/program files/microchip/xc32/v1.21/bin/../lib/gcc/pic32mx/4.5.2/../../../../pic32mx/lib/size\libmchp_peripheral_32MX795F512L.a(_ports_tbl_libp.o)
 .comment       0x00000000       0x3d c:/program files/microchip/xc32/v1.21/bin/../lib/gcc/pic32mx/4.5.2/../../../../pic32mx/lib/size\libmchp_peripheral_32MX795F512L.a(int_enable_interrupts_lib.o)
 .comment       0x00000000       0x3d c:/program files/microchip/xc32/v1.21/bin/../lib/gcc/pic32mx/4.5.2/../../../../pic32mx/lib/size\libmchp_peripheral_32MX795F512L.a(_rtcc_wait_clock_off_lib.o)
 .comment       0x00000000       0x3d c:/program files/microchip/xc32/v1.21/bin/../lib/gcc/pic32mx/4.5.2/../../../../pic32mx/lib/size\libmchp_peripheral_32MX795F512L.a(read_core_timer_lib.o)
 .comment       0x00000000       0x3d c:/program files/microchip/xc32/v1.21/bin/../lib/gcc/pic32mx/4.5.2/size\libgcc.a(_udivdi3.o)
 .comment       0x00000000       0x3d c:/program files/microchip/xc32/v1.21/bin/../lib/gcc/pic32mx/4.5.2/size\libgcc.a(floatunsisf.o)
 .comment       0x00000078       0x18 c:/program files/microchip/xc32/v1.21/bin/../lib/gcc/pic32mx/4.5.2/../../../../pic32mx/lib/size\libpic32.a(memcmp.o)
                                 0x19 (size before relaxing)
 .comment       0x00000090       0x18 c:/program files/microchip/xc32/v1.21/bin/../lib/gcc/pic32mx/4.5.2/../../../../pic32mx/lib/size\libpic32.a(memset.o)
                                 0x19 (size before relaxing)
 .comment       0x000000a8       0x55 c:/program files/microchip/xc32/v1.21/bin/../lib/gcc/pic32mx/4.5.2/../../../../pic32mx/lib/size\libpic32.a(strcmp.o)
                                 0x56 (size before relaxing)
 .comment       0x000000fd       0x19 c:/program files/microchip/xc32/v1.21/bin/../lib/gcc/pic32mx/4.5.2/../../../../pic32mx/lib/size\libpic32.a(strcpy.o)
                                 0x1a (size before relaxing)
 .comment       0x00000116       0x19 c:/program files/microchip/xc32/v1.21/bin/../lib/gcc/pic32mx/4.5.2/../../../../pic32mx/lib/size\libpic32.a(strlen.o)
                                 0x1a (size before relaxing)
 .comment       0x00000000       0x3d c:/program files/microchip/xc32/v1.21/bin/../lib/gcc/pic32mx/4.5.2/../../../../pic32mx/lib/size\libpic32.a(default-bootstrap-exception-handler.o)
 .comment       0x00000000       0x3d c:/program files/microchip/xc32/v1.21/bin/../lib/gcc/pic32mx/4.5.2/../../../../pic32mx/lib/size\libpic32.a(default-on-reset.o)
 .comment       0x00000000       0x3d c:/program files/microchip/xc32/v1.21/bin/../lib/gcc/pic32mx/4.5.2/../../../../pic32mx/lib/size\libpic32.a(default-on-bootstrap.o)
 .comment       0x00000000       0x3d c:/program files/microchip/xc32/v1.21/bin/../lib/gcc/pic32mx/4.5.2/../../../../pic32mx/lib/size\libpic32.a(errno.o)
 .comment       0x00000000       0x3d c:/program files/microchip/xc32/v1.21/bin/../lib/gcc/pic32mx/4.5.2/../../../../pic32mx/lib/size\libpic32.a(defaultinterrupt.o)
 .comment       0x00000000       0x3d c:/program files/microchip/xc32/v1.21/bin/../lib/gcc/pic32mx/4.5.2/../../../../pic32mx/lib/size\libdebug.a(db_utils.o)
 .comment       0x00000000       0x3d c:/program files/microchip/xc32/v1.21/bin/../lib/gcc/pic32mx/4.5.2/../../../../pic32mx/lib/size\libpic32.a(xc32_uart.o)
 .comment       0x00000000       0x3d c:/program files/microchip/xc32/v1.21/bin/../lib/gcc/pic32mx/4.5.2/../../../../pic32mx/lib/size\libc.a(_iob.o)
 .comment       0x00000000       0x3d c:/program files/microchip/xc32/v1.21/bin/../lib/gcc/pic32mx/4.5.2/../../../../pic32mx/lib/size\libc.a(atoi.o)
 .comment       0x00000000       0x3d c:/program files/microchip/xc32/v1.21/bin/../lib/gcc/pic32mx/4.5.2/../../../../pic32mx/lib/size\libc.a(atol.o)
 .comment       0x00000000       0x3d c:/program files/microchip/xc32/v1.21/bin/../lib/gcc/pic32mx/4.5.2/../../../../pic32mx/lib/size\libc.a(calloc.o)
 .comment       0x0000012f       0x4e c:/program files/microchip/xc32/v1.21/bin/../lib/gcc/pic32mx/4.5.2/../../../../pic32mx/lib/size\libc.a(ctype.o)
                                 0x8b (size before relaxing)
 .comment       0x00000000       0x3d c:/program files/microchip/xc32/v1.21/bin/../lib/gcc/pic32mx/4.5.2/../../../../pic32mx/lib/size\libc.a(malloc.o)
 .comment       0x00000000       0x3d c:/program files/microchip/xc32/v1.21/bin/../lib/gcc/pic32mx/4.5.2/../../../../pic32mx/lib/size\libc.a(rand.o)
 .comment       0x00000000       0x3d c:/program files/microchip/xc32/v1.21/bin/../lib/gcc/pic32mx/4.5.2/../../../../pic32mx/lib/size\libc.a(setbuf.o)
 .comment       0x00000000       0x3d c:/program files/microchip/xc32/v1.21/bin/../lib/gcc/pic32mx/4.5.2/../../../../pic32mx/lib/size\libc.a(strcat.o)
 .comment       0x00000000       0x3d c:/program files/microchip/xc32/v1.21/bin/../lib/gcc/pic32mx/4.5.2/../../../../pic32mx/lib/size\libc.a(strchr.o)
 .comment       0x00000000       0x3d c:/program files/microchip/xc32/v1.21/bin/../lib/gcc/pic32mx/4.5.2/../../../../pic32mx/lib/size\libc.a(strncmp.o)
 .comment       0x00000000       0x3d c:/program files/microchip/xc32/v1.21/bin/../lib/gcc/pic32mx/4.5.2/../../../../pic32mx/lib/size\libc.a(strncpy.o)
 .comment       0x00000000       0x3d c:/program files/microchip/xc32/v1.21/bin/../lib/gcc/pic32mx/4.5.2/../../../../pic32mx/lib/size\libc.a(strrchr.o)
 .comment       0x00000000       0x3d c:/program files/microchip/xc32/v1.21/bin/../lib/gcc/pic32mx/4.5.2/../../../../pic32mx/lib/size\libc.a(strstr.o)
 .comment       0x00000000       0x3d c:/program files/microchip/xc32/v1.21/bin/../lib/gcc/pic32mx/4.5.2/../../../../pic32mx/lib/size\libc.a(strtok.o)
 .comment       0x00000000       0x3d c:/program files/microchip/xc32/v1.21/bin/../lib/gcc/pic32mx/4.5.2/../../../../pic32mx/lib/size\libc.a(snprintf_cdnopsuxX.eo)
 .comment       0x00000000       0x3d c:/program files/microchip/xc32/v1.21/bin/../lib/gcc/pic32mx/4.5.2/../../../../pic32mx/lib/size\libc.a(sprintf_cdnopsuxX.eo)
 .comment       0x00000000       0x3d c:/program files/microchip/xc32/v1.21/bin/../lib/gcc/pic32mx/4.5.2/../../../../pic32mx/lib/size\libc.a(vsnprintf_cdnopsuxX.eo)
 .comment       0x00000000       0x3d c:/program files/microchip/xc32/v1.21/bin/../lib/gcc/pic32mx/4.5.2/../../../../pic32mx/lib/size\libc.a(vsnprintf.o)
 .comment       0x00000000       0x3d c:/program files/microchip/xc32/v1.21/bin/../lib/gcc/pic32mx/4.5.2/../../../../pic32mx/lib/size\libc.a(buf.o)
 .comment       0x00000000       0x3d c:/program files/microchip/xc32/v1.21/bin/../lib/gcc/pic32mx/4.5.2/../../../../pic32mx/lib/size\libc.a(strcspn.o)
 .comment       0x00000000       0x3d c:/program files/microchip/xc32/v1.21/bin/../lib/gcc/pic32mx/4.5.2/../../../../pic32mx/lib/size\libc.a(strspn.o)
 .comment       0x00000000       0x3d c:/program files/microchip/xc32/v1.21/bin/../lib/gcc/pic32mx/4.5.2/../../../../pic32mx/lib/size\libc.a(doprnt_cdnopsuxX.eo)
 .comment       0x00000000       0x3d c:/program files/microchip/xc32/v1.21/bin/../lib/gcc/pic32mx/4.5.2/../../../../pic32mx/lib/size\libc.a(doprnt.o)
 .comment       0x00000000       0x3d c:/program files/microchip/xc32/v1.21/bin/../lib/gcc/pic32mx/4.5.2/../../../../pic32mx/lib/size\libc.a(_fputc_simple.o)
 .comment       0x00000000       0x3d c:/program files/microchip/xc32/v1.21/bin/../lib/gcc/pic32mx/4.5.2/../../../../pic32mx/lib/size\libc.a(powersf.o)
 .comment       0x00000000       0x3d c:/program files/microchip/xc32/v1.21/bin/../lib/gcc/pic32mx/4.5.2/../../../../pic32mx/lib/size\libc.a(_flsbuf_simple.o)
 .comment       0x0000017d       0x4b c:/program files/microchip/xc32/v1.21/bin/../lib/gcc/pic32mx/4.5.2/../../../../pic32mx/lib/size\libpic32.a(sbrk.o)
                                 0x88 (size before relaxing)
 .comment       0x00000000       0x3d c:/program files/microchip/xc32/v1.21/bin/../lib/gcc/pic32mx/4.5.2/../../../../pic32mx/lib/size\libpic32.a(write.o)
 .comment       0x000001c8       0x9e c:/program files/microchip/xc32/v1.21/bin/../lib/gcc/pic32mx/4.5.2/../../../../pic32mx/lib/size\libe.a(_floatdisf.o)
                                 0xdb (size before relaxing)
 .comment       0x00000000       0x3d c:/program files/microchip/xc32/v1.21/bin/../lib/gcc/pic32mx/4.5.2/size\libgcc.a(_lshrdi3.o)
 .comment       0x00000000       0x3d c:/program files/microchip/xc32/v1.21/bin/../lib/gcc/pic32mx/4.5.2/size\libgcc.a(_floatundisf.o)
 .comment       0x00000000       0x3d c:/program files/microchip/xc32/v1.21/bin/../lib/gcc/pic32mx/4.5.2/size\libgcc.a(_umoddi3.o)

.debug
 *(.debug)

.line
 *(.line)

.debug_srcinfo
 *(.debug_srcinfo)

.debug_sfnames
 *(.debug_sfnames)

.debug_aranges  0x00000000     0x4550
 *(.debug_aranges)
 .debug_aranges
                0x00000000       0x38 build/default/debug/_ext/979510709/bsp.o
 .debug_aranges
                0x00000038       0x28 build/default/debug/_ext/101875047/lfsr.o
 .debug_aranges
                0x00000060       0x60 build/default/debug/_ext/101875047/hashes.o
 .debug_aranges
                0x000000c0       0x98 build/default/debug/_ext/101875047/big_int.o
 .debug_aranges
                0x00000158       0x20 build/default/debug/_ext/101875047/big_int_helper_c32.o
 .debug_aranges
                0x00000178       0x58 build/default/debug/_ext/101875047/helpers.o
 .debug_aranges
                0x000001d0       0x38 build/default/debug/_ext/1472/generic_tcp_client.o
 .debug_aranges
                0x00000208       0x38 build/default/debug/_ext/1472/generic_tcp_server.o
 .debug_aranges
                0x00000240       0x48 build/default/debug/_ext/1472/ping_demo.o
 .debug_aranges
                0x00000288       0x38 build/default/debug/_ext/1472/smtp_demo.o
 .debug_aranges
                0x000002c0      0x120 build/default/debug/_ext/365611741/system_services.o
 .debug_aranges
                0x000003e0       0xb8 build/default/debug/_ext/365611741/system_debug.o
 .debug_aranges
                0x00000498       0x58 build/default/debug/_ext/365611741/system_random.o
 .debug_aranges
                0x000004f0       0xd8 build/default/debug/_ext/365611741/system_command.o
 .debug_aranges
                0x000005c8       0x70 build/default/debug/_ext/365611741/system_userio.o
 .debug_aranges
                0x00000638      0x258 build/default/debug/_ext/97638081/sys_fs.o
 .debug_aranges
                0x00000890       0xf0 build/default/debug/_ext/97638081/mpfs2.o
 .debug_aranges
                0x00000980       0x68 build/default/debug/_ext/792872985/usart.o
 .debug_aranges
                0x000009e8       0x48 build/default/debug/_ext/792872985/drv_spi.o
 .debug_aranges
                0x00000a30       0x68 build/default/debug/_ext/792872985/db_appio.o
 .debug_aranges
                0x00000a98       0x30 build/default/debug/_ext/792872985/spi_ram.o
 .debug_aranges
                0x00000ac8       0x30 build/default/debug/_ext/792872985/spi_eeprom.o
 .debug_aranges
                0x00000af8       0x30 build/default/debug/_ext/792872985/spi_flash.o
 .debug_aranges
                0x00000b28       0xb0 build/default/debug/_ext/792872985/drv_media.o
 .debug_aranges
                0x00000bd8       0x68 build/default/debug/_ext/427700826/tcpip_announce.o
 .debug_aranges
                0x00000c40      0x140 build/default/debug/_ext/427700826/http2.o
 .debug_aranges
                0x00000d80       0x40 build/default/debug/_ext/427700826/arcfour.o
 .debug_aranges
                0x00000dc0      0x168 build/default/debug/_ext/427700826/arp.o
 .debug_aranges
                0x00000f28       0x30 build/default/debug/_ext/427700826/berkeley_api.o
 .debug_aranges
                0x00000f58       0xc8 build/default/debug/_ext/427700826/dhcp.o
 .debug_aranges
                0x00001020       0x48 build/default/debug/_ext/427700826/dhcps.o
 .debug_aranges
                0x00001068       0x88 build/default/debug/_ext/427700826/dns.o
 .debug_aranges
                0x000010f0       0x30 build/default/debug/_ext/427700826/dnss.o
 .debug_aranges
                0x00001120       0x30 build/default/debug/_ext/427700826/dyn_dns.o
 .debug_aranges
                0x00001150       0x30 build/default/debug/_ext/427700826/enc28_mac.o
 .debug_aranges
                0x00001180       0x30 build/default/debug/_ext/427700826/enc28j60.o
 .debug_aranges
                0x000011b0       0x30 build/default/debug/_ext/427700826/encs24j600.o
 .debug_aranges
                0x000011e0       0x30 build/default/debug/_ext/427700826/encx24_mac.o
 .debug_aranges
                0x00001210       0xa0 build/default/debug/_ext/427700826/eth_pic32_ext_phy.o
 .debug_aranges
                0x000012b0       0x50 build/default/debug/_ext/427700826/eth_pic32_ext_phy_dp83848.o
 .debug_aranges
                0x00001300      0x118 build/default/debug/_ext/427700826/eth_pic32_int_mac.o
 .debug_aranges
                0x00001418       0x30 build/default/debug/_ext/427700826/ftp.o
 .debug_aranges
                0x00001448       0x28 build/default/debug/_ext/427700826/hash_fnv.o
 .debug_aranges
                0x00001470       0x58 build/default/debug/_ext/427700826/hash_tbl.o
 .debug_aranges
                0x000014c8       0x68 build/default/debug/_ext/427700826/icmp.o
 .debug_aranges
                0x00001530       0x30 build/default/debug/_ext/427700826/icmpv6.o
 .debug_aranges
                0x00001560      0x168 build/default/debug/_ext/427700826/ipv4.o
 .debug_aranges
                0x000016c8       0x30 build/default/debug/_ext/427700826/ipv6.o
 .debug_aranges
                0x000016f8       0x80 build/default/debug/_ext/427700826/mac_events_pic32.o
 .debug_aranges
                0x00001778       0x58 build/default/debug/_ext/427700826/nbns.o
 .debug_aranges
                0x000017d0       0x30 build/default/debug/_ext/427700826/ndp.o
 .debug_aranges
                0x00001800       0x30 build/default/debug/_ext/427700826/tcpip_reboot.o
 .debug_aranges
                0x00001830       0x80 build/default/debug/_ext/427700826/rsa.o
 .debug_aranges
                0x000018b0       0xa0 build/default/debug/_ext/427700826/smtp.o
 .debug_aranges
                0x00001950       0x30 build/default/debug/_ext/427700826/snmp.o
 .debug_aranges
                0x00001980       0x30 build/default/debug/_ext/427700826/snmpv3.o
 .debug_aranges
                0x000019b0       0x30 build/default/debug/_ext/427700826/snmpv3_usm.o
 .debug_aranges
                0x000019e0       0x30 build/default/debug/_ext/427700826/sntp.o
 .debug_aranges
                0x00001a10      0x200 build/default/debug/_ext/427700826/ssl.o
 .debug_aranges
                0x00001c10      0x318 build/default/debug/_ext/427700826/tcp.o
 .debug_aranges
                0x00001f28       0xb0 build/default/debug/_ext/427700826/tcpip_heap_alloc.o
 .debug_aranges
                0x00001fd8       0x30 build/default/debug/_ext/427700826/tcpip_storage.o
 .debug_aranges
                0x00002008       0xa0 build/default/debug/_ext/427700826/telnet.o
 .debug_aranges
                0x000020a8       0x30 build/default/debug/_ext/427700826/tftpc.o
 .debug_aranges
                0x000020d8      0x188 build/default/debug/_ext/427700826/udp.o
 .debug_aranges
                0x00002260       0xf0 build/default/debug/_ext/427700826/tcpip_mac_object.o
 .debug_aranges
                0x00002350      0x2b0 build/default/debug/_ext/427700826/tcpip_manager.o
 .debug_aranges
                0x00002600      0x108 build/default/debug/_ext/427700826/tcpip_helpers.o
 .debug_aranges
                0x00002708       0xb0 build/default/debug/_ext/427700826/tcpip_commands.o
 .debug_aranges
                0x000027b8      0x138 build/default/debug/_ext/427700826/iperf.o
 .debug_aranges
                0x000028f0       0x20 build/default/debug/_ext/427700826/tcpip_helper_c32.o
 .debug_aranges
                0x00002910       0x30 build/default/debug/_ext/427700826/tcpip_notify.o
 .debug_aranges
                0x00002940       0x38 build/default/debug/_ext/427700826/zero_conf_helper.o
 .debug_aranges
                0x00002978       0x98 build/default/debug/_ext/427700826/zero_conf_link_local.o
 .debug_aranges
                0x00002a10       0xf0 build/default/debug/_ext/427700826/zero_conf_multicast_dns.o
 .debug_aranges
                0x00002b00       0x48 build/default/debug/_ext/334706090/wf_tx_power.o
 .debug_aranges
                0x00002b48       0x58 build/default/debug/_ext/334706090/wf_connect.o
 .debug_aranges
                0x00002ba0       0xc0 build/default/debug/_ext/334706090/wf_connection_algorithm.o
 .debug_aranges
                0x00002c60       0x68 build/default/debug/_ext/334706090/wf_connection_manager.o
 .debug_aranges
                0x00002cc8       0xf0 build/default/debug/_ext/334706090/wf_connection_profile.o
 .debug_aranges
                0x00002db8       0x38 build/default/debug/_ext/334706090/wf_easy_config.o
 .debug_aranges
                0x00002df0       0x58 build/default/debug/_ext/334706090/wf_eint.o
 .debug_aranges
                0x00002e48       0x80 build/default/debug/_ext/334706090/wf_event_handler.o
 .debug_aranges
                0x00002ec8       0x58 build/default/debug/_ext/334706090/wf_init.o
 .debug_aranges
                0x00002f20       0xa8 build/default/debug/_ext/334706090/wf_power_save.o
 .debug_aranges
                0x00002fc8       0x48 build/default/debug/_ext/334706090/wf_scan.o
 .debug_aranges
                0x00003010       0x58 build/default/debug/_ext/334706090/wf_spi.o
 .debug_aranges
                0x00003068      0x120 build/default/debug/_ext/334706090/mrf24w_mac_pic32.o
 .debug_aranges
                0x00003188       0x88 build/default/debug/_ext/334706090/mrf24w_events.o
 .debug_aranges
                0x00003210       0xd0 build/default/debug/_ext/334706090/wf_debug_output.o
 .debug_aranges
                0x000032e0       0xa8 build/default/debug/_ext/334706090/wf_commands.o
 .debug_aranges
                0x00003388       0x30 build/default/debug/_ext/334706090/wf_pbkdf2.o
 .debug_aranges
                0x000033b8       0xf0 build/default/debug/_ext/334706090/wf_driver_com_24g.o
 .debug_aranges
                0x000034a8       0xd8 build/default/debug/_ext/334706090/wf_driver_raw_24g.o
 .debug_aranges
                0x00003580      0x100 build/default/debug/_ext/334706090/wf_mac_24g.o
 .debug_aranges
                0x00003680       0x58 build/default/debug/_ext/334706090/wf_mgmt_msg_24g.o
 .debug_aranges
                0x000036d8      0x100 build/default/debug/_ext/334706090/wf_param_msg_24g.o
 .debug_aranges
                0x000037d8       0x50 build/default/debug/_ext/334706090/wf_configData.o
 .debug_aranges
                0x00003828       0x50 build/default/debug/_ext/1472/main_demo.o
 .debug_aranges
                0x00003878       0x30 build/default/debug/_ext/1472/custom_ssl_cert.o
 .debug_aranges
                0x000038a8       0x30 build/default/debug/_ext/1472/mpfs_img2.o
 .debug_aranges
                0x000038d8       0x38 build/default/debug/_ext/1472/wf_config.o
 .debug_aranges
                0x00003910      0x170 build/default/debug/_ext/1472/custom_http_app.o
 .debug_aranges
                0x00003a80       0x20 c:/program files/microchip/xc32/v1.21/bin/../lib/gcc/pic32mx/4.5.2/../../../../pic32mx/lib/size\libmchp_peripheral.a(open_core_timer_lib.o)
 .debug_aranges
                0x00003aa0       0x48 c:/program files/microchip/xc32/v1.21/bin/../lib/gcc/pic32mx/4.5.2/../../../../pic32mx/lib/size\libmchp_peripheral_32MX795F512L.a(eth_ack_packet_lib.o)
 .debug_aranges
                0x00003ae8       0x20 c:/program files/microchip/xc32/v1.21/bin/../lib/gcc/pic32mx/4.5.2/../../../../pic32mx/lib/size\libmchp_peripheral_32MX795F512L.a(eth_close_lib.o)
 .debug_aranges
                0x00003b08       0x28 c:/program files/microchip/xc32/v1.21/bin/../lib/gcc/pic32mx/4.5.2/../../../../pic32mx/lib/size\libmchp_peripheral_32MX795F512L.a(eth_descriptors_add_lib.o)
 .debug_aranges
                0x00003b30       0x50 c:/program files/microchip/xc32/v1.21/bin/../lib/gcc/pic32mx/4.5.2/../../../../pic32mx/lib/size\libmchp_peripheral_32MX795F512L.a(eth_descriptors_remove_lib.o)
 .debug_aranges
                0x00003b80       0x38 c:/program files/microchip/xc32/v1.21/bin/../lib/gcc/pic32mx/4.5.2/../../../../pic32mx/lib/size\libmchp_peripheral_32MX795F512L.a(eth_events_lib.o)
 .debug_aranges
                0x00003bb8       0x20 c:/program files/microchip/xc32/v1.21/bin/../lib/gcc/pic32mx/4.5.2/../../../../pic32mx/lib/size\libmchp_peripheral_32MX795F512L.a(eth_init_lib.o)
 .debug_aranges
                0x00003bd8       0x20 c:/program files/microchip/xc32/v1.21/bin/../lib/gcc/pic32mx/4.5.2/../../../../pic32mx/lib/size\libmchp_peripheral_32MX795F512L.a(eth_mac_open_lib.o)
 .debug_aranges
                0x00003bf8       0x30 c:/program files/microchip/xc32/v1.21/bin/../lib/gcc/pic32mx/4.5.2/../../../../pic32mx/lib/size\libmchp_peripheral_32MX795F512L.a(eth_mac_set_address_max_lib.o)
 .debug_aranges
                0x00003c28       0x20 c:/program files/microchip/xc32/v1.21/bin/../lib/gcc/pic32mx/4.5.2/../../../../pic32mx/lib/size\libmchp_peripheral_32MX795F512L.a(eth_rx_buffers_append_lib.o)
 .debug_aranges
                0x00003c48       0x48 c:/program files/microchip/xc32/v1.21/bin/../lib/gcc/pic32mx/4.5.2/../../../../pic32mx/lib/size\libmchp_peripheral_32MX795F512L.a(eth_rx_filters_lib.o)
 .debug_aranges
                0x00003c90       0x28 c:/program files/microchip/xc32/v1.21/bin/../lib/gcc/pic32mx/4.5.2/../../../../pic32mx/lib/size\libmchp_peripheral_32MX795F512L.a(eth_rx_get_packet_lib.o)
 .debug_aranges
                0x00003cb8       0x20 c:/program files/microchip/xc32/v1.21/bin/../lib/gcc/pic32mx/4.5.2/../../../../pic32mx/lib/size\libmchp_peripheral_32MX795F512L.a(eth_rx_set_buffer_size_lib.o)
 .debug_aranges
                0x00003cd8       0x48 c:/program files/microchip/xc32/v1.21/bin/../lib/gcc/pic32mx/4.5.2/../../../../pic32mx/lib/size\libmchp_peripheral_32MX795F512L.a(eth_tx_packet_lib.o)
 .debug_aranges
                0x00003d20       0x20 c:/program files/microchip/xc32/v1.21/bin/../lib/gcc/pic32mx/4.5.2/../../../../pic32mx/lib/size\libmchp_peripheral_32MX795F512L.a(_eth_append_busy_list_lib.o)
 .debug_aranges
                0x00003d40       0x48 c:/program files/microchip/xc32/v1.21/bin/../lib/gcc/pic32mx/4.5.2/../../../../pic32mx/lib/size\libmchp_peripheral_32MX795F512L.a(eth_miim_access.o)
 .debug_aranges
                0x00003d88       0x20 c:/program files/microchip/xc32/v1.21/bin/../lib/gcc/pic32mx/4.5.2/../../../../pic32mx/lib/size\libmchp_peripheral_32MX795F512L.a(soft_reset_lib.o)
 .debug_aranges
                0x00003da8       0x28 c:/program files/microchip/xc32/v1.21/bin/../lib/gcc/pic32mx/4.5.2/../../../../pic32mx/lib/size\libmchp_peripheral_32MX795F512L.a(pcache.o)
 .debug_aranges
                0x00003dd0       0x20 c:/program files/microchip/xc32/v1.21/bin/../lib/gcc/pic32mx/4.5.2/../../../../pic32mx/lib/size\libmchp_peripheral_32MX795F512L.a(int_disable_interrupts_lib.o)
 .debug_aranges
                0x00003df0       0x20 c:/program files/microchip/xc32/v1.21/bin/../lib/gcc/pic32mx/4.5.2/../../../../pic32mx/lib/size\libmchp_peripheral_32MX795F512L.a(int_restore_interrupts_lib.o)
 .debug_aranges
                0x00003e10       0x20 c:/program files/microchip/xc32/v1.21/bin/../lib/gcc/pic32mx/4.5.2/../../../../pic32mx/lib/size\libmchp_peripheral_32MX795F512L.a(int_enable_mv_int_lib.o)
 .debug_aranges
                0x00003e30       0x60 c:/program files/microchip/xc32/v1.21/bin/../lib/gcc/pic32mx/4.5.2/../../../../pic32mx/lib/size\libmchp_peripheral_32MX795F512L.a(int_tbl_lib.o)
 .debug_aranges
                0x00003e90       0x20 c:/program files/microchip/xc32/v1.21/bin/../lib/gcc/pic32mx/4.5.2/../../../../pic32mx/lib/size\libmchp_peripheral_32MX795F512L.a(rtcc_init_lib.o)
 .debug_aranges
                0x00003eb0       0x20 c:/program files/microchip/xc32/v1.21/bin/../lib/gcc/pic32mx/4.5.2/../../../../pic32mx/lib/size\libmchp_peripheral_32MX795F512L.a(rtcc_open_lib.o)
 .debug_aranges
                0x00003ed0       0x20 c:/program files/microchip/xc32/v1.21/bin/../lib/gcc/pic32mx/4.5.2/../../../../pic32mx/lib/size\libmchp_peripheral_32MX795F512L.a(spi_chn_data_rdy_lib.o)
 .debug_aranges
                0x00003ef0       0x28 c:/program files/microchip/xc32/v1.21/bin/../lib/gcc/pic32mx/4.5.2/../../../../pic32mx/lib/size\libmchp_peripheral_32MX795F512L.a(spi_chn_getc_lib.o)
 .debug_aranges
                0x00003f18       0x20 c:/program files/microchip/xc32/v1.21/bin/../lib/gcc/pic32mx/4.5.2/../../../../pic32mx/lib/size\libmchp_peripheral_32MX795F512L.a(spi_chn_open_lib.o)
 .debug_aranges
                0x00003f38       0x30 c:/program files/microchip/xc32/v1.21/bin/../lib/gcc/pic32mx/4.5.2/../../../../pic32mx/lib/size\libmchp_peripheral_32MX795F512L.a(spi_chn_putc_lib.o)
 .debug_aranges
                0x00003f68       0x20 c:/program files/microchip/xc32/v1.21/bin/../lib/gcc/pic32mx/4.5.2/../../../../pic32mx/lib/size\libmchp_peripheral_32MX795F512L.a(spi_chn_tx_buff_empty_lib.o)
 .debug_aranges
                0x00003f88       0x20 c:/program files/microchip/xc32/v1.21/bin/../lib/gcc/pic32mx/4.5.2/../../../../pic32mx/lib/size\libmchp_peripheral_32MX795F512L.a(port_set_pins_digital_in_lib.o)
 .debug_aranges
                0x00003fa8       0x20 c:/program files/microchip/xc32/v1.21/bin/../lib/gcc/pic32mx/4.5.2/../../../../pic32mx/lib/size\libmchp_peripheral_32MX795F512L.a(port_set_pins_digital_out_lib.o)
 .debug_aranges
                0x00003fc8       0x20 c:/program files/microchip/xc32/v1.21/bin/../lib/gcc/pic32mx/4.5.2/../../../../pic32mx/lib/size\libmchp_peripheral_32MX795F512L.a(int_enable_interrupts_lib.o)
 .debug_aranges
                0x00003fe8       0x28 c:/program files/microchip/xc32/v1.21/bin/../lib/gcc/pic32mx/4.5.2/../../../../pic32mx/lib/size\libmchp_peripheral_32MX795F512L.a(_rtcc_wait_clock_off_lib.o)
 .debug_aranges
                0x00004010       0x20 c:/program files/microchip/xc32/v1.21/bin/../lib/gcc/pic32mx/4.5.2/../../../../pic32mx/lib/size\libmchp_peripheral_32MX795F512L.a(read_core_timer_lib.o)
 .debug_aranges
                0x00004030       0x20 c:/program files/microchip/xc32/v1.21/bin/../lib/gcc/pic32mx/4.5.2/size\libgcc.a(_udivdi3.o)
 .debug_aranges
                0x00004050       0x20 c:/program files/microchip/xc32/v1.21/bin/../lib/gcc/pic32mx/4.5.2/size\libgcc.a(floatunsisf.o)
 .debug_aranges
                0x00004070       0x20 c:/program files/microchip/xc32/v1.21/bin/../lib/gcc/pic32mx/4.5.2/../../../../pic32mx/lib/size\libpic32.a(default-bootstrap-exception-handler.o)
 .debug_aranges
                0x00004090       0x20 c:/program files/microchip/xc32/v1.21/bin/../lib/gcc/pic32mx/4.5.2/../../../../pic32mx/lib/size\libpic32.a(default-on-reset.o)
 .debug_aranges
                0x000040b0       0x20 c:/program files/microchip/xc32/v1.21/bin/../lib/gcc/pic32mx/4.5.2/../../../../pic32mx/lib/size\libpic32.a(default-on-bootstrap.o)
 .debug_aranges
                0x000040d0       0x20 c:/program files/microchip/xc32/v1.21/bin/../lib/gcc/pic32mx/4.5.2/../../../../pic32mx/lib/size\libpic32.a(defaultinterrupt.o)
 .debug_aranges
                0x000040f0       0x48 c:/program files/microchip/xc32/v1.21/bin/../lib/gcc/pic32mx/4.5.2/../../../../pic32mx/lib/size\libdebug.a(db_utils.o)
 .debug_aranges
                0x00004138       0x20 c:/program files/microchip/xc32/v1.21/bin/../lib/gcc/pic32mx/4.5.2/../../../../pic32mx/lib/size\libc.a(atoi.o)
 .debug_aranges
                0x00004158       0x20 c:/program files/microchip/xc32/v1.21/bin/../lib/gcc/pic32mx/4.5.2/../../../../pic32mx/lib/size\libc.a(atol.o)
 .debug_aranges
                0x00004178       0x20 c:/program files/microchip/xc32/v1.21/bin/../lib/gcc/pic32mx/4.5.2/../../../../pic32mx/lib/size\libc.a(calloc.o)
 .debug_aranges
                0x00004198       0x30 c:/program files/microchip/xc32/v1.21/bin/../lib/gcc/pic32mx/4.5.2/../../../../pic32mx/lib/size\libc.a(malloc.o)
 .debug_aranges
                0x000041c8       0x28 c:/program files/microchip/xc32/v1.21/bin/../lib/gcc/pic32mx/4.5.2/../../../../pic32mx/lib/size\libc.a(rand.o)
 .debug_aranges
                0x000041f0       0x28 c:/program files/microchip/xc32/v1.21/bin/../lib/gcc/pic32mx/4.5.2/../../../../pic32mx/lib/size\libc.a(setbuf.o)
 .debug_aranges
                0x00004218       0x20 c:/program files/microchip/xc32/v1.21/bin/../lib/gcc/pic32mx/4.5.2/../../../../pic32mx/lib/size\libc.a(strcat.o)
 .debug_aranges
                0x00004238       0x20 c:/program files/microchip/xc32/v1.21/bin/../lib/gcc/pic32mx/4.5.2/../../../../pic32mx/lib/size\libc.a(strchr.o)
 .debug_aranges
                0x00004258       0x20 c:/program files/microchip/xc32/v1.21/bin/../lib/gcc/pic32mx/4.5.2/../../../../pic32mx/lib/size\libc.a(strncmp.o)
 .debug_aranges
                0x00004278       0x20 c:/program files/microchip/xc32/v1.21/bin/../lib/gcc/pic32mx/4.5.2/../../../../pic32mx/lib/size\libc.a(strncpy.o)
 .debug_aranges
                0x00004298       0x20 c:/program files/microchip/xc32/v1.21/bin/../lib/gcc/pic32mx/4.5.2/../../../../pic32mx/lib/size\libc.a(strrchr.o)
 .debug_aranges
                0x000042b8       0x20 c:/program files/microchip/xc32/v1.21/bin/../lib/gcc/pic32mx/4.5.2/../../../../pic32mx/lib/size\libc.a(strstr.o)
 .debug_aranges
                0x000042d8       0x20 c:/program files/microchip/xc32/v1.21/bin/../lib/gcc/pic32mx/4.5.2/../../../../pic32mx/lib/size\libc.a(strtok.o)
 .debug_aranges
                0x000042f8       0x20 c:/program files/microchip/xc32/v1.21/bin/../lib/gcc/pic32mx/4.5.2/../../../../pic32mx/lib/size\libc.a(snprintf_cdnopsuxX.eo)
 .debug_aranges
                0x00004318       0x20 c:/program files/microchip/xc32/v1.21/bin/../lib/gcc/pic32mx/4.5.2/../../../../pic32mx/lib/size\libc.a(sprintf_cdnopsuxX.eo)
 .debug_aranges
                0x00004338       0x20 c:/program files/microchip/xc32/v1.21/bin/../lib/gcc/pic32mx/4.5.2/../../../../pic32mx/lib/size\libc.a(vsnprintf_cdnopsuxX.eo)
 .debug_aranges
                0x00004358       0x20 c:/program files/microchip/xc32/v1.21/bin/../lib/gcc/pic32mx/4.5.2/../../../../pic32mx/lib/size\libc.a(vsnprintf.o)
 .debug_aranges
                0x00004378       0x28 c:/program files/microchip/xc32/v1.21/bin/../lib/gcc/pic32mx/4.5.2/../../../../pic32mx/lib/size\libc.a(buf.o)
 .debug_aranges
                0x000043a0       0x20 c:/program files/microchip/xc32/v1.21/bin/../lib/gcc/pic32mx/4.5.2/../../../../pic32mx/lib/size\libc.a(strcspn.o)
 .debug_aranges
                0x000043c0       0x20 c:/program files/microchip/xc32/v1.21/bin/../lib/gcc/pic32mx/4.5.2/../../../../pic32mx/lib/size\libc.a(strspn.o)
 .debug_aranges
                0x000043e0       0x20 c:/program files/microchip/xc32/v1.21/bin/../lib/gcc/pic32mx/4.5.2/../../../../pic32mx/lib/size\libc.a(doprnt_cdnopsuxX.eo)
 .debug_aranges
                0x00004400       0x30 c:/program files/microchip/xc32/v1.21/bin/../lib/gcc/pic32mx/4.5.2/../../../../pic32mx/lib/size\libc.a(doprnt.o)
 .debug_aranges
                0x00004430       0x20 c:/program files/microchip/xc32/v1.21/bin/../lib/gcc/pic32mx/4.5.2/../../../../pic32mx/lib/size\libc.a(_fputc_simple.o)
 .debug_aranges
                0x00004450       0x20 c:/program files/microchip/xc32/v1.21/bin/../lib/gcc/pic32mx/4.5.2/../../../../pic32mx/lib/size\libc.a(_flsbuf_simple.o)
 .debug_aranges
                0x00004470       0x40 c:/program files/microchip/xc32/v1.21/bin/../lib/gcc/pic32mx/4.5.2/../../../../pic32mx/lib/size\libpic32.a(sbrk.o)
 .debug_aranges
                0x000044b0       0x20 c:/program files/microchip/xc32/v1.21/bin/../lib/gcc/pic32mx/4.5.2/../../../../pic32mx/lib/size\libpic32.a(write.o)
 .debug_aranges
                0x000044d0       0x20 c:/program files/microchip/xc32/v1.21/bin/../lib/gcc/pic32mx/4.5.2/../../../../pic32mx/lib/size\libe.a(_floatdisf.o)
 .debug_aranges
                0x000044f0       0x20 c:/program files/microchip/xc32/v1.21/bin/../lib/gcc/pic32mx/4.5.2/size\libgcc.a(_lshrdi3.o)
 .debug_aranges
                0x00004510       0x20 c:/program files/microchip/xc32/v1.21/bin/../lib/gcc/pic32mx/4.5.2/size\libgcc.a(_floatundisf.o)
 .debug_aranges
                0x00004530       0x20 c:/program files/microchip/xc32/v1.21/bin/../lib/gcc/pic32mx/4.5.2/size\libgcc.a(_umoddi3.o)

.debug_pubnames
                0x00000000     0x7e0f
 *(.debug_pubnames)
 .debug_pubnames
                0x00000000       0x5c build/default/debug/_ext/979510709/bsp.o
 .debug_pubnames
                0x0000005c       0x30 build/default/debug/_ext/101875047/lfsr.o
 .debug_pubnames
                0x0000008c       0x97 build/default/debug/_ext/101875047/hashes.o
 .debug_pubnames
                0x00000123      0x122 build/default/debug/_ext/101875047/big_int.o
 .debug_pubnames
                0x00000245       0x81 build/default/debug/_ext/101875047/helpers.o
 .debug_pubnames
                0x000002c6       0x5e build/default/debug/_ext/1472/generic_tcp_client.o
 .debug_pubnames
                0x00000324       0x5e build/default/debug/_ext/1472/generic_tcp_server.o
 .debug_pubnames
                0x00000382       0xfb build/default/debug/_ext/1472/ping_demo.o
 .debug_pubnames
                0x0000047d       0x56 build/default/debug/_ext/1472/smtp_demo.o
 .debug_pubnames
                0x000004d3      0x361 build/default/debug/_ext/365611741/system_services.o
 .debug_pubnames
                0x00000834      0x19f build/default/debug/_ext/365611741/system_debug.o
 .debug_pubnames
                0x000009d3       0xba build/default/debug/_ext/365611741/system_random.o
 .debug_pubnames
                0x00000a8d       0xe2 build/default/debug/_ext/365611741/system_command.o
 .debug_pubnames
                0x00000b6f       0xff build/default/debug/_ext/365611741/system_userio.o
 .debug_pubnames
                0x00000c6e      0x5ac build/default/debug/_ext/97638081/sys_fs.o
 .debug_pubnames
                0x0000121a      0x1b5 build/default/debug/_ext/97638081/mpfs2.o
 .debug_pubnames
                0x000013cf       0xcb build/default/debug/_ext/792872985/usart.o
 .debug_pubnames
                0x0000149a       0x71 build/default/debug/_ext/792872985/drv_spi.o
 .debug_pubnames
                0x0000150b       0xe2 build/default/debug/_ext/792872985/db_appio.o
 .debug_pubnames
                0x000015ed       0x49 build/default/debug/_ext/792872985/spi_ram.o
 .debug_pubnames
                0x00001636       0x49 build/default/debug/_ext/792872985/spi_eeprom.o
 .debug_pubnames
                0x0000167f       0x49 build/default/debug/_ext/792872985/spi_flash.o
 .debug_pubnames
                0x000016c8      0x1a0 build/default/debug/_ext/792872985/drv_media.o
 .debug_pubnames
                0x00001868       0xca build/default/debug/_ext/427700826/tcpip_announce.o
 .debug_pubnames
                0x00001932      0x303 build/default/debug/_ext/427700826/http2.o
 .debug_pubnames
                0x00001c35       0x70 build/default/debug/_ext/427700826/arcfour.o
 .debug_pubnames
                0x00001ca5      0x225 build/default/debug/_ext/427700826/arp.o
 .debug_pubnames
                0x00001eca       0x49 build/default/debug/_ext/427700826/berkeley_api.o
 .debug_pubnames
                0x00001f13      0x132 build/default/debug/_ext/427700826/dhcp.o
 .debug_pubnames
                0x00002045       0x8c build/default/debug/_ext/427700826/dhcps.o
 .debug_pubnames
                0x000020d1       0xc4 build/default/debug/_ext/427700826/dns.o
 .debug_pubnames
                0x00002195       0x49 build/default/debug/_ext/427700826/dnss.o
 .debug_pubnames
                0x000021de       0x49 build/default/debug/_ext/427700826/dyn_dns.o
 .debug_pubnames
                0x00002227       0x49 build/default/debug/_ext/427700826/enc28_mac.o
 .debug_pubnames
                0x00002270       0x49 build/default/debug/_ext/427700826/enc28j60.o
 .debug_pubnames
                0x000022b9       0x49 build/default/debug/_ext/427700826/encs24j600.o
 .debug_pubnames
                0x00002302       0x49 build/default/debug/_ext/427700826/encx24_mac.o
 .debug_pubnames
                0x0000234b      0x147 build/default/debug/_ext/427700826/eth_pic32_ext_phy.o
 .debug_pubnames
                0x00002492       0xa2 build/default/debug/_ext/427700826/eth_pic32_ext_phy_dp83848.o
 .debug_pubnames
                0x00002534       0xa0 build/default/debug/_ext/427700826/eth_pic32_int_mac.o
 .debug_pubnames
                0x000025d4       0x49 build/default/debug/_ext/427700826/ftp.o
 .debug_pubnames
                0x0000261d       0x33 build/default/debug/_ext/427700826/hash_fnv.o
 .debug_pubnames
                0x00002650       0x86 build/default/debug/_ext/427700826/hash_tbl.o
 .debug_pubnames
                0x000026d6       0xb5 build/default/debug/_ext/427700826/icmp.o
 .debug_pubnames
                0x0000278b       0x49 build/default/debug/_ext/427700826/icmpv6.o
 .debug_pubnames
                0x000027d4      0x4b6 build/default/debug/_ext/427700826/ipv4.o
 .debug_pubnames
                0x00002c8a       0x49 build/default/debug/_ext/427700826/ipv6.o
 .debug_pubnames
                0x00002cd3      0x10e build/default/debug/_ext/427700826/mac_events_pic32.o
 .debug_pubnames
                0x00002de1       0x72 build/default/debug/_ext/427700826/nbns.o
 .debug_pubnames
                0x00002e53       0x49 build/default/debug/_ext/427700826/ndp.o
 .debug_pubnames
                0x00002e9c       0x49 build/default/debug/_ext/427700826/tcpip_reboot.o
 .debug_pubnames
                0x00002ee5       0xc9 build/default/debug/_ext/427700826/rsa.o
 .debug_pubnames
                0x00002fae      0x128 build/default/debug/_ext/427700826/smtp.o
 .debug_pubnames
                0x000030d6       0x49 build/default/debug/_ext/427700826/snmp.o
 .debug_pubnames
                0x0000311f       0x49 build/default/debug/_ext/427700826/snmpv3.o
 .debug_pubnames
                0x00003168       0x49 build/default/debug/_ext/427700826/snmpv3_usm.o
 .debug_pubnames
                0x000031b1       0x49 build/default/debug/_ext/427700826/sntp.o
 .debug_pubnames
                0x000031fa      0x153 build/default/debug/_ext/427700826/ssl.o
 .debug_pubnames
                0x0000334d      0x44d build/default/debug/_ext/427700826/tcp.o
 .debug_pubnames
                0x0000379a      0x1c3 build/default/debug/_ext/427700826/tcpip_heap_alloc.o
 .debug_pubnames
                0x0000395d       0x49 build/default/debug/_ext/427700826/tcpip_storage.o
 .debug_pubnames
                0x000039a6       0x78 build/default/debug/_ext/427700826/telnet.o
 .debug_pubnames
                0x00003a1e       0x49 build/default/debug/_ext/427700826/tftpc.o
 .debug_pubnames
                0x00003a67      0x291 build/default/debug/_ext/427700826/udp.o
 .debug_pubnames
                0x00003cf8      0x230 build/default/debug/_ext/427700826/tcpip_mac_object.o
 .debug_pubnames
                0x00003f28      0x7b8 build/default/debug/_ext/427700826/tcpip_manager.o
 .debug_pubnames
                0x000046e0      0x336 build/default/debug/_ext/427700826/tcpip_helpers.o
 .debug_pubnames
                0x00004a16       0x77 build/default/debug/_ext/427700826/tcpip_commands.o
 .debug_pubnames
                0x00004a8d       0xa0 build/default/debug/_ext/427700826/iperf.o
 .debug_pubnames
                0x00004b2d       0x69 build/default/debug/_ext/427700826/tcpip_notify.o
 .debug_pubnames
                0x00004b96       0x72 build/default/debug/_ext/427700826/zero_conf_helper.o
 .debug_pubnames
                0x00004c08       0xd2 build/default/debug/_ext/427700826/zero_conf_link_local.o
 .debug_pubnames
                0x00004cda       0xc9 build/default/debug/_ext/427700826/zero_conf_multicast_dns.o
 .debug_pubnames
                0x00004da3       0x8f build/default/debug/_ext/334706090/wf_tx_power.o
 .debug_pubnames
                0x00004e32       0x5a build/default/debug/_ext/334706090/wf_connect.o
 .debug_pubnames
                0x00004e8c      0x1ac build/default/debug/_ext/334706090/wf_connection_algorithm.o
 .debug_pubnames
                0x00005038       0xcd build/default/debug/_ext/334706090/wf_connection_manager.o
 .debug_pubnames
                0x00005105      0x1e4 build/default/debug/_ext/334706090/wf_connection_profile.o
 .debug_pubnames
                0x000052e9       0x72 build/default/debug/_ext/334706090/wf_easy_config.o
 .debug_pubnames
                0x0000535b       0xa9 build/default/debug/_ext/334706090/wf_eint.o
 .debug_pubnames
                0x00005404      0x130 build/default/debug/_ext/334706090/wf_event_handler.o
 .debug_pubnames
                0x00005534       0xa4 build/default/debug/_ext/334706090/wf_init.o
 .debug_pubnames
                0x000055d8      0x180 build/default/debug/_ext/334706090/wf_power_save.o
 .debug_pubnames
                0x00005758       0x82 build/default/debug/_ext/334706090/wf_scan.o
 .debug_pubnames
                0x000057da       0x9e build/default/debug/_ext/334706090/wf_spi.o
 .debug_pubnames
                0x00005878       0xbe build/default/debug/_ext/334706090/mrf24w_mac_pic32.o
 .debug_pubnames
                0x00005936      0x179 build/default/debug/_ext/334706090/mrf24w_events.o
 .debug_pubnames
                0x00005aaf      0x170 build/default/debug/_ext/334706090/wf_debug_output.o
 .debug_pubnames
                0x00005c1f       0xc1 build/default/debug/_ext/334706090/wf_commands.o
 .debug_pubnames
                0x00005ce0       0x49 build/default/debug/_ext/334706090/wf_pbkdf2.o
 .debug_pubnames
                0x00005d29      0x22b build/default/debug/_ext/334706090/wf_driver_com_24g.o
 .debug_pubnames
                0x00005f54      0x226 build/default/debug/_ext/334706090/wf_driver_raw_24g.o
 .debug_pubnames
                0x0000617a      0x2ab build/default/debug/_ext/334706090/wf_mac_24g.o
 .debug_pubnames
                0x00006425       0xe7 build/default/debug/_ext/334706090/wf_mgmt_msg_24g.o
 .debug_pubnames
                0x0000650c      0x2a4 build/default/debug/_ext/334706090/wf_param_msg_24g.o
 .debug_pubnames
                0x000067b0       0xca build/default/debug/_ext/334706090/wf_configData.o
 .debug_pubnames
                0x0000687a      0x216 build/default/debug/_ext/1472/main_demo.o
 .debug_pubnames
                0x00006a90       0x9e build/default/debug/_ext/1472/custom_ssl_cert.o
 .debug_pubnames
                0x00006b2e       0x7b build/default/debug/_ext/1472/mpfs_img2.o
 .debug_pubnames
                0x00006ba9       0x5d build/default/debug/_ext/1472/wf_config.o
 .debug_pubnames
                0x00006c06      0x3d9 build/default/debug/_ext/1472/custom_http_app.o
 .debug_pubnames
                0x00006fdf       0x24 c:/program files/microchip/xc32/v1.21/bin/../lib/gcc/pic32mx/4.5.2/../../../../pic32mx/lib/size\libmchp_peripheral.a(open_core_timer_lib.o)
 .debug_pubnames
                0x00007003       0x80 c:/program files/microchip/xc32/v1.21/bin/../lib/gcc/pic32mx/4.5.2/../../../../pic32mx/lib/size\libmchp_peripheral_32MX795F512L.a(eth_ack_packet_lib.o)
 .debug_pubnames
                0x00007083       0x1f c:/program files/microchip/xc32/v1.21/bin/../lib/gcc/pic32mx/4.5.2/../../../../pic32mx/lib/size\libmchp_peripheral_32MX795F512L.a(eth_close_lib.o)
 .debug_pubnames
                0x000070a2       0x42 c:/program files/microchip/xc32/v1.21/bin/../lib/gcc/pic32mx/4.5.2/../../../../pic32mx/lib/size\libmchp_peripheral_32MX795F512L.a(eth_descriptors_add_lib.o)
 .debug_pubnames
                0x000070e4       0xc9 c:/program files/microchip/xc32/v1.21/bin/../lib/gcc/pic32mx/4.5.2/../../../../pic32mx/lib/size\libmchp_peripheral_32MX795F512L.a(eth_descriptors_remove_lib.o)
 .debug_pubnames
                0x000071ad       0x70 c:/program files/microchip/xc32/v1.21/bin/../lib/gcc/pic32mx/4.5.2/../../../../pic32mx/lib/size\libmchp_peripheral_32MX795F512L.a(eth_events_lib.o)
 .debug_pubnames
                0x0000721d       0x1e c:/program files/microchip/xc32/v1.21/bin/../lib/gcc/pic32mx/4.5.2/../../../../pic32mx/lib/size\libmchp_peripheral_32MX795F512L.a(eth_init_lib.o)
 .debug_pubnames
                0x0000723b       0x21 c:/program files/microchip/xc32/v1.21/bin/../lib/gcc/pic32mx/4.5.2/../../../../pic32mx/lib/size\libmchp_peripheral_32MX795F512L.a(eth_mac_open_lib.o)
 .debug_pubnames
                0x0000725c       0x52 c:/program files/microchip/xc32/v1.21/bin/../lib/gcc/pic32mx/4.5.2/../../../../pic32mx/lib/size\libmchp_peripheral_32MX795F512L.a(eth_mac_set_address_max_lib.o)
 .debug_pubnames
                0x000072ae       0x29 c:/program files/microchip/xc32/v1.21/bin/../lib/gcc/pic32mx/4.5.2/../../../../pic32mx/lib/size\libmchp_peripheral_32MX795F512L.a(eth_rx_buffers_append_lib.o)
 .debug_pubnames
                0x000072d7       0x92 c:/program files/microchip/xc32/v1.21/bin/../lib/gcc/pic32mx/4.5.2/../../../../pic32mx/lib/size\libmchp_peripheral_32MX795F512L.a(eth_rx_filters_lib.o)
 .debug_pubnames
                0x00007369       0x38 c:/program files/microchip/xc32/v1.21/bin/../lib/gcc/pic32mx/4.5.2/../../../../pic32mx/lib/size\libmchp_peripheral_32MX795F512L.a(eth_rx_get_packet_lib.o)
 .debug_pubnames
                0x000073a1       0x29 c:/program files/microchip/xc32/v1.21/bin/../lib/gcc/pic32mx/4.5.2/../../../../pic32mx/lib/size\libmchp_peripheral_32MX795F512L.a(eth_rx_set_buffer_size_lib.o)
 .debug_pubnames
                0x000073ca       0x66 c:/program files/microchip/xc32/v1.21/bin/../lib/gcc/pic32mx/4.5.2/../../../../pic32mx/lib/size\libmchp_peripheral_32MX795F512L.a(eth_tx_packet_lib.o)
 .debug_pubnames
                0x00007430       0x29 c:/program files/microchip/xc32/v1.21/bin/../lib/gcc/pic32mx/4.5.2/../../../../pic32mx/lib/size\libmchp_peripheral_32MX795F512L.a(_eth_append_busy_list_lib.o)
 .debug_pubnames
                0x00007459       0x90 c:/program files/microchip/xc32/v1.21/bin/../lib/gcc/pic32mx/4.5.2/../../../../pic32mx/lib/size\libmchp_peripheral_32MX795F512L.a(eth_miim_access.o)
 .debug_pubnames
                0x000074e9       0x20 c:/program files/microchip/xc32/v1.21/bin/../lib/gcc/pic32mx/4.5.2/../../../../pic32mx/lib/size\libmchp_peripheral_32MX795F512L.a(soft_reset_lib.o)
 .debug_pubnames
                0x00007509       0x3b c:/program files/microchip/xc32/v1.21/bin/../lib/gcc/pic32mx/4.5.2/../../../../pic32mx/lib/size\libmchp_peripheral_32MX795F512L.a(pcache.o)
 .debug_pubnames
                0x00007544       0x2b c:/program files/microchip/xc32/v1.21/bin/../lib/gcc/pic32mx/4.5.2/../../../../pic32mx/lib/size\libmchp_peripheral_32MX795F512L.a(int_disable_interrupts_lib.o)
 .debug_pubnames
                0x0000756f       0x2b c:/program files/microchip/xc32/v1.21/bin/../lib/gcc/pic32mx/4.5.2/../../../../pic32mx/lib/size\libmchp_peripheral_32MX795F512L.a(int_restore_interrupts_lib.o)
 .debug_pubnames
                0x0000759a       0x36 c:/program files/microchip/xc32/v1.21/bin/../lib/gcc/pic32mx/4.5.2/../../../../pic32mx/lib/size\libmchp_peripheral_32MX795F512L.a(int_enable_mv_int_lib.o)
 .debug_pubnames
                0x000075d0       0xca c:/program files/microchip/xc32/v1.21/bin/../lib/gcc/pic32mx/4.5.2/../../../../pic32mx/lib/size\libmchp_peripheral_32MX795F512L.a(int_tbl_lib.o)
 .debug_pubnames
                0x0000769a       0x1f c:/program files/microchip/xc32/v1.21/bin/../lib/gcc/pic32mx/4.5.2/../../../../pic32mx/lib/size\libmchp_peripheral_32MX795F512L.a(rtcc_init_lib.o)
 .debug_pubnames
                0x000076b9       0x1f c:/program files/microchip/xc32/v1.21/bin/../lib/gcc/pic32mx/4.5.2/../../../../pic32mx/lib/size\libmchp_peripheral_32MX795F512L.a(rtcc_open_lib.o)
 .debug_pubnames
                0x000076d8       0x24 c:/program files/microchip/xc32/v1.21/bin/../lib/gcc/pic32mx/4.5.2/../../../../pic32mx/lib/size\libmchp_peripheral_32MX795F512L.a(spi_chn_data_rdy_lib.o)
 .debug_pubnames
                0x000076fc       0x31 c:/program files/microchip/xc32/v1.21/bin/../lib/gcc/pic32mx/4.5.2/../../../../pic32mx/lib/size\libmchp_peripheral_32MX795F512L.a(spi_chn_getc_lib.o)
 .debug_pubnames
                0x0000772d       0x21 c:/program files/microchip/xc32/v1.21/bin/../lib/gcc/pic32mx/4.5.2/../../../../pic32mx/lib/size\libmchp_peripheral_32MX795F512L.a(spi_chn_open_lib.o)
 .debug_pubnames
                0x0000774e       0x43 c:/program files/microchip/xc32/v1.21/bin/../lib/gcc/pic32mx/4.5.2/../../../../pic32mx/lib/size\libmchp_peripheral_32MX795F512L.a(spi_chn_putc_lib.o)
 .debug_pubnames
                0x00007791       0x28 c:/program files/microchip/xc32/v1.21/bin/../lib/gcc/pic32mx/4.5.2/../../../../pic32mx/lib/size\libmchp_peripheral_32MX795F512L.a(spi_chn_tx_buff_empty_lib.o)
 .debug_pubnames
                0x000077b9       0x2b c:/program files/microchip/xc32/v1.21/bin/../lib/gcc/pic32mx/4.5.2/../../../../pic32mx/lib/size\libmchp_peripheral_32MX795F512L.a(port_set_pins_digital_in_lib.o)
 .debug_pubnames
                0x000077e4       0x2c c:/program files/microchip/xc32/v1.21/bin/../lib/gcc/pic32mx/4.5.2/../../../../pic32mx/lib/size\libmchp_peripheral_32MX795F512L.a(port_set_pins_digital_out_lib.o)
 .debug_pubnames
                0x00007810       0x2a c:/program files/microchip/xc32/v1.21/bin/../lib/gcc/pic32mx/4.5.2/../../../../pic32mx/lib/size\libmchp_peripheral_32MX795F512L.a(int_enable_interrupts_lib.o)
 .debug_pubnames
                0x0000783a       0x3e c:/program files/microchip/xc32/v1.21/bin/../lib/gcc/pic32mx/4.5.2/../../../../pic32mx/lib/size\libmchp_peripheral_32MX795F512L.a(_rtcc_wait_clock_off_lib.o)
 .debug_pubnames
                0x00007878       0x24 c:/program files/microchip/xc32/v1.21/bin/../lib/gcc/pic32mx/4.5.2/../../../../pic32mx/lib/size\libmchp_peripheral_32MX795F512L.a(read_core_timer_lib.o)
 .debug_pubnames
                0x0000789c       0x20 c:/program files/microchip/xc32/v1.21/bin/../lib/gcc/pic32mx/4.5.2/size\libgcc.a(_udivdi3.o)
 .debug_pubnames
                0x000078bc       0x24 c:/program files/microchip/xc32/v1.21/bin/../lib/gcc/pic32mx/4.5.2/size\libgcc.a(floatunsisf.o)
 .debug_pubnames
                0x000078e0       0x33 c:/program files/microchip/xc32/v1.21/bin/../lib/gcc/pic32mx/4.5.2/../../../../pic32mx/lib/size\libpic32.a(default-bootstrap-exception-handler.o)
 .debug_pubnames
                0x00007913       0x20 c:/program files/microchip/xc32/v1.21/bin/../lib/gcc/pic32mx/4.5.2/../../../../pic32mx/lib/size\libpic32.a(default-on-reset.o)
 .debug_pubnames
                0x00007933       0x24 c:/program files/microchip/xc32/v1.21/bin/../lib/gcc/pic32mx/4.5.2/../../../../pic32mx/lib/size\libpic32.a(default-on-bootstrap.o)
 .debug_pubnames
                0x00007957       0x28 c:/program files/microchip/xc32/v1.21/bin/../lib/gcc/pic32mx/4.5.2/../../../../pic32mx/lib/size\libpic32.a(defaultinterrupt.o)
 .debug_pubnames
                0x0000797f       0x69 c:/program files/microchip/xc32/v1.21/bin/../lib/gcc/pic32mx/4.5.2/../../../../pic32mx/lib/size\libdebug.a(db_utils.o)
 .debug_pubnames
                0x000079e8       0x1b c:/program files/microchip/xc32/v1.21/bin/../lib/gcc/pic32mx/4.5.2/../../../../pic32mx/lib/size\libc.a(atoi.o)
 .debug_pubnames
                0x00007a03       0x1b c:/program files/microchip/xc32/v1.21/bin/../lib/gcc/pic32mx/4.5.2/../../../../pic32mx/lib/size\libc.a(atol.o)
 .debug_pubnames
                0x00007a1e       0x1d c:/program files/microchip/xc32/v1.21/bin/../lib/gcc/pic32mx/4.5.2/../../../../pic32mx/lib/size\libc.a(calloc.o)
 .debug_pubnames
                0x00007a3b       0x32 c:/program files/microchip/xc32/v1.21/bin/../lib/gcc/pic32mx/4.5.2/../../../../pic32mx/lib/size\libc.a(malloc.o)
 .debug_pubnames
                0x00007a6d       0x25 c:/program files/microchip/xc32/v1.21/bin/../lib/gcc/pic32mx/4.5.2/../../../../pic32mx/lib/size\libc.a(rand.o)
 .debug_pubnames
                0x00007a92       0x29 c:/program files/microchip/xc32/v1.21/bin/../lib/gcc/pic32mx/4.5.2/../../../../pic32mx/lib/size\libc.a(setbuf.o)
 .debug_pubnames
                0x00007abb       0x1d c:/program files/microchip/xc32/v1.21/bin/../lib/gcc/pic32mx/4.5.2/../../../../pic32mx/lib/size\libc.a(strcat.o)
 .debug_pubnames
                0x00007ad8       0x1d c:/program files/microchip/xc32/v1.21/bin/../lib/gcc/pic32mx/4.5.2/../../../../pic32mx/lib/size\libc.a(strchr.o)
 .debug_pubnames
                0x00007af5       0x1e c:/program files/microchip/xc32/v1.21/bin/../lib/gcc/pic32mx/4.5.2/../../../../pic32mx/lib/size\libc.a(strncmp.o)
 .debug_pubnames
                0x00007b13       0x1e c:/program files/microchip/xc32/v1.21/bin/../lib/gcc/pic32mx/4.5.2/../../../../pic32mx/lib/size\libc.a(strncpy.o)
 .debug_pubnames
                0x00007b31       0x1e c:/program files/microchip/xc32/v1.21/bin/../lib/gcc/pic32mx/4.5.2/../../../../pic32mx/lib/size\libc.a(strrchr.o)
 .debug_pubnames
                0x00007b4f       0x1d c:/program files/microchip/xc32/v1.21/bin/../lib/gcc/pic32mx/4.5.2/../../../../pic32mx/lib/size\libc.a(strstr.o)
 .debug_pubnames
                0x00007b6c       0x1d c:/program files/microchip/xc32/v1.21/bin/../lib/gcc/pic32mx/4.5.2/../../../../pic32mx/lib/size\libc.a(strtok.o)
 .debug_pubnames
                0x00007b89       0x2a c:/program files/microchip/xc32/v1.21/bin/../lib/gcc/pic32mx/4.5.2/../../../../pic32mx/lib/size\libc.a(snprintf_cdnopsuxX.eo)
 .debug_pubnames
                0x00007bb3       0x29 c:/program files/microchip/xc32/v1.21/bin/../lib/gcc/pic32mx/4.5.2/../../../../pic32mx/lib/size\libc.a(sprintf_cdnopsuxX.eo)
 .debug_pubnames
                0x00007bdc       0x2b c:/program files/microchip/xc32/v1.21/bin/../lib/gcc/pic32mx/4.5.2/../../../../pic32mx/lib/size\libc.a(vsnprintf_cdnopsuxX.eo)
 .debug_pubnames
                0x00007c07       0x20 c:/program files/microchip/xc32/v1.21/bin/../lib/gcc/pic32mx/4.5.2/../../../../pic32mx/lib/size\libc.a(vsnprintf.o)
 .debug_pubnames
                0x00007c27       0x2c c:/program files/microchip/xc32/v1.21/bin/../lib/gcc/pic32mx/4.5.2/../../../../pic32mx/lib/size\libc.a(buf.o)
 .debug_pubnames
                0x00007c53       0x1e c:/program files/microchip/xc32/v1.21/bin/../lib/gcc/pic32mx/4.5.2/../../../../pic32mx/lib/size\libc.a(strcspn.o)
 .debug_pubnames
                0x00007c71       0x1d c:/program files/microchip/xc32/v1.21/bin/../lib/gcc/pic32mx/4.5.2/../../../../pic32mx/lib/size\libc.a(strspn.o)
 .debug_pubnames
                0x00007c8e       0x2a c:/program files/microchip/xc32/v1.21/bin/../lib/gcc/pic32mx/4.5.2/../../../../pic32mx/lib/size\libc.a(doprnt_cdnopsuxX.eo)
 .debug_pubnames
                0x00007cb8       0x1f c:/program files/microchip/xc32/v1.21/bin/../lib/gcc/pic32mx/4.5.2/../../../../pic32mx/lib/size\libc.a(doprnt.o)
 .debug_pubnames
                0x00007cd7       0x1c c:/program files/microchip/xc32/v1.21/bin/../lib/gcc/pic32mx/4.5.2/../../../../pic32mx/lib/size\libc.a(_fputc_simple.o)
 .debug_pubnames
                0x00007cf3       0x1e c:/program files/microchip/xc32/v1.21/bin/../lib/gcc/pic32mx/4.5.2/../../../../pic32mx/lib/size\libc.a(_flsbuf_simple.o)
 .debug_pubnames
                0x00007d11       0x5c c:/program files/microchip/xc32/v1.21/bin/../lib/gcc/pic32mx/4.5.2/../../../../pic32mx/lib/size\libpic32.a(sbrk.o)
 .debug_pubnames
                0x00007d6d       0x1c c:/program files/microchip/xc32/v1.21/bin/../lib/gcc/pic32mx/4.5.2/../../../../pic32mx/lib/size\libpic32.a(write.o)
 .debug_pubnames
                0x00007d89       0x22 c:/program files/microchip/xc32/v1.21/bin/../lib/gcc/pic32mx/4.5.2/../../../../pic32mx/lib/size\libe.a(_floatdisf.o)
 .debug_pubnames
                0x00007dab       0x20 c:/program files/microchip/xc32/v1.21/bin/../lib/gcc/pic32mx/4.5.2/size\libgcc.a(_lshrdi3.o)
 .debug_pubnames
                0x00007dcb       0x24 c:/program files/microchip/xc32/v1.21/bin/../lib/gcc/pic32mx/4.5.2/size\libgcc.a(_floatundisf.o)
 .debug_pubnames
                0x00007def       0x20 c:/program files/microchip/xc32/v1.21/bin/../lib/gcc/pic32mx/4.5.2/size\libgcc.a(_umoddi3.o)

.debug_info     0x00000000    0xd1eac
 *(.debug_info .gnu.linkonce.wi.*)
 .debug_info    0x00000000     0x1612 build/default/debug/_ext/979510709/bsp.o
 .debug_info    0x00001612      0x23b build/default/debug/_ext/101875047/lfsr.o
 .debug_info    0x0000184d      0x84c build/default/debug/_ext/101875047/hashes.o
 .debug_info    0x00002099     0x1824 build/default/debug/_ext/101875047/big_int.o
 .debug_info    0x000038bd       0xd1 build/default/debug/_ext/101875047/big_int_helper_c32.o
 .debug_info    0x0000398e      0x539 build/default/debug/_ext/101875047/helpers.o
 .debug_info    0x00003ec7        0x0 build/default/debug/_ext/1472/berkeley_tcp_client_demo.o
 .debug_info    0x00003ec7        0x0 build/default/debug/_ext/1472/berkeley_tcp_server_demo.o
 .debug_info    0x00003ec7        0x0 build/default/debug/_ext/1472/berkeley_udp_client_demo.o
 .debug_info    0x00003ec7     0x1b55 build/default/debug/_ext/1472/generic_tcp_client.o
 .debug_info    0x00005a1c     0x144f build/default/debug/_ext/1472/generic_tcp_server.o
 .debug_info    0x00006e6b     0x1b3b build/default/debug/_ext/1472/ping_demo.o
 .debug_info    0x000089a6     0x1d48 build/default/debug/_ext/1472/smtp_demo.o
 .debug_info    0x0000a6ee     0x3583 build/default/debug/_ext/365611741/system_services.o
 .debug_info    0x0000dc71     0x16c7 build/default/debug/_ext/365611741/system_debug.o
 .debug_info    0x0000f338     0x1d29 build/default/debug/_ext/365611741/system_random.o
 .debug_info    0x00011061     0x1b61 build/default/debug/_ext/365611741/system_command.o
 .debug_info    0x00012bc2     0x21a0 build/default/debug/_ext/365611741/system_userio.o
 .debug_info    0x00014d62     0x2d80 build/default/debug/_ext/97638081/sys_fs.o
 .debug_info    0x00017ae2     0x1da0 build/default/debug/_ext/97638081/mpfs2.o
 .debug_info    0x00019882     0x173e build/default/debug/_ext/792872985/usart.o
 .debug_info    0x0001afc0        0x0 build/default/debug/_ext/792872985/lcd.o
 .debug_info    0x0001afc0     0x1767 build/default/debug/_ext/792872985/drv_spi.o
 .debug_info    0x0001c727     0x10dd build/default/debug/_ext/792872985/db_appio.o
 .debug_info    0x0001d804     0x125c build/default/debug/_ext/792872985/spi_ram.o
 .debug_info    0x0001ea60     0x125f build/default/debug/_ext/792872985/spi_eeprom.o
 .debug_info    0x0001fcbf     0x125e build/default/debug/_ext/792872985/spi_flash.o
 .debug_info    0x00020f1d     0x20a2 build/default/debug/_ext/792872985/drv_media.o
 .debug_info    0x00022fbf     0x23f6 build/default/debug/_ext/427700826/tcpip_announce.o
 .debug_info    0x000253b5     0x3d54 build/default/debug/_ext/427700826/http2.o
 .debug_info    0x00029109     0x15eb build/default/debug/_ext/427700826/arcfour.o
 .debug_info    0x0002a6f4     0x3eef build/default/debug/_ext/427700826/arp.o
 .debug_info    0x0002e5e3     0x1462 build/default/debug/_ext/427700826/berkeley_api.o
 .debug_info    0x0002fa45     0x392a build/default/debug/_ext/427700826/dhcp.o
 .debug_info    0x0003336f     0x1532 build/default/debug/_ext/427700826/dhcps.o
 .debug_info    0x000348a1     0x2aad build/default/debug/_ext/427700826/dns.o
 .debug_info    0x0003734e     0x145a build/default/debug/_ext/427700826/dnss.o
 .debug_info    0x000387a8     0x145d build/default/debug/_ext/427700826/dyn_dns.o
 .debug_info    0x00039c05     0x145f build/default/debug/_ext/427700826/enc28_mac.o
 .debug_info    0x0003b064     0x145e build/default/debug/_ext/427700826/enc28j60.o
 .debug_info    0x0003c4c2     0x1460 build/default/debug/_ext/427700826/encs24j600.o
 .debug_info    0x0003d922     0x1460 build/default/debug/_ext/427700826/encx24_mac.o
 .debug_info    0x0003ed82     0x27df build/default/debug/_ext/427700826/eth_pic32_ext_phy.o
 .debug_info    0x00041561     0x19ab build/default/debug/_ext/427700826/eth_pic32_ext_phy_dp83848.o
 .debug_info    0x00042f0c     0x4ed3 build/default/debug/_ext/427700826/eth_pic32_int_mac.o
 .debug_info    0x00047ddf     0x1459 build/default/debug/_ext/427700826/ftp.o
 .debug_info    0x00049238      0x297 build/default/debug/_ext/427700826/hash_fnv.o
 .debug_info    0x000494cf      0x7c1 build/default/debug/_ext/427700826/hash_tbl.o
 .debug_info    0x00049c90     0x2878 build/default/debug/_ext/427700826/icmp.o
 .debug_info    0x0004c508     0x145c build/default/debug/_ext/427700826/icmpv6.o
 .debug_info    0x0004d964     0x3cc5 build/default/debug/_ext/427700826/ipv4.o
 .debug_info    0x00051629     0x145a build/default/debug/_ext/427700826/ipv6.o
 .debug_info    0x00052a83     0x2cb9 build/default/debug/_ext/427700826/mac_events_pic32.o
 .debug_info    0x0005573c     0x2899 build/default/debug/_ext/427700826/nbns.o
 .debug_info    0x00057fd5     0x1459 build/default/debug/_ext/427700826/ndp.o
 .debug_info    0x0005942e     0x1462 build/default/debug/_ext/427700826/tcpip_reboot.o
 .debug_info    0x0005a890     0x28c8 build/default/debug/_ext/427700826/rsa.o
 .debug_info    0x0005d158     0x2a3b build/default/debug/_ext/427700826/smtp.o
 .debug_info    0x0005fb93     0x145a build/default/debug/_ext/427700826/snmp.o
 .debug_info    0x00060fed     0x145c build/default/debug/_ext/427700826/snmpv3.o
 .debug_info    0x00062449     0x1460 build/default/debug/_ext/427700826/snmpv3_usm.o
 .debug_info    0x000638a9     0x145a build/default/debug/_ext/427700826/sntp.o
 .debug_info    0x00064d03     0x4958 build/default/debug/_ext/427700826/ssl.o
 .debug_info    0x0006965b     0x6356 build/default/debug/_ext/427700826/tcp.o
 .debug_info    0x0006f9b1     0x1fd2 build/default/debug/_ext/427700826/tcpip_heap_alloc.o
 .debug_info    0x00071983     0x1463 build/default/debug/_ext/427700826/tcpip_storage.o
 .debug_info    0x00072de6     0x25e6 build/default/debug/_ext/427700826/telnet.o
 .debug_info    0x000753cc     0x145b build/default/debug/_ext/427700826/tftpc.o
 .debug_info    0x00076827     0x438c build/default/debug/_ext/427700826/udp.o
 .debug_info    0x0007abb3     0x2321 build/default/debug/_ext/427700826/tcpip_mac_object.o
 .debug_info    0x0007ced4     0x53fd build/default/debug/_ext/427700826/tcpip_manager.o
 .debug_info    0x000822d1     0x27ea build/default/debug/_ext/427700826/tcpip_helpers.o
 .debug_info    0x00084abb     0x3059 build/default/debug/_ext/427700826/tcpip_commands.o
 .debug_info    0x00087b14     0x3880 build/default/debug/_ext/427700826/iperf.o
 .debug_info    0x0008b394       0xce build/default/debug/_ext/427700826/tcpip_helper_c32.o
 .debug_info    0x0008b462      0x3ac build/default/debug/_ext/427700826/tcpip_notify.o
 .debug_info    0x0008b80e     0x1552 build/default/debug/_ext/427700826/zero_conf_helper.o
 .debug_info    0x0008cd60     0x2b9d build/default/debug/_ext/427700826/zero_conf_link_local.o
 .debug_info    0x0008f8fd     0x478b build/default/debug/_ext/427700826/zero_conf_multicast_dns.o
 .debug_info    0x00094088     0x19d7 build/default/debug/_ext/334706090/wf_tx_power.o
 .debug_info    0x00095a5f     0x1c26 build/default/debug/_ext/334706090/wf_connect.o
 .debug_info    0x00097685     0x225f build/default/debug/_ext/334706090/wf_connection_algorithm.o
 .debug_info    0x000998e4     0x252f build/default/debug/_ext/334706090/wf_connection_manager.o
 .debug_info    0x0009be13     0x274a build/default/debug/_ext/334706090/wf_connection_profile.o
 .debug_info    0x0009e55d     0x18a8 build/default/debug/_ext/334706090/wf_easy_config.o
 .debug_info    0x0009fe05     0x25a7 build/default/debug/_ext/334706090/wf_eint.o
 .debug_info    0x000a23ac     0x1b88 build/default/debug/_ext/334706090/wf_event_handler.o
 .debug_info    0x000a3f34     0x1d6f build/default/debug/_ext/334706090/wf_init.o
 .debug_info    0x000a5ca3     0x1ffc build/default/debug/_ext/334706090/wf_power_save.o
 .debug_info    0x000a7c9f     0x2155 build/default/debug/_ext/334706090/wf_scan.o
 .debug_info    0x000a9df4     0x1c8f build/default/debug/_ext/334706090/wf_spi.o
 .debug_info    0x000aba83     0x352f build/default/debug/_ext/334706090/mrf24w_mac_pic32.o
 .debug_info    0x000aefb2     0x1ebe build/default/debug/_ext/334706090/mrf24w_events.o
 .debug_info    0x000b0e70     0x29fc build/default/debug/_ext/334706090/wf_debug_output.o
 .debug_info    0x000b386c     0x236a build/default/debug/_ext/334706090/wf_commands.o
 .debug_info    0x000b5bd6     0x1464 build/default/debug/_ext/334706090/wf_pbkdf2.o
 .debug_info    0x000b703a     0x27ab build/default/debug/_ext/334706090/wf_driver_com_24g.o
 .debug_info    0x000b97e5     0x1ec2 build/default/debug/_ext/334706090/wf_driver_raw_24g.o
 .debug_info    0x000bb6a7     0x268e build/default/debug/_ext/334706090/wf_mac_24g.o
 .debug_info    0x000bdd35     0x1f87 build/default/debug/_ext/334706090/wf_mgmt_msg_24g.o
 .debug_info    0x000bfcbc     0x2a32 build/default/debug/_ext/334706090/wf_param_msg_24g.o
 .debug_info    0x000c26ee     0x1d40 build/default/debug/_ext/334706090/wf_configData.o
 .debug_info    0x000c442e     0x2711 build/default/debug/_ext/1472/main_demo.o
 .debug_info    0x000c6b3f        0x0 build/default/debug/_ext/1472/custom_snmp_app.o
 .debug_info    0x000c6b3f     0x13b3 build/default/debug/_ext/1472/custom_ssl_cert.o
 .debug_info    0x000c7ef2     0x131f build/default/debug/_ext/1472/mpfs_img2.o
 .debug_info    0x000c9211     0x14d3 build/default/debug/_ext/1472/wf_config.o
 .debug_info    0x000ca6e4     0x29a6 build/default/debug/_ext/1472/custom_http_app.o
 .debug_info    0x000cd08a       0xaa c:/program files/microchip/xc32/v1.21/bin/../lib/gcc/pic32mx/4.5.2/../../../../pic32mx/lib/size\libmchp_peripheral.a(open_core_timer_lib.o)
 .debug_info    0x000cd134      0x16b c:/program files/microchip/xc32/v1.21/bin/../lib/gcc/pic32mx/4.5.2/../../../../pic32mx/lib/size\libmchp_peripheral_32MX795F512L.a(eth_ack_packet_lib.o)
 .debug_info    0x000cd29f       0xaf c:/program files/microchip/xc32/v1.21/bin/../lib/gcc/pic32mx/4.5.2/../../../../pic32mx/lib/size\libmchp_peripheral_32MX795F512L.a(eth_close_lib.o)
 .debug_info    0x000cd34e       0xf2 c:/program files/microchip/xc32/v1.21/bin/../lib/gcc/pic32mx/4.5.2/../../../../pic32mx/lib/size\libmchp_peripheral_32MX795F512L.a(eth_descriptors_add_lib.o)
 .debug_info    0x000cd440      0x1a6 c:/program files/microchip/xc32/v1.21/bin/../lib/gcc/pic32mx/4.5.2/../../../../pic32mx/lib/size\libmchp_peripheral_32MX795F512L.a(eth_descriptors_remove_lib.o)
 .debug_info    0x000cd5e6      0x10d c:/program files/microchip/xc32/v1.21/bin/../lib/gcc/pic32mx/4.5.2/../../../../pic32mx/lib/size\libmchp_peripheral_32MX795F512L.a(eth_events_lib.o)
 .debug_info    0x000cd6f3       0xbe c:/program files/microchip/xc32/v1.21/bin/../lib/gcc/pic32mx/4.5.2/../../../../pic32mx/lib/size\libmchp_peripheral_32MX795F512L.a(eth_init_lib.o)
 .debug_info    0x000cd7b1       0xa2 c:/program files/microchip/xc32/v1.21/bin/../lib/gcc/pic32mx/4.5.2/../../../../pic32mx/lib/size\libmchp_peripheral_32MX795F512L.a(eth_mac_open_lib.o)
 .debug_info    0x000cd853       0xf2 c:/program files/microchip/xc32/v1.21/bin/../lib/gcc/pic32mx/4.5.2/../../../../pic32mx/lib/size\libmchp_peripheral_32MX795F512L.a(eth_mac_set_address_max_lib.o)
 .debug_info    0x000cd945       0xe6 c:/program files/microchip/xc32/v1.21/bin/../lib/gcc/pic32mx/4.5.2/../../../../pic32mx/lib/size\libmchp_peripheral_32MX795F512L.a(eth_rx_buffers_append_lib.o)
 .debug_info    0x000cda2b      0x147 c:/program files/microchip/xc32/v1.21/bin/../lib/gcc/pic32mx/4.5.2/../../../../pic32mx/lib/size\libmchp_peripheral_32MX795F512L.a(eth_rx_filters_lib.o)
 .debug_info    0x000cdb72       0xc8 c:/program files/microchip/xc32/v1.21/bin/../lib/gcc/pic32mx/4.5.2/../../../../pic32mx/lib/size\libmchp_peripheral_32MX795F512L.a(eth_rx_get_packet_lib.o)
 .debug_info    0x000cdc3a       0xb4 c:/program files/microchip/xc32/v1.21/bin/../lib/gcc/pic32mx/4.5.2/../../../../pic32mx/lib/size\libmchp_peripheral_32MX795F512L.a(eth_rx_set_buffer_size_lib.o)
 .debug_info    0x000cdcee      0x176 c:/program files/microchip/xc32/v1.21/bin/../lib/gcc/pic32mx/4.5.2/../../../../pic32mx/lib/size\libmchp_peripheral_32MX795F512L.a(eth_tx_packet_lib.o)
 .debug_info    0x000cde64       0xd4 c:/program files/microchip/xc32/v1.21/bin/../lib/gcc/pic32mx/4.5.2/../../../../pic32mx/lib/size\libmchp_peripheral_32MX795F512L.a(_eth_append_busy_list_lib.o)
 .debug_info    0x000cdf38      0x143 c:/program files/microchip/xc32/v1.21/bin/../lib/gcc/pic32mx/4.5.2/../../../../pic32mx/lib/size\libmchp_peripheral_32MX795F512L.a(eth_miim_access.o)
 .debug_info    0x000ce07b       0xb2 c:/program files/microchip/xc32/v1.21/bin/../lib/gcc/pic32mx/4.5.2/../../../../pic32mx/lib/size\libmchp_peripheral_32MX795F512L.a(soft_reset_lib.o)
 .debug_info    0x000ce12d       0xbf c:/program files/microchip/xc32/v1.21/bin/../lib/gcc/pic32mx/4.5.2/../../../../pic32mx/lib/size\libmchp_peripheral_32MX795F512L.a(pcache.o)
 .debug_info    0x000ce1ec       0xb6 c:/program files/microchip/xc32/v1.21/bin/../lib/gcc/pic32mx/4.5.2/../../../../pic32mx/lib/size\libmchp_peripheral_32MX795F512L.a(int_disable_interrupts_lib.o)
 .debug_info    0x000ce2a2       0xb6 c:/program files/microchip/xc32/v1.21/bin/../lib/gcc/pic32mx/4.5.2/../../../../pic32mx/lib/size\libmchp_peripheral_32MX795F512L.a(int_restore_interrupts_lib.o)
 .debug_info    0x000ce358       0xbc c:/program files/microchip/xc32/v1.21/bin/../lib/gcc/pic32mx/4.5.2/../../../../pic32mx/lib/size\libmchp_peripheral_32MX795F512L.a(int_enable_mv_int_lib.o)
 .debug_info    0x000ce414      0x196 c:/program files/microchip/xc32/v1.21/bin/../lib/gcc/pic32mx/4.5.2/../../../../pic32mx/lib/size\libmchp_peripheral_32MX795F512L.a(int_tbl_lib.o)
 .debug_info    0x000ce5aa      0x10c c:/program files/microchip/xc32/v1.21/bin/../lib/gcc/pic32mx/4.5.2/../../../../pic32mx/lib/size\libmchp_peripheral_32MX795F512L.a(rtcc_init_lib.o)
 .debug_info    0x000ce6b6      0x10c c:/program files/microchip/xc32/v1.21/bin/../lib/gcc/pic32mx/4.5.2/../../../../pic32mx/lib/size\libmchp_peripheral_32MX795F512L.a(rtcc_open_lib.o)
 .debug_info    0x000ce7c2       0xbc c:/program files/microchip/xc32/v1.21/bin/../lib/gcc/pic32mx/4.5.2/../../../../pic32mx/lib/size\libmchp_peripheral_32MX795F512L.a(spi_chn_data_rdy_lib.o)
 .debug_info    0x000ce87e       0xcf c:/program files/microchip/xc32/v1.21/bin/../lib/gcc/pic32mx/4.5.2/../../../../pic32mx/lib/size\libmchp_peripheral_32MX795F512L.a(spi_chn_getc_lib.o)
 .debug_info    0x000ce94d       0xa2 c:/program files/microchip/xc32/v1.21/bin/../lib/gcc/pic32mx/4.5.2/../../../../pic32mx/lib/size\libmchp_peripheral_32MX795F512L.a(spi_chn_open_lib.o)
 .debug_info    0x000ce9ef       0xeb c:/program files/microchip/xc32/v1.21/bin/../lib/gcc/pic32mx/4.5.2/../../../../pic32mx/lib/size\libmchp_peripheral_32MX795F512L.a(spi_chn_putc_lib.o)
 .debug_info    0x000ceada       0xb2 c:/program files/microchip/xc32/v1.21/bin/../lib/gcc/pic32mx/4.5.2/../../../../pic32mx/lib/size\libmchp_peripheral_32MX795F512L.a(spi_chn_tx_buff_empty_lib.o)
 .debug_info    0x000ceb8c        0x0 c:/program files/microchip/xc32/v1.21/bin/../lib/gcc/pic32mx/4.5.2/../../../../pic32mx/lib/size\libmchp_peripheral_32MX795F512L.a(spi_io_tbl_libp.o)
 .debug_info    0x000ceb8c        0x0 c:/program files/microchip/xc32/v1.21/bin/../lib/gcc/pic32mx/4.5.2/../../../../pic32mx/lib/size\libmchp_peripheral_32MX795F512L.a(spi_map_tbl_libp.o)
 .debug_info    0x000ceb8c       0xba c:/program files/microchip/xc32/v1.21/bin/../lib/gcc/pic32mx/4.5.2/../../../../pic32mx/lib/size\libmchp_peripheral_32MX795F512L.a(port_set_pins_digital_in_lib.o)
 .debug_info    0x000cec46       0xbc c:/program files/microchip/xc32/v1.21/bin/../lib/gcc/pic32mx/4.5.2/../../../../pic32mx/lib/size\libmchp_peripheral_32MX795F512L.a(port_set_pins_digital_out_lib.o)
 .debug_info    0x000ced02        0x0 c:/program files/microchip/xc32/v1.21/bin/../lib/gcc/pic32mx/4.5.2/../../../../pic32mx/lib/size\libmchp_peripheral_32MX795F512L.a(_ports_tbl_libp.o)
 .debug_info    0x000ced02       0xb4 c:/program files/microchip/xc32/v1.21/bin/../lib/gcc/pic32mx/4.5.2/../../../../pic32mx/lib/size\libmchp_peripheral_32MX795F512L.a(int_enable_interrupts_lib.o)
 .debug_info    0x000cedb6       0xe7 c:/program files/microchip/xc32/v1.21/bin/../lib/gcc/pic32mx/4.5.2/../../../../pic32mx/lib/size\libmchp_peripheral_32MX795F512L.a(_rtcc_wait_clock_off_lib.o)
 .debug_info    0x000cee9d       0xaa c:/program files/microchip/xc32/v1.21/bin/../lib/gcc/pic32mx/4.5.2/../../../../pic32mx/lib/size\libmchp_peripheral_32MX795F512L.a(read_core_timer_lib.o)
 .debug_info    0x000cef47      0x760 c:/program files/microchip/xc32/v1.21/bin/../lib/gcc/pic32mx/4.5.2/size\libgcc.a(_udivdi3.o)
 .debug_info    0x000cf6a7      0x165 c:/program files/microchip/xc32/v1.21/bin/../lib/gcc/pic32mx/4.5.2/size\libgcc.a(floatunsisf.o)
 .debug_info    0x000cf80c       0xe8 c:/program files/microchip/xc32/v1.21/bin/../lib/gcc/pic32mx/4.5.2/../../../../pic32mx/lib/size\libpic32.a(default-bootstrap-exception-handler.o)
 .debug_info    0x000cf8f4       0xc2 c:/program files/microchip/xc32/v1.21/bin/../lib/gcc/pic32mx/4.5.2/../../../../pic32mx/lib/size\libpic32.a(default-on-reset.o)
 .debug_info    0x000cf9b6       0xca c:/program files/microchip/xc32/v1.21/bin/../lib/gcc/pic32mx/4.5.2/../../../../pic32mx/lib/size\libpic32.a(default-on-bootstrap.o)
 .debug_info    0x000cfa80        0x0 c:/program files/microchip/xc32/v1.21/bin/../lib/gcc/pic32mx/4.5.2/../../../../pic32mx/lib/size\libpic32.a(errno.o)
 .debug_info    0x000cfa80       0xdc c:/program files/microchip/xc32/v1.21/bin/../lib/gcc/pic32mx/4.5.2/../../../../pic32mx/lib/size\libpic32.a(defaultinterrupt.o)
 .debug_info    0x000cfb5c      0x139 c:/program files/microchip/xc32/v1.21/bin/../lib/gcc/pic32mx/4.5.2/../../../../pic32mx/lib/size\libdebug.a(db_utils.o)
 .debug_info    0x000cfc95        0x0 c:/program files/microchip/xc32/v1.21/bin/../lib/gcc/pic32mx/4.5.2/../../../../pic32mx/lib/size\libpic32.a(xc32_uart.o)
 .debug_info    0x000cfc95        0x0 c:/program files/microchip/xc32/v1.21/bin/../lib/gcc/pic32mx/4.5.2/../../../../pic32mx/lib/size\libc.a(_iob.o)
 .debug_info    0x000cfc95       0xb3 c:/program files/microchip/xc32/v1.21/bin/../lib/gcc/pic32mx/4.5.2/../../../../pic32mx/lib/size\libc.a(atoi.o)
 .debug_info    0x000cfd48       0xb3 c:/program files/microchip/xc32/v1.21/bin/../lib/gcc/pic32mx/4.5.2/../../../../pic32mx/lib/size\libc.a(atol.o)
 .debug_info    0x000cfdfb       0xb7 c:/program files/microchip/xc32/v1.21/bin/../lib/gcc/pic32mx/4.5.2/../../../../pic32mx/lib/size\libc.a(calloc.o)
 .debug_info    0x000cfeb2        0x0 c:/program files/microchip/xc32/v1.21/bin/../lib/gcc/pic32mx/4.5.2/../../../../pic32mx/lib/size\libc.a(ctype.o)
 .debug_info    0x000cfeb2       0xe0 c:/program files/microchip/xc32/v1.21/bin/../lib/gcc/pic32mx/4.5.2/../../../../pic32mx/lib/size\libc.a(malloc.o)
 .debug_info    0x000cff92       0xc7 c:/program files/microchip/xc32/v1.21/bin/../lib/gcc/pic32mx/4.5.2/../../../../pic32mx/lib/size\libc.a(rand.o)
 .debug_info    0x000d0059       0xcd c:/program files/microchip/xc32/v1.21/bin/../lib/gcc/pic32mx/4.5.2/../../../../pic32mx/lib/size\libc.a(setbuf.o)
 .debug_info    0x000d0126       0xb7 c:/program files/microchip/xc32/v1.21/bin/../lib/gcc/pic32mx/4.5.2/../../../../pic32mx/lib/size\libc.a(strcat.o)
 .debug_info    0x000d01dd       0xb7 c:/program files/microchip/xc32/v1.21/bin/../lib/gcc/pic32mx/4.5.2/../../../../pic32mx/lib/size\libc.a(strchr.o)
 .debug_info    0x000d0294       0xb9 c:/program files/microchip/xc32/v1.21/bin/../lib/gcc/pic32mx/4.5.2/../../../../pic32mx/lib/size\libc.a(strncmp.o)
 .debug_info    0x000d034d       0xb9 c:/program files/microchip/xc32/v1.21/bin/../lib/gcc/pic32mx/4.5.2/../../../../pic32mx/lib/size\libc.a(strncpy.o)
 .debug_info    0x000d0406       0xb9 c:/program files/microchip/xc32/v1.21/bin/../lib/gcc/pic32mx/4.5.2/../../../../pic32mx/lib/size\libc.a(strrchr.o)
 .debug_info    0x000d04bf       0xb7 c:/program files/microchip/xc32/v1.21/bin/../lib/gcc/pic32mx/4.5.2/../../../../pic32mx/lib/size\libc.a(strstr.o)
 .debug_info    0x000d0576       0xb7 c:/program files/microchip/xc32/v1.21/bin/../lib/gcc/pic32mx/4.5.2/../../../../pic32mx/lib/size\libc.a(strtok.o)
 .debug_info    0x000d062d       0xc6 c:/program files/microchip/xc32/v1.21/bin/../lib/gcc/pic32mx/4.5.2/../../../../pic32mx/lib/size\libc.a(snprintf_cdnopsuxX.eo)
 .debug_info    0x000d06f3       0xc4 c:/program files/microchip/xc32/v1.21/bin/../lib/gcc/pic32mx/4.5.2/../../../../pic32mx/lib/size\libc.a(sprintf_cdnopsuxX.eo)
 .debug_info    0x000d07b7       0xc8 c:/program files/microchip/xc32/v1.21/bin/../lib/gcc/pic32mx/4.5.2/../../../../pic32mx/lib/size\libc.a(vsnprintf_cdnopsuxX.eo)
 .debug_info    0x000d087f       0xbd c:/program files/microchip/xc32/v1.21/bin/../lib/gcc/pic32mx/4.5.2/../../../../pic32mx/lib/size\libc.a(vsnprintf.o)
 .debug_info    0x000d093c       0xdc c:/program files/microchip/xc32/v1.21/bin/../lib/gcc/pic32mx/4.5.2/../../../../pic32mx/lib/size\libc.a(buf.o)
 .debug_info    0x000d0a18       0xb9 c:/program files/microchip/xc32/v1.21/bin/../lib/gcc/pic32mx/4.5.2/../../../../pic32mx/lib/size\libc.a(strcspn.o)
 .debug_info    0x000d0ad1       0xb7 c:/program files/microchip/xc32/v1.21/bin/../lib/gcc/pic32mx/4.5.2/../../../../pic32mx/lib/size\libc.a(strspn.o)
 .debug_info    0x000d0b88       0xc5 c:/program files/microchip/xc32/v1.21/bin/../lib/gcc/pic32mx/4.5.2/../../../../pic32mx/lib/size\libc.a(doprnt_cdnopsuxX.eo)
 .debug_info    0x000d0c4d       0xe3 c:/program files/microchip/xc32/v1.21/bin/../lib/gcc/pic32mx/4.5.2/../../../../pic32mx/lib/size\libc.a(doprnt.o)
 .debug_info    0x000d0d30       0xb5 c:/program files/microchip/xc32/v1.21/bin/../lib/gcc/pic32mx/4.5.2/../../../../pic32mx/lib/size\libc.a(_fputc_simple.o)
 .debug_info    0x000d0de5        0x0 c:/program files/microchip/xc32/v1.21/bin/../lib/gcc/pic32mx/4.5.2/../../../../pic32mx/lib/size\libc.a(powersf.o)
 .debug_info    0x000d0de5       0xb8 c:/program files/microchip/xc32/v1.21/bin/../lib/gcc/pic32mx/4.5.2/../../../../pic32mx/lib/size\libc.a(_flsbuf_simple.o)
 .debug_info    0x000d0e9d      0x11b c:/program files/microchip/xc32/v1.21/bin/../lib/gcc/pic32mx/4.5.2/../../../../pic32mx/lib/size\libpic32.a(sbrk.o)
 .debug_info    0x000d0fb8       0xb3 c:/program files/microchip/xc32/v1.21/bin/../lib/gcc/pic32mx/4.5.2/../../../../pic32mx/lib/size\libpic32.a(write.o)
 .debug_info    0x000d106b       0xd1 c:/program files/microchip/xc32/v1.21/bin/../lib/gcc/pic32mx/4.5.2/../../../../pic32mx/lib/size\libe.a(_floatdisf.o)
 .debug_info    0x000d113c      0x326 c:/program files/microchip/xc32/v1.21/bin/../lib/gcc/pic32mx/4.5.2/size\libgcc.a(_lshrdi3.o)
 .debug_info    0x000d1462      0x2ad c:/program files/microchip/xc32/v1.21/bin/../lib/gcc/pic32mx/4.5.2/size\libgcc.a(_floatundisf.o)
 .debug_info    0x000d170f      0x79d c:/program files/microchip/xc32/v1.21/bin/../lib/gcc/pic32mx/4.5.2/size\libgcc.a(_umoddi3.o)

.debug_abbrev   0x00000000    0x107bb
 *(.debug_abbrev)
 .debug_abbrev  0x00000000      0x1bc build/default/debug/_ext/979510709/bsp.o
 .debug_abbrev  0x000001bc       0x65 build/default/debug/_ext/101875047/lfsr.o
 .debug_abbrev  0x00000221      0x18e build/default/debug/_ext/101875047/hashes.o
 .debug_abbrev  0x000003af      0x231 build/default/debug/_ext/101875047/big_int.o
 .debug_abbrev  0x000005e0       0x14 build/default/debug/_ext/101875047/big_int_helper_c32.o
 .debug_abbrev  0x000005f4       0xfd build/default/debug/_ext/101875047/helpers.o
 .debug_abbrev  0x000006f1        0x1 build/default/debug/_ext/1472/berkeley_tcp_client_demo.o
 .debug_abbrev  0x000006f2        0x1 build/default/debug/_ext/1472/berkeley_tcp_server_demo.o
 .debug_abbrev  0x000006f3        0x1 build/default/debug/_ext/1472/berkeley_udp_client_demo.o
 .debug_abbrev  0x000006f4      0x218 build/default/debug/_ext/1472/generic_tcp_client.o
 .debug_abbrev  0x0000090c      0x1e4 build/default/debug/_ext/1472/generic_tcp_server.o
 .debug_abbrev  0x00000af0      0x27c build/default/debug/_ext/1472/ping_demo.o
 .debug_abbrev  0x00000d6c      0x202 build/default/debug/_ext/1472/smtp_demo.o
 .debug_abbrev  0x00000f6e      0x41d build/default/debug/_ext/365611741/system_services.o
 .debug_abbrev  0x0000138b      0x2d8 build/default/debug/_ext/365611741/system_debug.o
 .debug_abbrev  0x00001663      0x230 build/default/debug/_ext/365611741/system_random.o
 .debug_abbrev  0x00001893      0x2bf build/default/debug/_ext/365611741/system_command.o
 .debug_abbrev  0x00001b52      0x26c build/default/debug/_ext/365611741/system_userio.o
 .debug_abbrev  0x00001dbe      0x329 build/default/debug/_ext/97638081/sys_fs.o
 .debug_abbrev  0x000020e7      0x27d build/default/debug/_ext/97638081/mpfs2.o
 .debug_abbrev  0x00002364      0x218 build/default/debug/_ext/792872985/usart.o
 .debug_abbrev  0x0000257c        0x1 build/default/debug/_ext/792872985/lcd.o
 .debug_abbrev  0x0000257d      0x1e1 build/default/debug/_ext/792872985/drv_spi.o
 .debug_abbrev  0x0000275e      0x1e8 build/default/debug/_ext/792872985/db_appio.o
 .debug_abbrev  0x00002946      0x1a7 build/default/debug/_ext/792872985/spi_ram.o
 .debug_abbrev  0x00002aed      0x1a7 build/default/debug/_ext/792872985/spi_eeprom.o
 .debug_abbrev  0x00002c94      0x1a7 build/default/debug/_ext/792872985/spi_flash.o
 .debug_abbrev  0x00002e3b      0x29f build/default/debug/_ext/792872985/drv_media.o
 .debug_abbrev  0x000030da      0x36c build/default/debug/_ext/427700826/tcpip_announce.o
 .debug_abbrev  0x00003446      0x36a build/default/debug/_ext/427700826/http2.o
 .debug_abbrev  0x000037b0      0x1db build/default/debug/_ext/427700826/arcfour.o
 .debug_abbrev  0x0000398b      0x428 build/default/debug/_ext/427700826/arp.o
 .debug_abbrev  0x00003db3      0x1cc build/default/debug/_ext/427700826/berkeley_api.o
 .debug_abbrev  0x00003f7f      0x3ba build/default/debug/_ext/427700826/dhcp.o
 .debug_abbrev  0x00004339      0x1f9 build/default/debug/_ext/427700826/dhcps.o
 .debug_abbrev  0x00004532      0x36c build/default/debug/_ext/427700826/dns.o
 .debug_abbrev  0x0000489e      0x1cc build/default/debug/_ext/427700826/dnss.o
 .debug_abbrev  0x00004a6a      0x1cc build/default/debug/_ext/427700826/dyn_dns.o
 .debug_abbrev  0x00004c36      0x1cc build/default/debug/_ext/427700826/enc28_mac.o
 .debug_abbrev  0x00004e02      0x1cc build/default/debug/_ext/427700826/enc28j60.o
 .debug_abbrev  0x00004fce      0x1cc build/default/debug/_ext/427700826/encs24j600.o
 .debug_abbrev  0x0000519a      0x1cc build/default/debug/_ext/427700826/encx24_mac.o
 .debug_abbrev  0x00005366      0x341 build/default/debug/_ext/427700826/eth_pic32_ext_phy.o
 .debug_abbrev  0x000056a7      0x1f2 build/default/debug/_ext/427700826/eth_pic32_ext_phy_dp83848.o
 .debug_abbrev  0x00005899      0x3d7 build/default/debug/_ext/427700826/eth_pic32_int_mac.o
 .debug_abbrev  0x00005c70      0x1cc build/default/debug/_ext/427700826/ftp.o
 .debug_abbrev  0x00005e3c       0x8c build/default/debug/_ext/427700826/hash_fnv.o
 .debug_abbrev  0x00005ec8      0x1ca build/default/debug/_ext/427700826/hash_tbl.o
 .debug_abbrev  0x00006092      0x2ff build/default/debug/_ext/427700826/icmp.o
 .debug_abbrev  0x00006391      0x1cc build/default/debug/_ext/427700826/icmpv6.o
 .debug_abbrev  0x0000655d      0x3c7 build/default/debug/_ext/427700826/ipv4.o
 .debug_abbrev  0x00006924      0x1cc build/default/debug/_ext/427700826/ipv6.o
 .debug_abbrev  0x00006af0      0x321 build/default/debug/_ext/427700826/mac_events_pic32.o
 .debug_abbrev  0x00006e11      0x2c2 build/default/debug/_ext/427700826/nbns.o
 .debug_abbrev  0x000070d3      0x1cc build/default/debug/_ext/427700826/ndp.o
 .debug_abbrev  0x0000729f      0x1cc build/default/debug/_ext/427700826/tcpip_reboot.o
 .debug_abbrev  0x0000746b      0x35a build/default/debug/_ext/427700826/rsa.o
 .debug_abbrev  0x000077c5      0x34d build/default/debug/_ext/427700826/smtp.o
 .debug_abbrev  0x00007b12      0x1cc build/default/debug/_ext/427700826/snmp.o
 .debug_abbrev  0x00007cde      0x1cc build/default/debug/_ext/427700826/snmpv3.o
 .debug_abbrev  0x00007eaa      0x1cc build/default/debug/_ext/427700826/snmpv3_usm.o
 .debug_abbrev  0x00008076      0x1cc build/default/debug/_ext/427700826/sntp.o
 .debug_abbrev  0x00008242      0x38d build/default/debug/_ext/427700826/ssl.o
 .debug_abbrev  0x000085cf      0x3cd build/default/debug/_ext/427700826/tcp.o
 .debug_abbrev  0x0000899c      0x2ac build/default/debug/_ext/427700826/tcpip_heap_alloc.o
 .debug_abbrev  0x00008c48      0x1cc build/default/debug/_ext/427700826/tcpip_storage.o
 .debug_abbrev  0x00008e14      0x34d build/default/debug/_ext/427700826/telnet.o
 .debug_abbrev  0x00009161      0x1cc build/default/debug/_ext/427700826/tftpc.o
 .debug_abbrev  0x0000932d      0x3c4 build/default/debug/_ext/427700826/udp.o
 .debug_abbrev  0x000096f1      0x25e build/default/debug/_ext/427700826/tcpip_mac_object.o
 .debug_abbrev  0x0000994f      0x3ec build/default/debug/_ext/427700826/tcpip_manager.o
 .debug_abbrev  0x00009d3b      0x2a4 build/default/debug/_ext/427700826/tcpip_helpers.o
 .debug_abbrev  0x00009fdf      0x349 build/default/debug/_ext/427700826/tcpip_commands.o
 .debug_abbrev  0x0000a328      0x383 build/default/debug/_ext/427700826/iperf.o
 .debug_abbrev  0x0000a6ab       0x14 build/default/debug/_ext/427700826/tcpip_helper_c32.o
 .debug_abbrev  0x0000a6bf       0xd9 build/default/debug/_ext/427700826/tcpip_notify.o
 .debug_abbrev  0x0000a798      0x1ff build/default/debug/_ext/427700826/zero_conf_helper.o
 .debug_abbrev  0x0000a997      0x3a0 build/default/debug/_ext/427700826/zero_conf_link_local.o
 .debug_abbrev  0x0000ad37      0x3b5 build/default/debug/_ext/427700826/zero_conf_multicast_dns.o
 .debug_abbrev  0x0000b0ec      0x1f3 build/default/debug/_ext/334706090/wf_tx_power.o
 .debug_abbrev  0x0000b2df      0x28f build/default/debug/_ext/334706090/wf_connect.o
 .debug_abbrev  0x0000b56e      0x290 build/default/debug/_ext/334706090/wf_connection_algorithm.o
 .debug_abbrev  0x0000b7fe      0x263 build/default/debug/_ext/334706090/wf_connection_manager.o
 .debug_abbrev  0x0000ba61      0x2ee build/default/debug/_ext/334706090/wf_connection_profile.o
 .debug_abbrev  0x0000bd4f      0x211 build/default/debug/_ext/334706090/wf_easy_config.o
 .debug_abbrev  0x0000bf60      0x1f8 build/default/debug/_ext/334706090/wf_eint.o
 .debug_abbrev  0x0000c158      0x2d0 build/default/debug/_ext/334706090/wf_event_handler.o
 .debug_abbrev  0x0000c428      0x2c3 build/default/debug/_ext/334706090/wf_init.o
 .debug_abbrev  0x0000c6eb      0x2b4 build/default/debug/_ext/334706090/wf_power_save.o
 .debug_abbrev  0x0000c99f      0x21e build/default/debug/_ext/334706090/wf_scan.o
 .debug_abbrev  0x0000cbbd      0x250 build/default/debug/_ext/334706090/wf_spi.o
 .debug_abbrev  0x0000ce0d      0x310 build/default/debug/_ext/334706090/mrf24w_mac_pic32.o
 .debug_abbrev  0x0000d11d      0x270 build/default/debug/_ext/334706090/mrf24w_events.o
 .debug_abbrev  0x0000d38d      0x355 build/default/debug/_ext/334706090/wf_debug_output.o
 .debug_abbrev  0x0000d6e2      0x337 build/default/debug/_ext/334706090/wf_commands.o
 .debug_abbrev  0x0000da19      0x1cc build/default/debug/_ext/334706090/wf_pbkdf2.o
 .debug_abbrev  0x0000dbe5      0x3a2 build/default/debug/_ext/334706090/wf_driver_com_24g.o
 .debug_abbrev  0x0000df87      0x2c0 build/default/debug/_ext/334706090/wf_driver_raw_24g.o
 .debug_abbrev  0x0000e247      0x395 build/default/debug/_ext/334706090/wf_mac_24g.o
 .debug_abbrev  0x0000e5dc      0x267 build/default/debug/_ext/334706090/wf_mgmt_msg_24g.o
 .debug_abbrev  0x0000e843      0x280 build/default/debug/_ext/334706090/wf_param_msg_24g.o
 .debug_abbrev  0x0000eac3      0x271 build/default/debug/_ext/334706090/wf_configData.o
 .debug_abbrev  0x0000ed34      0x29e build/default/debug/_ext/1472/main_demo.o
 .debug_abbrev  0x0000efd2        0x1 build/default/debug/_ext/1472/custom_snmp_app.o
 .debug_abbrev  0x0000efd3      0x1db build/default/debug/_ext/1472/custom_ssl_cert.o
 .debug_abbrev  0x0000f1ae      0x1f0 build/default/debug/_ext/1472/mpfs_img2.o
 .debug_abbrev  0x0000f39e      0x1d5 build/default/debug/_ext/1472/wf_config.o
 .debug_abbrev  0x0000f573      0x2a2 build/default/debug/_ext/1472/custom_http_app.o
 .debug_abbrev  0x0000f815       0x25 c:/program files/microchip/xc32/v1.21/bin/../lib/gcc/pic32mx/4.5.2/../../../../pic32mx/lib/size\libmchp_peripheral.a(open_core_timer_lib.o)
 .debug_abbrev  0x0000f83a       0x58 c:/program files/microchip/xc32/v1.21/bin/../lib/gcc/pic32mx/4.5.2/../../../../pic32mx/lib/size\libmchp_peripheral_32MX795F512L.a(eth_ack_packet_lib.o)
 .debug_abbrev  0x0000f892       0x34 c:/program files/microchip/xc32/v1.21/bin/../lib/gcc/pic32mx/4.5.2/../../../../pic32mx/lib/size\libmchp_peripheral_32MX795F512L.a(eth_close_lib.o)
 .debug_abbrev  0x0000f8c6       0x34 c:/program files/microchip/xc32/v1.21/bin/../lib/gcc/pic32mx/4.5.2/../../../../pic32mx/lib/size\libmchp_peripheral_32MX795F512L.a(eth_descriptors_add_lib.o)
 .debug_abbrev  0x0000f8fa       0x47 c:/program files/microchip/xc32/v1.21/bin/../lib/gcc/pic32mx/4.5.2/../../../../pic32mx/lib/size\libmchp_peripheral_32MX795F512L.a(eth_descriptors_remove_lib.o)
 .debug_abbrev  0x0000f941       0x25 c:/program files/microchip/xc32/v1.21/bin/../lib/gcc/pic32mx/4.5.2/../../../../pic32mx/lib/size\libmchp_peripheral_32MX795F512L.a(eth_events_lib.o)
 .debug_abbrev  0x0000f966       0x34 c:/program files/microchip/xc32/v1.21/bin/../lib/gcc/pic32mx/4.5.2/../../../../pic32mx/lib/size\libmchp_peripheral_32MX795F512L.a(eth_init_lib.o)
 .debug_abbrev  0x0000f99a       0x25 c:/program files/microchip/xc32/v1.21/bin/../lib/gcc/pic32mx/4.5.2/../../../../pic32mx/lib/size\libmchp_peripheral_32MX795F512L.a(eth_mac_open_lib.o)
 .debug_abbrev  0x0000f9bf       0x25 c:/program files/microchip/xc32/v1.21/bin/../lib/gcc/pic32mx/4.5.2/../../../../pic32mx/lib/size\libmchp_peripheral_32MX795F512L.a(eth_mac_set_address_max_lib.o)
 .debug_abbrev  0x0000f9e4       0x34 c:/program files/microchip/xc32/v1.21/bin/../lib/gcc/pic32mx/4.5.2/../../../../pic32mx/lib/size\libmchp_peripheral_32MX795F512L.a(eth_rx_buffers_append_lib.o)
 .debug_abbrev  0x0000fa18       0x25 c:/program files/microchip/xc32/v1.21/bin/../lib/gcc/pic32mx/4.5.2/../../../../pic32mx/lib/size\libmchp_peripheral_32MX795F512L.a(eth_rx_filters_lib.o)
 .debug_abbrev  0x0000fa3d       0x25 c:/program files/microchip/xc32/v1.21/bin/../lib/gcc/pic32mx/4.5.2/../../../../pic32mx/lib/size\libmchp_peripheral_32MX795F512L.a(eth_rx_get_packet_lib.o)
 .debug_abbrev  0x0000fa62       0x25 c:/program files/microchip/xc32/v1.21/bin/../lib/gcc/pic32mx/4.5.2/../../../../pic32mx/lib/size\libmchp_peripheral_32MX795F512L.a(eth_rx_set_buffer_size_lib.o)
 .debug_abbrev  0x0000fa87       0x58 c:/program files/microchip/xc32/v1.21/bin/../lib/gcc/pic32mx/4.5.2/../../../../pic32mx/lib/size\libmchp_peripheral_32MX795F512L.a(eth_tx_packet_lib.o)
 .debug_abbrev  0x0000fadf       0x34 c:/program files/microchip/xc32/v1.21/bin/../lib/gcc/pic32mx/4.5.2/../../../../pic32mx/lib/size\libmchp_peripheral_32MX795F512L.a(_eth_append_busy_list_lib.o)
 .debug_abbrev  0x0000fb13       0x38 c:/program files/microchip/xc32/v1.21/bin/../lib/gcc/pic32mx/4.5.2/../../../../pic32mx/lib/size\libmchp_peripheral_32MX795F512L.a(eth_miim_access.o)
 .debug_abbrev  0x0000fb4b       0x34 c:/program files/microchip/xc32/v1.21/bin/../lib/gcc/pic32mx/4.5.2/../../../../pic32mx/lib/size\libmchp_peripheral_32MX795F512L.a(soft_reset_lib.o)
 .debug_abbrev  0x0000fb7f       0x25 c:/program files/microchip/xc32/v1.21/bin/../lib/gcc/pic32mx/4.5.2/../../../../pic32mx/lib/size\libmchp_peripheral_32MX795F512L.a(pcache.o)
 .debug_abbrev  0x0000fba4       0x25 c:/program files/microchip/xc32/v1.21/bin/../lib/gcc/pic32mx/4.5.2/../../../../pic32mx/lib/size\libmchp_peripheral_32MX795F512L.a(int_disable_interrupts_lib.o)
 .debug_abbrev  0x0000fbc9       0x25 c:/program files/microchip/xc32/v1.21/bin/../lib/gcc/pic32mx/4.5.2/../../../../pic32mx/lib/size\libmchp_peripheral_32MX795F512L.a(int_restore_interrupts_lib.o)
 .debug_abbrev  0x0000fbee       0x25 c:/program files/microchip/xc32/v1.21/bin/../lib/gcc/pic32mx/4.5.2/../../../../pic32mx/lib/size\libmchp_peripheral_32MX795F512L.a(int_enable_mv_int_lib.o)
 .debug_abbrev  0x0000fc13       0x25 c:/program files/microchip/xc32/v1.21/bin/../lib/gcc/pic32mx/4.5.2/../../../../pic32mx/lib/size\libmchp_peripheral_32MX795F512L.a(int_tbl_lib.o)
 .debug_abbrev  0x0000fc38       0x41 c:/program files/microchip/xc32/v1.21/bin/../lib/gcc/pic32mx/4.5.2/../../../../pic32mx/lib/size\libmchp_peripheral_32MX795F512L.a(rtcc_init_lib.o)
 .debug_abbrev  0x0000fc79       0x41 c:/program files/microchip/xc32/v1.21/bin/../lib/gcc/pic32mx/4.5.2/../../../../pic32mx/lib/size\libmchp_peripheral_32MX795F512L.a(rtcc_open_lib.o)
 .debug_abbrev  0x0000fcba       0x34 c:/program files/microchip/xc32/v1.21/bin/../lib/gcc/pic32mx/4.5.2/../../../../pic32mx/lib/size\libmchp_peripheral_32MX795F512L.a(spi_chn_data_rdy_lib.o)
 .debug_abbrev  0x0000fcee       0x34 c:/program files/microchip/xc32/v1.21/bin/../lib/gcc/pic32mx/4.5.2/../../../../pic32mx/lib/size\libmchp_peripheral_32MX795F512L.a(spi_chn_getc_lib.o)
 .debug_abbrev  0x0000fd22       0x25 c:/program files/microchip/xc32/v1.21/bin/../lib/gcc/pic32mx/4.5.2/../../../../pic32mx/lib/size\libmchp_peripheral_32MX795F512L.a(spi_chn_open_lib.o)
 .debug_abbrev  0x0000fd47       0x34 c:/program files/microchip/xc32/v1.21/bin/../lib/gcc/pic32mx/4.5.2/../../../../pic32mx/lib/size\libmchp_peripheral_32MX795F512L.a(spi_chn_putc_lib.o)
 .debug_abbrev  0x0000fd7b       0x25 c:/program files/microchip/xc32/v1.21/bin/../lib/gcc/pic32mx/4.5.2/../../../../pic32mx/lib/size\libmchp_peripheral_32MX795F512L.a(spi_chn_tx_buff_empty_lib.o)
 .debug_abbrev  0x0000fda0        0x1 c:/program files/microchip/xc32/v1.21/bin/../lib/gcc/pic32mx/4.5.2/../../../../pic32mx/lib/size\libmchp_peripheral_32MX795F512L.a(spi_io_tbl_libp.o)
 .debug_abbrev  0x0000fda1        0x1 c:/program files/microchip/xc32/v1.21/bin/../lib/gcc/pic32mx/4.5.2/../../../../pic32mx/lib/size\libmchp_peripheral_32MX795F512L.a(spi_map_tbl_libp.o)
 .debug_abbrev  0x0000fda2       0x25 c:/program files/microchip/xc32/v1.21/bin/../lib/gcc/pic32mx/4.5.2/../../../../pic32mx/lib/size\libmchp_peripheral_32MX795F512L.a(port_set_pins_digital_in_lib.o)
 .debug_abbrev  0x0000fdc7       0x25 c:/program files/microchip/xc32/v1.21/bin/../lib/gcc/pic32mx/4.5.2/../../../../pic32mx/lib/size\libmchp_peripheral_32MX795F512L.a(port_set_pins_digital_out_lib.o)
 .debug_abbrev  0x0000fdec        0x1 c:/program files/microchip/xc32/v1.21/bin/../lib/gcc/pic32mx/4.5.2/../../../../pic32mx/lib/size\libmchp_peripheral_32MX795F512L.a(_ports_tbl_libp.o)
 .debug_abbrev  0x0000fded       0x25 c:/program files/microchip/xc32/v1.21/bin/../lib/gcc/pic32mx/4.5.2/../../../../pic32mx/lib/size\libmchp_peripheral_32MX795F512L.a(int_enable_interrupts_lib.o)
 .debug_abbrev  0x0000fe12       0x34 c:/program files/microchip/xc32/v1.21/bin/../lib/gcc/pic32mx/4.5.2/../../../../pic32mx/lib/size\libmchp_peripheral_32MX795F512L.a(_rtcc_wait_clock_off_lib.o)
 .debug_abbrev  0x0000fe46       0x25 c:/program files/microchip/xc32/v1.21/bin/../lib/gcc/pic32mx/4.5.2/../../../../pic32mx/lib/size\libmchp_peripheral_32MX795F512L.a(read_core_timer_lib.o)
 .debug_abbrev  0x0000fe6b      0x13d c:/program files/microchip/xc32/v1.21/bin/../lib/gcc/pic32mx/4.5.2/size\libgcc.a(_udivdi3.o)
 .debug_abbrev  0x0000ffa8       0x61 c:/program files/microchip/xc32/v1.21/bin/../lib/gcc/pic32mx/4.5.2/size\libgcc.a(floatunsisf.o)
 .debug_abbrev  0x00010009       0x25 c:/program files/microchip/xc32/v1.21/bin/../lib/gcc/pic32mx/4.5.2/../../../../pic32mx/lib/size\libpic32.a(default-bootstrap-exception-handler.o)
 .debug_abbrev  0x0001002e       0x25 c:/program files/microchip/xc32/v1.21/bin/../lib/gcc/pic32mx/4.5.2/../../../../pic32mx/lib/size\libpic32.a(default-on-reset.o)
 .debug_abbrev  0x00010053       0x25 c:/program files/microchip/xc32/v1.21/bin/../lib/gcc/pic32mx/4.5.2/../../../../pic32mx/lib/size\libpic32.a(default-on-bootstrap.o)
 .debug_abbrev  0x00010078        0x1 c:/program files/microchip/xc32/v1.21/bin/../lib/gcc/pic32mx/4.5.2/../../../../pic32mx/lib/size\libpic32.a(errno.o)
 .debug_abbrev  0x00010079       0x25 c:/program files/microchip/xc32/v1.21/bin/../lib/gcc/pic32mx/4.5.2/../../../../pic32mx/lib/size\libpic32.a(defaultinterrupt.o)
 .debug_abbrev  0x0001009e       0x25 c:/program files/microchip/xc32/v1.21/bin/../lib/gcc/pic32mx/4.5.2/../../../../pic32mx/lib/size\libdebug.a(db_utils.o)
 .debug_abbrev  0x000100c3        0x1 c:/program files/microchip/xc32/v1.21/bin/../lib/gcc/pic32mx/4.5.2/../../../../pic32mx/lib/size\libpic32.a(xc32_uart.o)
 .debug_abbrev  0x000100c4        0x1 c:/program files/microchip/xc32/v1.21/bin/../lib/gcc/pic32mx/4.5.2/../../../../pic32mx/lib/size\libc.a(_iob.o)
 .debug_abbrev  0x000100c5       0x25 c:/program files/microchip/xc32/v1.21/bin/../lib/gcc/pic32mx/4.5.2/../../../../pic32mx/lib/size\libc.a(atoi.o)
 .debug_abbrev  0x000100ea       0x25 c:/program files/microchip/xc32/v1.21/bin/../lib/gcc/pic32mx/4.5.2/../../../../pic32mx/lib/size\libc.a(atol.o)
 .debug_abbrev  0x0001010f       0x25 c:/program files/microchip/xc32/v1.21/bin/../lib/gcc/pic32mx/4.5.2/../../../../pic32mx/lib/size\libc.a(calloc.o)
 .debug_abbrev  0x00010134        0x1 c:/program files/microchip/xc32/v1.21/bin/../lib/gcc/pic32mx/4.5.2/../../../../pic32mx/lib/size\libc.a(ctype.o)
 .debug_abbrev  0x00010135       0x25 c:/program files/microchip/xc32/v1.21/bin/../lib/gcc/pic32mx/4.5.2/../../../../pic32mx/lib/size\libc.a(malloc.o)
 .debug_abbrev  0x0001015a       0x25 c:/program files/microchip/xc32/v1.21/bin/../lib/gcc/pic32mx/4.5.2/../../../../pic32mx/lib/size\libc.a(rand.o)
 .debug_abbrev  0x0001017f       0x25 c:/program files/microchip/xc32/v1.21/bin/../lib/gcc/pic32mx/4.5.2/../../../../pic32mx/lib/size\libc.a(setbuf.o)
 .debug_abbrev  0x000101a4       0x25 c:/program files/microchip/xc32/v1.21/bin/../lib/gcc/pic32mx/4.5.2/../../../../pic32mx/lib/size\libc.a(strcat.o)
 .debug_abbrev  0x000101c9       0x25 c:/program files/microchip/xc32/v1.21/bin/../lib/gcc/pic32mx/4.5.2/../../../../pic32mx/lib/size\libc.a(strchr.o)
 .debug_abbrev  0x000101ee       0x25 c:/program files/microchip/xc32/v1.21/bin/../lib/gcc/pic32mx/4.5.2/../../../../pic32mx/lib/size\libc.a(strncmp.o)
 .debug_abbrev  0x00010213       0x25 c:/program files/microchip/xc32/v1.21/bin/../lib/gcc/pic32mx/4.5.2/../../../../pic32mx/lib/size\libc.a(strncpy.o)
 .debug_abbrev  0x00010238       0x25 c:/program files/microchip/xc32/v1.21/bin/../lib/gcc/pic32mx/4.5.2/../../../../pic32mx/lib/size\libc.a(strrchr.o)
 .debug_abbrev  0x0001025d       0x25 c:/program files/microchip/xc32/v1.21/bin/../lib/gcc/pic32mx/4.5.2/../../../../pic32mx/lib/size\libc.a(strstr.o)
 .debug_abbrev  0x00010282       0x25 c:/program files/microchip/xc32/v1.21/bin/../lib/gcc/pic32mx/4.5.2/../../../../pic32mx/lib/size\libc.a(strtok.o)
 .debug_abbrev  0x000102a7       0x25 c:/program files/microchip/xc32/v1.21/bin/../lib/gcc/pic32mx/4.5.2/../../../../pic32mx/lib/size\libc.a(snprintf_cdnopsuxX.eo)
 .debug_abbrev  0x000102cc       0x25 c:/program files/microchip/xc32/v1.21/bin/../lib/gcc/pic32mx/4.5.2/../../../../pic32mx/lib/size\libc.a(sprintf_cdnopsuxX.eo)
 .debug_abbrev  0x000102f1       0x25 c:/program files/microchip/xc32/v1.21/bin/../lib/gcc/pic32mx/4.5.2/../../../../pic32mx/lib/size\libc.a(vsnprintf_cdnopsuxX.eo)
 .debug_abbrev  0x00010316       0x25 c:/program files/microchip/xc32/v1.21/bin/../lib/gcc/pic32mx/4.5.2/../../../../pic32mx/lib/size\libc.a(vsnprintf.o)
 .debug_abbrev  0x0001033b       0x49 c:/program files/microchip/xc32/v1.21/bin/../lib/gcc/pic32mx/4.5.2/../../../../pic32mx/lib/size\libc.a(buf.o)
 .debug_abbrev  0x00010384       0x25 c:/program files/microchip/xc32/v1.21/bin/../lib/gcc/pic32mx/4.5.2/../../../../pic32mx/lib/size\libc.a(strcspn.o)
 .debug_abbrev  0x000103a9       0x25 c:/program files/microchip/xc32/v1.21/bin/../lib/gcc/pic32mx/4.5.2/../../../../pic32mx/lib/size\libc.a(strspn.o)
 .debug_abbrev  0x000103ce       0x25 c:/program files/microchip/xc32/v1.21/bin/../lib/gcc/pic32mx/4.5.2/../../../../pic32mx/lib/size\libc.a(doprnt_cdnopsuxX.eo)
 .debug_abbrev  0x000103f3       0x36 c:/program files/microchip/xc32/v1.21/bin/../lib/gcc/pic32mx/4.5.2/../../../../pic32mx/lib/size\libc.a(doprnt.o)
 .debug_abbrev  0x00010429       0x25 c:/program files/microchip/xc32/v1.21/bin/../lib/gcc/pic32mx/4.5.2/../../../../pic32mx/lib/size\libc.a(_fputc_simple.o)
 .debug_abbrev  0x0001044e        0x1 c:/program files/microchip/xc32/v1.21/bin/../lib/gcc/pic32mx/4.5.2/../../../../pic32mx/lib/size\libc.a(powersf.o)
 .debug_abbrev  0x0001044f       0x25 c:/program files/microchip/xc32/v1.21/bin/../lib/gcc/pic32mx/4.5.2/../../../../pic32mx/lib/size\libc.a(_flsbuf_simple.o)
 .debug_abbrev  0x00010474       0x38 c:/program files/microchip/xc32/v1.21/bin/../lib/gcc/pic32mx/4.5.2/../../../../pic32mx/lib/size\libpic32.a(sbrk.o)
 .debug_abbrev  0x000104ac       0x25 c:/program files/microchip/xc32/v1.21/bin/../lib/gcc/pic32mx/4.5.2/../../../../pic32mx/lib/size\libpic32.a(write.o)
 .debug_abbrev  0x000104d1       0x32 c:/program files/microchip/xc32/v1.21/bin/../lib/gcc/pic32mx/4.5.2/../../../../pic32mx/lib/size\libe.a(_floatdisf.o)
 .debug_abbrev  0x00010503       0xe3 c:/program files/microchip/xc32/v1.21/bin/../lib/gcc/pic32mx/4.5.2/size\libgcc.a(_lshrdi3.o)
 .debug_abbrev  0x000105e6       0x79 c:/program files/microchip/xc32/v1.21/bin/../lib/gcc/pic32mx/4.5.2/size\libgcc.a(_floatundisf.o)
 .debug_abbrev  0x0001065f      0x15c c:/program files/microchip/xc32/v1.21/bin/../lib/gcc/pic32mx/4.5.2/size\libgcc.a(_umoddi3.o)

.debug_line     0x00000000    0x23467
 *(.debug_line)
 .debug_line    0x00000000      0x250 build/default/debug/_ext/979510709/bsp.o
 .debug_line    0x00000250       0xea build/default/debug/_ext/101875047/lfsr.o
 .debug_line    0x0000033a      0x2de build/default/debug/_ext/101875047/hashes.o
 .debug_line    0x00000618      0x474 build/default/debug/_ext/101875047/big_int.o
 .debug_line    0x00000a8c      0x14f build/default/debug/_ext/101875047/big_int_helper_c32.o
 .debug_line    0x00000bdb      0x242 build/default/debug/_ext/101875047/helpers.o
 .debug_line    0x00000e1d        0x0 build/default/debug/_ext/1472/berkeley_tcp_client_demo.o
 .debug_line    0x00000e1d        0x0 build/default/debug/_ext/1472/berkeley_tcp_server_demo.o
 .debug_line    0x00000e1d        0x0 build/default/debug/_ext/1472/berkeley_udp_client_demo.o
 .debug_line    0x00000e1d      0x3e9 build/default/debug/_ext/1472/generic_tcp_client.o
 .debug_line    0x00001206      0x34f build/default/debug/_ext/1472/generic_tcp_server.o
 .debug_line    0x00001555      0x393 build/default/debug/_ext/1472/ping_demo.o
 .debug_line    0x000018e8      0x36f build/default/debug/_ext/1472/smtp_demo.o
 .debug_line    0x00001c57      0x7d2 build/default/debug/_ext/365611741/system_services.o
 .debug_line    0x00002429      0x48f build/default/debug/_ext/365611741/system_debug.o
 .debug_line    0x000028b8      0x3d6 build/default/debug/_ext/365611741/system_random.o
 .debug_line    0x00002c8e      0x573 build/default/debug/_ext/365611741/system_command.o
 .debug_line    0x00003201      0x43c build/default/debug/_ext/365611741/system_userio.o
 .debug_line    0x0000363d      0xb8c build/default/debug/_ext/97638081/sys_fs.o
 .debug_line    0x000041c9      0x668 build/default/debug/_ext/97638081/mpfs2.o
 .debug_line    0x00004831      0x2fb build/default/debug/_ext/792872985/usart.o
 .debug_line    0x00004b2c        0x0 build/default/debug/_ext/792872985/lcd.o
 .debug_line    0x00004b2c      0x35e build/default/debug/_ext/792872985/drv_spi.o
 .debug_line    0x00004e8a      0x267 build/default/debug/_ext/792872985/db_appio.o
 .debug_line    0x000050f1      0x203 build/default/debug/_ext/792872985/spi_ram.o
 .debug_line    0x000052f4      0x203 build/default/debug/_ext/792872985/spi_eeprom.o
 .debug_line    0x000054f7      0x203 build/default/debug/_ext/792872985/spi_flash.o
 .debug_line    0x000056fa      0x548 build/default/debug/_ext/792872985/drv_media.o
 .debug_line    0x00005c42      0x514 build/default/debug/_ext/427700826/tcpip_announce.o
 .debug_line    0x00006156      0xb58 build/default/debug/_ext/427700826/http2.o
 .debug_line    0x00006cae      0x3a6 build/default/debug/_ext/427700826/arcfour.o
 .debug_line    0x00007054      0xa69 build/default/debug/_ext/427700826/arp.o
 .debug_line    0x00007abd      0x2a5 build/default/debug/_ext/427700826/berkeley_api.o
 .debug_line    0x00007d62      0x903 build/default/debug/_ext/427700826/dhcp.o
 .debug_line    0x00008665      0x315 build/default/debug/_ext/427700826/dhcps.o
 .debug_line    0x0000897a      0x6e7 build/default/debug/_ext/427700826/dns.o
 .debug_line    0x00009061      0x2a5 build/default/debug/_ext/427700826/dnss.o
 .debug_line    0x00009306      0x2a5 build/default/debug/_ext/427700826/dyn_dns.o
 .debug_line    0x000095ab      0x2a5 build/default/debug/_ext/427700826/enc28_mac.o
 .debug_line    0x00009850      0x2a5 build/default/debug/_ext/427700826/enc28j60.o
 .debug_line    0x00009af5      0x2a5 build/default/debug/_ext/427700826/encs24j600.o
 .debug_line    0x00009d9a      0x2a5 build/default/debug/_ext/427700826/encx24_mac.o
 .debug_line    0x0000a03f      0x661 build/default/debug/_ext/427700826/eth_pic32_ext_phy.o
 .debug_line    0x0000a6a0      0x384 build/default/debug/_ext/427700826/eth_pic32_ext_phy_dp83848.o
 .debug_line    0x0000aa24      0x856 build/default/debug/_ext/427700826/eth_pic32_int_mac.o
 .debug_line    0x0000b27a      0x2a5 build/default/debug/_ext/427700826/ftp.o
 .debug_line    0x0000b51f      0x167 build/default/debug/_ext/427700826/hash_fnv.o
 .debug_line    0x0000b686      0x257 build/default/debug/_ext/427700826/hash_tbl.o
 .debug_line    0x0000b8dd      0x48e build/default/debug/_ext/427700826/icmp.o
 .debug_line    0x0000bd6b      0x2a5 build/default/debug/_ext/427700826/icmpv6.o
 .debug_line    0x0000c010      0x95c build/default/debug/_ext/427700826/ipv4.o
 .debug_line    0x0000c96c      0x2a5 build/default/debug/_ext/427700826/ipv6.o
 .debug_line    0x0000cc11      0x577 build/default/debug/_ext/427700826/mac_events_pic32.o
 .debug_line    0x0000d188      0x51c build/default/debug/_ext/427700826/nbns.o
 .debug_line    0x0000d6a4      0x2a5 build/default/debug/_ext/427700826/ndp.o
 .debug_line    0x0000d949      0x2a5 build/default/debug/_ext/427700826/tcpip_reboot.o
 .debug_line    0x0000dbee      0x610 build/default/debug/_ext/427700826/rsa.o
 .debug_line    0x0000e1fe      0x785 build/default/debug/_ext/427700826/smtp.o
 .debug_line    0x0000e983      0x2a5 build/default/debug/_ext/427700826/snmp.o
 .debug_line    0x0000ec28      0x2a5 build/default/debug/_ext/427700826/snmpv3.o
 .debug_line    0x0000eecd      0x2a5 build/default/debug/_ext/427700826/snmpv3_usm.o
 .debug_line    0x0000f172      0x2a5 build/default/debug/_ext/427700826/sntp.o
 .debug_line    0x0000f417     0x10ba build/default/debug/_ext/427700826/ssl.o
 .debug_line    0x000104d1     0x1868 build/default/debug/_ext/427700826/tcp.o
 .debug_line    0x00011d39      0x5c5 build/default/debug/_ext/427700826/tcpip_heap_alloc.o
 .debug_line    0x000122fe      0x2a5 build/default/debug/_ext/427700826/tcpip_storage.o
 .debug_line    0x000125a3      0x5b3 build/default/debug/_ext/427700826/telnet.o
 .debug_line    0x00012b56      0x2a5 build/default/debug/_ext/427700826/tftpc.o
 .debug_line    0x00012dfb      0xaec build/default/debug/_ext/427700826/udp.o
 .debug_line    0x000138e7      0x5aa build/default/debug/_ext/427700826/tcpip_mac_object.o
 .debug_line    0x00013e91      0xff0 build/default/debug/_ext/427700826/tcpip_manager.o
 .debug_line    0x00014e81      0x789 build/default/debug/_ext/427700826/tcpip_helpers.o
 .debug_line    0x0001560a      0x754 build/default/debug/_ext/427700826/tcpip_commands.o
 .debug_line    0x00015d5e      0xd6c build/default/debug/_ext/427700826/iperf.o
 .debug_line    0x00016aca       0xee build/default/debug/_ext/427700826/tcpip_helper_c32.o
 .debug_line    0x00016bb8      0x11a build/default/debug/_ext/427700826/tcpip_notify.o
 .debug_line    0x00016cd2      0x37f build/default/debug/_ext/427700826/zero_conf_helper.o
 .debug_line    0x00017051      0x6c1 build/default/debug/_ext/427700826/zero_conf_link_local.o
 .debug_line    0x00017712      0xbb4 build/default/debug/_ext/427700826/zero_conf_multicast_dns.o
 .debug_line    0x000182c6      0x3dc build/default/debug/_ext/334706090/wf_tx_power.o
 .debug_line    0x000186a2      0x41e build/default/debug/_ext/334706090/wf_connect.o
 .debug_line    0x00018ac0      0x57d build/default/debug/_ext/334706090/wf_connection_algorithm.o
 .debug_line    0x0001903d      0x453 build/default/debug/_ext/334706090/wf_connection_manager.o
 .debug_line    0x00019490      0x639 build/default/debug/_ext/334706090/wf_connection_profile.o
 .debug_line    0x00019ac9      0x3bb build/default/debug/_ext/334706090/wf_easy_config.o
 .debug_line    0x00019e84      0x345 build/default/debug/_ext/334706090/wf_eint.o
 .debug_line    0x0001a1c9      0x516 build/default/debug/_ext/334706090/wf_event_handler.o
 .debug_line    0x0001a6df      0x454 build/default/debug/_ext/334706090/wf_init.o
 .debug_line    0x0001ab33      0x4fc build/default/debug/_ext/334706090/wf_power_save.o
 .debug_line    0x0001b02f      0x3fd build/default/debug/_ext/334706090/wf_scan.o
 .debug_line    0x0001b42c      0x3de build/default/debug/_ext/334706090/wf_spi.o
 .debug_line    0x0001b80a      0x6be build/default/debug/_ext/334706090/mrf24w_mac_pic32.o
 .debug_line    0x0001bec8      0x4b2 build/default/debug/_ext/334706090/mrf24w_events.o
 .debug_line    0x0001c37a      0x6ba build/default/debug/_ext/334706090/wf_debug_output.o
 .debug_line    0x0001ca34      0x6b3 build/default/debug/_ext/334706090/wf_commands.o
 .debug_line    0x0001d0e7      0x2a5 build/default/debug/_ext/334706090/wf_pbkdf2.o
 .debug_line    0x0001d38c      0x741 build/default/debug/_ext/334706090/wf_driver_com_24g.o
 .debug_line    0x0001dacd      0x663 build/default/debug/_ext/334706090/wf_driver_raw_24g.o
 .debug_line    0x0001e130      0x6e3 build/default/debug/_ext/334706090/wf_mac_24g.o
 .debug_line    0x0001e813      0x47b build/default/debug/_ext/334706090/wf_mgmt_msg_24g.o
 .debug_line    0x0001ec8e      0x656 build/default/debug/_ext/334706090/wf_param_msg_24g.o
 .debug_line    0x0001f2e4      0x465 build/default/debug/_ext/334706090/wf_configData.o
 .debug_line    0x0001f749      0x545 build/default/debug/_ext/1472/main_demo.o
 .debug_line    0x0001fc8e        0x0 build/default/debug/_ext/1472/custom_snmp_app.o
 .debug_line    0x0001fc8e      0x2c8 build/default/debug/_ext/1472/custom_ssl_cert.o
 .debug_line    0x0001ff56      0x28b build/default/debug/_ext/1472/mpfs_img2.o
 .debug_line    0x000201e1      0x31d build/default/debug/_ext/1472/wf_config.o
 .debug_line    0x000204fe      0x9c2 build/default/debug/_ext/1472/custom_http_app.o
 .debug_line    0x00020ec0       0x6e c:/program files/microchip/xc32/v1.21/bin/../lib/gcc/pic32mx/4.5.2/../../../../pic32mx/lib/size\libmchp_peripheral.a(open_core_timer_lib.o)
 .debug_line    0x00020f2e       0x80 c:/program files/microchip/xc32/v1.21/bin/../lib/gcc/pic32mx/4.5.2/../../../../pic32mx/lib/size\libmchp_peripheral_32MX795F512L.a(eth_ack_packet_lib.o)
 .debug_line    0x00020fae       0x78 c:/program files/microchip/xc32/v1.21/bin/../lib/gcc/pic32mx/4.5.2/../../../../pic32mx/lib/size\libmchp_peripheral_32MX795F512L.a(eth_close_lib.o)
 .debug_line    0x00021026       0x85 c:/program files/microchip/xc32/v1.21/bin/../lib/gcc/pic32mx/4.5.2/../../../../pic32mx/lib/size\libmchp_peripheral_32MX795F512L.a(eth_descriptors_add_lib.o)
 .debug_line    0x000210ab       0x88 c:/program files/microchip/xc32/v1.21/bin/../lib/gcc/pic32mx/4.5.2/../../../../pic32mx/lib/size\libmchp_peripheral_32MX795F512L.a(eth_descriptors_remove_lib.o)
 .debug_line    0x00021133       0x67 c:/program files/microchip/xc32/v1.21/bin/../lib/gcc/pic32mx/4.5.2/../../../../pic32mx/lib/size\libmchp_peripheral_32MX795F512L.a(eth_events_lib.o)
 .debug_line    0x0002119a       0x77 c:/program files/microchip/xc32/v1.21/bin/../lib/gcc/pic32mx/4.5.2/../../../../pic32mx/lib/size\libmchp_peripheral_32MX795F512L.a(eth_init_lib.o)
 .debug_line    0x00021211       0x69 c:/program files/microchip/xc32/v1.21/bin/../lib/gcc/pic32mx/4.5.2/../../../../pic32mx/lib/size\libmchp_peripheral_32MX795F512L.a(eth_mac_open_lib.o)
 .debug_line    0x0002127a       0x74 c:/program files/microchip/xc32/v1.21/bin/../lib/gcc/pic32mx/4.5.2/../../../../pic32mx/lib/size\libmchp_peripheral_32MX795F512L.a(eth_mac_set_address_max_lib.o)
 .debug_line    0x000212ee       0x87 c:/program files/microchip/xc32/v1.21/bin/../lib/gcc/pic32mx/4.5.2/../../../../pic32mx/lib/size\libmchp_peripheral_32MX795F512L.a(eth_rx_buffers_append_lib.o)
 .debug_line    0x00021375       0x6b c:/program files/microchip/xc32/v1.21/bin/../lib/gcc/pic32mx/4.5.2/../../../../pic32mx/lib/size\libmchp_peripheral_32MX795F512L.a(eth_rx_filters_lib.o)
 .debug_line    0x000213e0       0x6e c:/program files/microchip/xc32/v1.21/bin/../lib/gcc/pic32mx/4.5.2/../../../../pic32mx/lib/size\libmchp_peripheral_32MX795F512L.a(eth_rx_get_packet_lib.o)
 .debug_line    0x0002144e       0x73 c:/program files/microchip/xc32/v1.21/bin/../lib/gcc/pic32mx/4.5.2/../../../../pic32mx/lib/size\libmchp_peripheral_32MX795F512L.a(eth_rx_set_buffer_size_lib.o)
 .debug_line    0x000214c1       0x7f c:/program files/microchip/xc32/v1.21/bin/../lib/gcc/pic32mx/4.5.2/../../../../pic32mx/lib/size\libmchp_peripheral_32MX795F512L.a(eth_tx_packet_lib.o)
 .debug_line    0x00021540       0x87 c:/program files/microchip/xc32/v1.21/bin/../lib/gcc/pic32mx/4.5.2/../../../../pic32mx/lib/size\libmchp_peripheral_32MX795F512L.a(_eth_append_busy_list_lib.o)
 .debug_line    0x000215c7       0x68 c:/program files/microchip/xc32/v1.21/bin/../lib/gcc/pic32mx/4.5.2/../../../../pic32mx/lib/size\libmchp_peripheral_32MX795F512L.a(eth_miim_access.o)
 .debug_line    0x0002162f       0xbf c:/program files/microchip/xc32/v1.21/bin/../lib/gcc/pic32mx/4.5.2/../../../../pic32mx/lib/size\libmchp_peripheral_32MX795F512L.a(soft_reset_lib.o)
 .debug_line    0x000216ee       0x62 c:/program files/microchip/xc32/v1.21/bin/../lib/gcc/pic32mx/4.5.2/../../../../pic32mx/lib/size\libmchp_peripheral_32MX795F512L.a(pcache.o)
 .debug_line    0x00021750       0x73 c:/program files/microchip/xc32/v1.21/bin/../lib/gcc/pic32mx/4.5.2/../../../../pic32mx/lib/size\libmchp_peripheral_32MX795F512L.a(int_disable_interrupts_lib.o)
 .debug_line    0x000217c3       0x73 c:/program files/microchip/xc32/v1.21/bin/../lib/gcc/pic32mx/4.5.2/../../../../pic32mx/lib/size\libmchp_peripheral_32MX795F512L.a(int_restore_interrupts_lib.o)
 .debug_line    0x00021836       0x6e c:/program files/microchip/xc32/v1.21/bin/../lib/gcc/pic32mx/4.5.2/../../../../pic32mx/lib/size\libmchp_peripheral_32MX795F512L.a(int_enable_mv_int_lib.o)
 .debug_line    0x000218a4       0x64 c:/program files/microchip/xc32/v1.21/bin/../lib/gcc/pic32mx/4.5.2/../../../../pic32mx/lib/size\libmchp_peripheral_32MX795F512L.a(int_tbl_lib.o)
 .debug_line    0x00021908       0xda c:/program files/microchip/xc32/v1.21/bin/../lib/gcc/pic32mx/4.5.2/../../../../pic32mx/lib/size\libmchp_peripheral_32MX795F512L.a(rtcc_init_lib.o)
 .debug_line    0x000219e2       0xda c:/program files/microchip/xc32/v1.21/bin/../lib/gcc/pic32mx/4.5.2/../../../../pic32mx/lib/size\libmchp_peripheral_32MX795F512L.a(rtcc_open_lib.o)
 .debug_line    0x00021abc       0x7f c:/program files/microchip/xc32/v1.21/bin/../lib/gcc/pic32mx/4.5.2/../../../../pic32mx/lib/size\libmchp_peripheral_32MX795F512L.a(spi_chn_data_rdy_lib.o)
 .debug_line    0x00021b3b       0x7b c:/program files/microchip/xc32/v1.21/bin/../lib/gcc/pic32mx/4.5.2/../../../../pic32mx/lib/size\libmchp_peripheral_32MX795F512L.a(spi_chn_getc_lib.o)
 .debug_line    0x00021bb6       0x69 c:/program files/microchip/xc32/v1.21/bin/../lib/gcc/pic32mx/4.5.2/../../../../pic32mx/lib/size\libmchp_peripheral_32MX795F512L.a(spi_chn_open_lib.o)
 .debug_line    0x00021c1f       0x7b c:/program files/microchip/xc32/v1.21/bin/../lib/gcc/pic32mx/4.5.2/../../../../pic32mx/lib/size\libmchp_peripheral_32MX795F512L.a(spi_chn_putc_lib.o)
 .debug_line    0x00021c9a       0x72 c:/program files/microchip/xc32/v1.21/bin/../lib/gcc/pic32mx/4.5.2/../../../../pic32mx/lib/size\libmchp_peripheral_32MX795F512L.a(spi_chn_tx_buff_empty_lib.o)
 .debug_line    0x00021d0c        0x0 c:/program files/microchip/xc32/v1.21/bin/../lib/gcc/pic32mx/4.5.2/../../../../pic32mx/lib/size\libmchp_peripheral_32MX795F512L.a(spi_io_tbl_libp.o)
 .debug_line    0x00021d0c        0x0 c:/program files/microchip/xc32/v1.21/bin/../lib/gcc/pic32mx/4.5.2/../../../../pic32mx/lib/size\libmchp_peripheral_32MX795F512L.a(spi_map_tbl_libp.o)
 .debug_line    0x00021d0c       0x77 c:/program files/microchip/xc32/v1.21/bin/../lib/gcc/pic32mx/4.5.2/../../../../pic32mx/lib/size\libmchp_peripheral_32MX795F512L.a(port_set_pins_digital_in_lib.o)
 .debug_line    0x00021d83       0x78 c:/program files/microchip/xc32/v1.21/bin/../lib/gcc/pic32mx/4.5.2/../../../../pic32mx/lib/size\libmchp_peripheral_32MX795F512L.a(port_set_pins_digital_out_lib.o)
 .debug_line    0x00021dfb        0x0 c:/program files/microchip/xc32/v1.21/bin/../lib/gcc/pic32mx/4.5.2/../../../../pic32mx/lib/size\libmchp_peripheral_32MX795F512L.a(_ports_tbl_libp.o)
 .debug_line    0x00021dfb       0x72 c:/program files/microchip/xc32/v1.21/bin/../lib/gcc/pic32mx/4.5.2/../../../../pic32mx/lib/size\libmchp_peripheral_32MX795F512L.a(int_enable_interrupts_lib.o)
 .debug_line    0x00021e6d       0xbd c:/program files/microchip/xc32/v1.21/bin/../lib/gcc/pic32mx/4.5.2/../../../../pic32mx/lib/size\libmchp_peripheral_32MX795F512L.a(_rtcc_wait_clock_off_lib.o)
 .debug_line    0x00021f2a       0x6e c:/program files/microchip/xc32/v1.21/bin/../lib/gcc/pic32mx/4.5.2/../../../../pic32mx/lib/size\libmchp_peripheral_32MX795F512L.a(read_core_timer_lib.o)
 .debug_line    0x00021f98      0x119 c:/program files/microchip/xc32/v1.21/bin/../lib/gcc/pic32mx/4.5.2/size\libgcc.a(_udivdi3.o)
 .debug_line    0x000220b1       0x70 c:/program files/microchip/xc32/v1.21/bin/../lib/gcc/pic32mx/4.5.2/size\libgcc.a(floatunsisf.o)
 .debug_line    0x00022121       0x9d c:/program files/microchip/xc32/v1.21/bin/../lib/gcc/pic32mx/4.5.2/../../../../pic32mx/lib/size\libpic32.a(default-bootstrap-exception-handler.o)
 .debug_line    0x000221be       0x8a c:/program files/microchip/xc32/v1.21/bin/../lib/gcc/pic32mx/4.5.2/../../../../pic32mx/lib/size\libpic32.a(default-on-reset.o)
 .debug_line    0x00022248       0x8e c:/program files/microchip/xc32/v1.21/bin/../lib/gcc/pic32mx/4.5.2/../../../../pic32mx/lib/size\libpic32.a(default-on-bootstrap.o)
 .debug_line    0x000222d6        0x0 c:/program files/microchip/xc32/v1.21/bin/../lib/gcc/pic32mx/4.5.2/../../../../pic32mx/lib/size\libpic32.a(errno.o)
 .debug_line    0x000222d6       0x9c c:/program files/microchip/xc32/v1.21/bin/../lib/gcc/pic32mx/4.5.2/../../../../pic32mx/lib/size\libpic32.a(defaultinterrupt.o)
 .debug_line    0x00022372       0x86 c:/program files/microchip/xc32/v1.21/bin/../lib/gcc/pic32mx/4.5.2/../../../../pic32mx/lib/size\libdebug.a(db_utils.o)
 .debug_line    0x000223f8        0x0 c:/program files/microchip/xc32/v1.21/bin/../lib/gcc/pic32mx/4.5.2/../../../../pic32mx/lib/size\libpic32.a(xc32_uart.o)
 .debug_line    0x000223f8        0x0 c:/program files/microchip/xc32/v1.21/bin/../lib/gcc/pic32mx/4.5.2/../../../../pic32mx/lib/size\libc.a(_iob.o)
 .debug_line    0x000223f8       0x80 c:/program files/microchip/xc32/v1.21/bin/../lib/gcc/pic32mx/4.5.2/../../../../pic32mx/lib/size\libc.a(atoi.o)
 .debug_line    0x00022478       0x80 c:/program files/microchip/xc32/v1.21/bin/../lib/gcc/pic32mx/4.5.2/../../../../pic32mx/lib/size\libc.a(atol.o)
 .debug_line    0x000224f8       0x82 c:/program files/microchip/xc32/v1.21/bin/../lib/gcc/pic32mx/4.5.2/../../../../pic32mx/lib/size\libc.a(calloc.o)
 .debug_line    0x0002257a        0x0 c:/program files/microchip/xc32/v1.21/bin/../lib/gcc/pic32mx/4.5.2/../../../../pic32mx/lib/size\libc.a(ctype.o)
 .debug_line    0x0002257a       0x82 c:/program files/microchip/xc32/v1.21/bin/../lib/gcc/pic32mx/4.5.2/../../../../pic32mx/lib/size\libc.a(malloc.o)
 .debug_line    0x000225fc       0x80 c:/program files/microchip/xc32/v1.21/bin/../lib/gcc/pic32mx/4.5.2/../../../../pic32mx/lib/size\libc.a(rand.o)
 .debug_line    0x0002267c       0x82 c:/program files/microchip/xc32/v1.21/bin/../lib/gcc/pic32mx/4.5.2/../../../../pic32mx/lib/size\libc.a(setbuf.o)
 .debug_line    0x000226fe       0x82 c:/program files/microchip/xc32/v1.21/bin/../lib/gcc/pic32mx/4.5.2/../../../../pic32mx/lib/size\libc.a(strcat.o)
 .debug_line    0x00022780       0x82 c:/program files/microchip/xc32/v1.21/bin/../lib/gcc/pic32mx/4.5.2/../../../../pic32mx/lib/size\libc.a(strchr.o)
 .debug_line    0x00022802       0x83 c:/program files/microchip/xc32/v1.21/bin/../lib/gcc/pic32mx/4.5.2/../../../../pic32mx/lib/size\libc.a(strncmp.o)
 .debug_line    0x00022885       0x83 c:/program files/microchip/xc32/v1.21/bin/../lib/gcc/pic32mx/4.5.2/../../../../pic32mx/lib/size\libc.a(strncpy.o)
 .debug_line    0x00022908       0x83 c:/program files/microchip/xc32/v1.21/bin/../lib/gcc/pic32mx/4.5.2/../../../../pic32mx/lib/size\libc.a(strrchr.o)
 .debug_line    0x0002298b       0x82 c:/program files/microchip/xc32/v1.21/bin/../lib/gcc/pic32mx/4.5.2/../../../../pic32mx/lib/size\libc.a(strstr.o)
 .debug_line    0x00022a0d       0x82 c:/program files/microchip/xc32/v1.21/bin/../lib/gcc/pic32mx/4.5.2/../../../../pic32mx/lib/size\libc.a(strtok.o)
 .debug_line    0x00022a8f       0x84 c:/program files/microchip/xc32/v1.21/bin/../lib/gcc/pic32mx/4.5.2/../../../../pic32mx/lib/size\libc.a(snprintf_cdnopsuxX.eo)
 .debug_line    0x00022b13       0x83 c:/program files/microchip/xc32/v1.21/bin/../lib/gcc/pic32mx/4.5.2/../../../../pic32mx/lib/size\libc.a(sprintf_cdnopsuxX.eo)
 .debug_line    0x00022b96       0x85 c:/program files/microchip/xc32/v1.21/bin/../lib/gcc/pic32mx/4.5.2/../../../../pic32mx/lib/size\libc.a(vsnprintf_cdnopsuxX.eo)
 .debug_line    0x00022c1b       0x85 c:/program files/microchip/xc32/v1.21/bin/../lib/gcc/pic32mx/4.5.2/../../../../pic32mx/lib/size\libc.a(vsnprintf.o)
 .debug_line    0x00022ca0       0x7f c:/program files/microchip/xc32/v1.21/bin/../lib/gcc/pic32mx/4.5.2/../../../../pic32mx/lib/size\libc.a(buf.o)
 .debug_line    0x00022d1f       0x83 c:/program files/microchip/xc32/v1.21/bin/../lib/gcc/pic32mx/4.5.2/../../../../pic32mx/lib/size\libc.a(strcspn.o)
 .debug_line    0x00022da2       0x82 c:/program files/microchip/xc32/v1.21/bin/../lib/gcc/pic32mx/4.5.2/../../../../pic32mx/lib/size\libc.a(strspn.o)
 .debug_line    0x00022e24       0x82 c:/program files/microchip/xc32/v1.21/bin/../lib/gcc/pic32mx/4.5.2/../../../../pic32mx/lib/size\libc.a(doprnt_cdnopsuxX.eo)
 .debug_line    0x00022ea6       0x82 c:/program files/microchip/xc32/v1.21/bin/../lib/gcc/pic32mx/4.5.2/../../../../pic32mx/lib/size\libc.a(doprnt.o)
 .debug_line    0x00022f28       0x81 c:/program files/microchip/xc32/v1.21/bin/../lib/gcc/pic32mx/4.5.2/../../../../pic32mx/lib/size\libc.a(_fputc_simple.o)
 .debug_line    0x00022fa9        0x0 c:/program files/microchip/xc32/v1.21/bin/../lib/gcc/pic32mx/4.5.2/../../../../pic32mx/lib/size\libc.a(powersf.o)
 .debug_line    0x00022fa9       0x82 c:/program files/microchip/xc32/v1.21/bin/../lib/gcc/pic32mx/4.5.2/../../../../pic32mx/lib/size\libc.a(_flsbuf_simple.o)
 .debug_line    0x0002302b       0x7e c:/program files/microchip/xc32/v1.21/bin/../lib/gcc/pic32mx/4.5.2/../../../../pic32mx/lib/size\libpic32.a(sbrk.o)
 .debug_line    0x000230a9       0x7f c:/program files/microchip/xc32/v1.21/bin/../lib/gcc/pic32mx/4.5.2/../../../../pic32mx/lib/size\libpic32.a(write.o)
 .debug_line    0x00023128       0x99 c:/program files/microchip/xc32/v1.21/bin/../lib/gcc/pic32mx/4.5.2/../../../../pic32mx/lib/size\libe.a(_floatdisf.o)
 .debug_line    0x000231c1       0xbe c:/program files/microchip/xc32/v1.21/bin/../lib/gcc/pic32mx/4.5.2/size\libgcc.a(_lshrdi3.o)
 .debug_line    0x0002327f       0xc9 c:/program files/microchip/xc32/v1.21/bin/../lib/gcc/pic32mx/4.5.2/size\libgcc.a(_floatundisf.o)
 .debug_line    0x00023348      0x11f c:/program files/microchip/xc32/v1.21/bin/../lib/gcc/pic32mx/4.5.2/size\libgcc.a(_umoddi3.o)

.debug_frame    0x00000000     0xc39c
 *(.debug_frame)
 .debug_frame   0x00000000       0x80 build/default/debug/_ext/979510709/bsp.o
 .debug_frame   0x00000080       0x48 build/default/debug/_ext/101875047/lfsr.o
 .debug_frame   0x000000c8      0x10c build/default/debug/_ext/101875047/hashes.o
 .debug_frame   0x000001d4      0x1dc build/default/debug/_ext/101875047/big_int.o
 .debug_frame   0x000003b0       0xf0 build/default/debug/_ext/101875047/helpers.o
 .debug_frame   0x000004a0       0x80 build/default/debug/_ext/1472/generic_tcp_client.o
 .debug_frame   0x00000520       0x80 build/default/debug/_ext/1472/generic_tcp_server.o
 .debug_frame   0x000005a0       0xb8 build/default/debug/_ext/1472/ping_demo.o
 .debug_frame   0x00000658       0x80 build/default/debug/_ext/1472/smtp_demo.o
 .debug_frame   0x000006d8      0x484 build/default/debug/_ext/365611741/system_services.o
 .debug_frame   0x00000b5c      0x240 build/default/debug/_ext/365611741/system_debug.o
 .debug_frame   0x00000d9c       0xf4 build/default/debug/_ext/365611741/system_random.o
 .debug_frame   0x00000e90      0x2b0 build/default/debug/_ext/365611741/system_command.o
 .debug_frame   0x00001140      0x144 build/default/debug/_ext/365611741/system_userio.o
 .debug_frame   0x00001284      0x7fc build/default/debug/_ext/97638081/sys_fs.o
 .debug_frame   0x00001a80      0x30c build/default/debug/_ext/97638081/mpfs2.o
 .debug_frame   0x00001d8c      0x12c build/default/debug/_ext/792872985/usart.o
 .debug_frame   0x00001eb8       0xb8 build/default/debug/_ext/792872985/drv_spi.o
 .debug_frame   0x00001f70      0x12c build/default/debug/_ext/792872985/db_appio.o
 .debug_frame   0x0000209c       0x64 build/default/debug/_ext/792872985/spi_ram.o
 .debug_frame   0x00002100       0x64 build/default/debug/_ext/792872985/spi_eeprom.o
 .debug_frame   0x00002164       0x64 build/default/debug/_ext/792872985/spi_flash.o
 .debug_frame   0x000021c8      0x224 build/default/debug/_ext/792872985/drv_media.o
 .debug_frame   0x000023ec      0x12c build/default/debug/_ext/427700826/tcpip_announce.o
 .debug_frame   0x00002518      0x430 build/default/debug/_ext/427700826/http2.o
 .debug_frame   0x00002948       0x9c build/default/debug/_ext/427700826/arcfour.o
 .debug_frame   0x000029e4      0x4d4 build/default/debug/_ext/427700826/arp.o
 .debug_frame   0x00002eb8       0x64 build/default/debug/_ext/427700826/berkeley_api.o
 .debug_frame   0x00002f1c      0x294 build/default/debug/_ext/427700826/dhcp.o
 .debug_frame   0x000031b0       0xb8 build/default/debug/_ext/427700826/dhcps.o
 .debug_frame   0x00003268      0x19c build/default/debug/_ext/427700826/dns.o
 .debug_frame   0x00003404       0x64 build/default/debug/_ext/427700826/dnss.o
 .debug_frame   0x00003468       0x64 build/default/debug/_ext/427700826/dyn_dns.o
 .debug_frame   0x000034cc       0x64 build/default/debug/_ext/427700826/enc28_mac.o
 .debug_frame   0x00003530       0x64 build/default/debug/_ext/427700826/enc28j60.o
 .debug_frame   0x00003594       0x64 build/default/debug/_ext/427700826/encs24j600.o
 .debug_frame   0x000035f8       0x64 build/default/debug/_ext/427700826/encx24_mac.o
 .debug_frame   0x0000365c      0x1f0 build/default/debug/_ext/427700826/eth_pic32_ext_phy.o
 .debug_frame   0x0000384c       0xd4 build/default/debug/_ext/427700826/eth_pic32_ext_phy_dp83848.o
 .debug_frame   0x00003920      0x390 build/default/debug/_ext/427700826/eth_pic32_int_mac.o
 .debug_frame   0x00003cb0       0x64 build/default/debug/_ext/427700826/ftp.o
 .debug_frame   0x00003d14       0x48 build/default/debug/_ext/427700826/hash_fnv.o
 .debug_frame   0x00003d5c       0xf0 build/default/debug/_ext/427700826/hash_tbl.o
 .debug_frame   0x00003e4c      0x128 build/default/debug/_ext/427700826/icmp.o
 .debug_frame   0x00003f74       0x64 build/default/debug/_ext/427700826/icmpv6.o
 .debug_frame   0x00003fd8      0x4ac build/default/debug/_ext/427700826/ipv4.o
 .debug_frame   0x00004484       0x64 build/default/debug/_ext/427700826/ipv6.o
 .debug_frame   0x000044e8      0x180 build/default/debug/_ext/427700826/mac_events_pic32.o
 .debug_frame   0x00004668       0xf0 build/default/debug/_ext/427700826/nbns.o
 .debug_frame   0x00004758       0x64 build/default/debug/_ext/427700826/ndp.o
 .debug_frame   0x000047bc       0x64 build/default/debug/_ext/427700826/tcpip_reboot.o
 .debug_frame   0x00004820      0x180 build/default/debug/_ext/427700826/rsa.o
 .debug_frame   0x000049a0      0x1f0 build/default/debug/_ext/427700826/smtp.o
 .debug_frame   0x00004b90       0x64 build/default/debug/_ext/427700826/snmp.o
 .debug_frame   0x00004bf4       0x64 build/default/debug/_ext/427700826/snmpv3.o
 .debug_frame   0x00004c58       0x64 build/default/debug/_ext/427700826/snmpv3_usm.o
 .debug_frame   0x00004cbc       0x64 build/default/debug/_ext/427700826/sntp.o
 .debug_frame   0x00004d20      0x784 build/default/debug/_ext/427700826/ssl.o
 .debug_frame   0x000054a4      0xaa4 build/default/debug/_ext/427700826/tcp.o
 .debug_frame   0x00005f48      0x224 build/default/debug/_ext/427700826/tcpip_heap_alloc.o
 .debug_frame   0x0000616c       0x64 build/default/debug/_ext/427700826/tcpip_storage.o
 .debug_frame   0x000061d0      0x1ec build/default/debug/_ext/427700826/telnet.o
 .debug_frame   0x000063bc       0x64 build/default/debug/_ext/427700826/tftpc.o
 .debug_frame   0x00006420      0x534 build/default/debug/_ext/427700826/udp.o
 .debug_frame   0x00006954      0x304 build/default/debug/_ext/427700826/tcpip_mac_object.o
 .debug_frame   0x00006c58      0x924 build/default/debug/_ext/427700826/tcpip_manager.o
 .debug_frame   0x0000757c      0x358 build/default/debug/_ext/427700826/tcpip_helpers.o
 .debug_frame   0x000078d4      0x22c build/default/debug/_ext/427700826/tcpip_commands.o
 .debug_frame   0x00007b00      0x420 build/default/debug/_ext/427700826/iperf.o
 .debug_frame   0x00007f20       0x64 build/default/debug/_ext/427700826/tcpip_notify.o
 .debug_frame   0x00007f84       0x80 build/default/debug/_ext/427700826/zero_conf_helper.o
 .debug_frame   0x00008004      0x1dc build/default/debug/_ext/427700826/zero_conf_link_local.o
 .debug_frame   0x000081e0      0x31c build/default/debug/_ext/427700826/zero_conf_multicast_dns.o
 .debug_frame   0x000084fc       0xb8 build/default/debug/_ext/334706090/wf_tx_power.o
 .debug_frame   0x000085b4       0xf0 build/default/debug/_ext/334706090/wf_connect.o
 .debug_frame   0x000086a4      0x25c build/default/debug/_ext/334706090/wf_connection_algorithm.o
 .debug_frame   0x00008900      0x128 build/default/debug/_ext/334706090/wf_connection_manager.o
 .debug_frame   0x00008a28      0x304 build/default/debug/_ext/334706090/wf_connection_profile.o
 .debug_frame   0x00008d2c       0x80 build/default/debug/_ext/334706090/wf_easy_config.o
 .debug_frame   0x00008dac       0xf0 build/default/debug/_ext/334706090/wf_eint.o
 .debug_frame   0x00008e9c      0x17c build/default/debug/_ext/334706090/wf_event_handler.o
 .debug_frame   0x00009018       0xf0 build/default/debug/_ext/334706090/wf_init.o
 .debug_frame   0x00009108      0x208 build/default/debug/_ext/334706090/wf_power_save.o
 .debug_frame   0x00009310       0xb8 build/default/debug/_ext/334706090/wf_scan.o
 .debug_frame   0x000093c8       0xf0 build/default/debug/_ext/334706090/wf_spi.o
 .debug_frame   0x000094b8      0x3ac build/default/debug/_ext/334706090/mrf24w_mac_pic32.o
 .debug_frame   0x00009864      0x198 build/default/debug/_ext/334706090/mrf24w_events.o
 .debug_frame   0x000099fc      0x294 build/default/debug/_ext/334706090/wf_debug_output.o
 .debug_frame   0x00009c90      0x210 build/default/debug/_ext/334706090/wf_commands.o
 .debug_frame   0x00009ea0       0x64 build/default/debug/_ext/334706090/wf_pbkdf2.o
 .debug_frame   0x00009f04      0x304 build/default/debug/_ext/334706090/wf_driver_com_24g.o
 .debug_frame   0x0000a208      0x2b0 build/default/debug/_ext/334706090/wf_driver_raw_24g.o
 .debug_frame   0x0000a4b8      0x33c build/default/debug/_ext/334706090/wf_mac_24g.o
 .debug_frame   0x0000a7f4       0xf0 build/default/debug/_ext/334706090/wf_mgmt_msg_24g.o
 .debug_frame   0x0000a8e4      0x33c build/default/debug/_ext/334706090/wf_param_msg_24g.o
 .debug_frame   0x0000ac20       0xd4 build/default/debug/_ext/334706090/wf_configData.o
 .debug_frame   0x0000acf4       0xd8 build/default/debug/_ext/1472/main_demo.o
 .debug_frame   0x0000adcc       0x64 build/default/debug/_ext/1472/custom_ssl_cert.o
 .debug_frame   0x0000ae30       0x64 build/default/debug/_ext/1472/mpfs_img2.o
 .debug_frame   0x0000ae94       0x80 build/default/debug/_ext/1472/wf_config.o
 .debug_frame   0x0000af14      0x4e0 build/default/debug/_ext/1472/custom_http_app.o
 .debug_frame   0x0000b3f4       0x20 c:/program files/microchip/xc32/v1.21/bin/../lib/gcc/pic32mx/4.5.2/../../../../pic32mx/lib/size\libmchp_peripheral.a(open_core_timer_lib.o)
 .debug_frame   0x0000b414       0xb8 c:/program files/microchip/xc32/v1.21/bin/../lib/gcc/pic32mx/4.5.2/../../../../pic32mx/lib/size\libmchp_peripheral_32MX795F512L.a(eth_ack_packet_lib.o)
 .debug_frame   0x0000b4cc       0x2c c:/program files/microchip/xc32/v1.21/bin/../lib/gcc/pic32mx/4.5.2/../../../../pic32mx/lib/size\libmchp_peripheral_32MX795F512L.a(eth_close_lib.o)
 .debug_frame   0x0000b4f8       0x54 c:/program files/microchip/xc32/v1.21/bin/../lib/gcc/pic32mx/4.5.2/../../../../pic32mx/lib/size\libmchp_peripheral_32MX795F512L.a(eth_descriptors_add_lib.o)
 .debug_frame   0x0000b54c       0xc4 c:/program files/microchip/xc32/v1.21/bin/../lib/gcc/pic32mx/4.5.2/../../../../pic32mx/lib/size\libmchp_peripheral_32MX795F512L.a(eth_descriptors_remove_lib.o)
 .debug_frame   0x0000b610       0x50 c:/program files/microchip/xc32/v1.21/bin/../lib/gcc/pic32mx/4.5.2/../../../../pic32mx/lib/size\libmchp_peripheral_32MX795F512L.a(eth_events_lib.o)
 .debug_frame   0x0000b660       0x28 c:/program files/microchip/xc32/v1.21/bin/../lib/gcc/pic32mx/4.5.2/../../../../pic32mx/lib/size\libmchp_peripheral_32MX795F512L.a(eth_init_lib.o)
 .debug_frame   0x0000b688       0x20 c:/program files/microchip/xc32/v1.21/bin/../lib/gcc/pic32mx/4.5.2/../../../../pic32mx/lib/size\libmchp_peripheral_32MX795F512L.a(eth_mac_open_lib.o)
 .debug_frame   0x0000b6a8       0x50 c:/program files/microchip/xc32/v1.21/bin/../lib/gcc/pic32mx/4.5.2/../../../../pic32mx/lib/size\libmchp_peripheral_32MX795F512L.a(eth_mac_set_address_max_lib.o)
 .debug_frame   0x0000b6f8       0x28 c:/program files/microchip/xc32/v1.21/bin/../lib/gcc/pic32mx/4.5.2/../../../../pic32mx/lib/size\libmchp_peripheral_32MX795F512L.a(eth_rx_buffers_append_lib.o)
 .debug_frame   0x0000b720       0x70 c:/program files/microchip/xc32/v1.21/bin/../lib/gcc/pic32mx/4.5.2/../../../../pic32mx/lib/size\libmchp_peripheral_32MX795F512L.a(eth_rx_filters_lib.o)
 .debug_frame   0x0000b790       0x3c c:/program files/microchip/xc32/v1.21/bin/../lib/gcc/pic32mx/4.5.2/../../../../pic32mx/lib/size\libmchp_peripheral_32MX795F512L.a(eth_rx_get_packet_lib.o)
 .debug_frame   0x0000b7cc       0x20 c:/program files/microchip/xc32/v1.21/bin/../lib/gcc/pic32mx/4.5.2/../../../../pic32mx/lib/size\libmchp_peripheral_32MX795F512L.a(eth_rx_set_buffer_size_lib.o)
 .debug_frame   0x0000b7ec       0x90 c:/program files/microchip/xc32/v1.21/bin/../lib/gcc/pic32mx/4.5.2/../../../../pic32mx/lib/size\libmchp_peripheral_32MX795F512L.a(eth_tx_packet_lib.o)
 .debug_frame   0x0000b87c       0x30 c:/program files/microchip/xc32/v1.21/bin/../lib/gcc/pic32mx/4.5.2/../../../../pic32mx/lib/size\libmchp_peripheral_32MX795F512L.a(_eth_append_busy_list_lib.o)
 .debug_frame   0x0000b8ac       0x70 c:/program files/microchip/xc32/v1.21/bin/../lib/gcc/pic32mx/4.5.2/../../../../pic32mx/lib/size\libmchp_peripheral_32MX795F512L.a(eth_miim_access.o)
 .debug_frame   0x0000b91c       0x28 c:/program files/microchip/xc32/v1.21/bin/../lib/gcc/pic32mx/4.5.2/../../../../pic32mx/lib/size\libmchp_peripheral_32MX795F512L.a(soft_reset_lib.o)
 .debug_frame   0x0000b944       0x30 c:/program files/microchip/xc32/v1.21/bin/../lib/gcc/pic32mx/4.5.2/../../../../pic32mx/lib/size\libmchp_peripheral_32MX795F512L.a(pcache.o)
 .debug_frame   0x0000b974       0x20 c:/program files/microchip/xc32/v1.21/bin/../lib/gcc/pic32mx/4.5.2/../../../../pic32mx/lib/size\libmchp_peripheral_32MX795F512L.a(int_disable_interrupts_lib.o)
 .debug_frame   0x0000b994       0x20 c:/program files/microchip/xc32/v1.21/bin/../lib/gcc/pic32mx/4.5.2/../../../../pic32mx/lib/size\libmchp_peripheral_32MX795F512L.a(int_restore_interrupts_lib.o)
 .debug_frame   0x0000b9b4       0x28 c:/program files/microchip/xc32/v1.21/bin/../lib/gcc/pic32mx/4.5.2/../../../../pic32mx/lib/size\libmchp_peripheral_32MX795F512L.a(int_enable_mv_int_lib.o)
 .debug_frame   0x0000b9dc       0xa0 c:/program files/microchip/xc32/v1.21/bin/../lib/gcc/pic32mx/4.5.2/../../../../pic32mx/lib/size\libmchp_peripheral_32MX795F512L.a(int_tbl_lib.o)
 .debug_frame   0x0000ba7c       0x2c c:/program files/microchip/xc32/v1.21/bin/../lib/gcc/pic32mx/4.5.2/../../../../pic32mx/lib/size\libmchp_peripheral_32MX795F512L.a(rtcc_init_lib.o)
 .debug_frame   0x0000baa8       0x34 c:/program files/microchip/xc32/v1.21/bin/../lib/gcc/pic32mx/4.5.2/../../../../pic32mx/lib/size\libmchp_peripheral_32MX795F512L.a(rtcc_open_lib.o)
 .debug_frame   0x0000badc       0x20 c:/program files/microchip/xc32/v1.21/bin/../lib/gcc/pic32mx/4.5.2/../../../../pic32mx/lib/size\libmchp_peripheral_32MX795F512L.a(spi_chn_data_rdy_lib.o)
 .debug_frame   0x0000bafc       0x30 c:/program files/microchip/xc32/v1.21/bin/../lib/gcc/pic32mx/4.5.2/../../../../pic32mx/lib/size\libmchp_peripheral_32MX795F512L.a(spi_chn_getc_lib.o)
 .debug_frame   0x0000bb2c       0x3c c:/program files/microchip/xc32/v1.21/bin/../lib/gcc/pic32mx/4.5.2/../../../../pic32mx/lib/size\libmchp_peripheral_32MX795F512L.a(spi_chn_open_lib.o)
 .debug_frame   0x0000bb68       0x40 c:/program files/microchip/xc32/v1.21/bin/../lib/gcc/pic32mx/4.5.2/../../../../pic32mx/lib/size\libmchp_peripheral_32MX795F512L.a(spi_chn_putc_lib.o)
 .debug_frame   0x0000bba8       0x20 c:/program files/microchip/xc32/v1.21/bin/../lib/gcc/pic32mx/4.5.2/../../../../pic32mx/lib/size\libmchp_peripheral_32MX795F512L.a(spi_chn_tx_buff_empty_lib.o)
 .debug_frame   0x0000bbc8       0x20 c:/program files/microchip/xc32/v1.21/bin/../lib/gcc/pic32mx/4.5.2/../../../../pic32mx/lib/size\libmchp_peripheral_32MX795F512L.a(port_set_pins_digital_in_lib.o)
 .debug_frame   0x0000bbe8       0x20 c:/program files/microchip/xc32/v1.21/bin/../lib/gcc/pic32mx/4.5.2/../../../../pic32mx/lib/size\libmchp_peripheral_32MX795F512L.a(port_set_pins_digital_out_lib.o)
 .debug_frame   0x0000bc08       0x20 c:/program files/microchip/xc32/v1.21/bin/../lib/gcc/pic32mx/4.5.2/../../../../pic32mx/lib/size\libmchp_peripheral_32MX795F512L.a(int_enable_interrupts_lib.o)
 .debug_frame   0x0000bc28       0x48 c:/program files/microchip/xc32/v1.21/bin/../lib/gcc/pic32mx/4.5.2/../../../../pic32mx/lib/size\libmchp_peripheral_32MX795F512L.a(_rtcc_wait_clock_off_lib.o)
 .debug_frame   0x0000bc70       0x20 c:/program files/microchip/xc32/v1.21/bin/../lib/gcc/pic32mx/4.5.2/../../../../pic32mx/lib/size\libmchp_peripheral_32MX795F512L.a(read_core_timer_lib.o)
 .debug_frame   0x0000bc90       0x20 c:/program files/microchip/xc32/v1.21/bin/../lib/gcc/pic32mx/4.5.2/size\libgcc.a(_udivdi3.o)
 .debug_frame   0x0000bcb0       0x28 c:/program files/microchip/xc32/v1.21/bin/../lib/gcc/pic32mx/4.5.2/size\libgcc.a(floatunsisf.o)
 .debug_frame   0x0000bcd8       0x20 c:/program files/microchip/xc32/v1.21/bin/../lib/gcc/pic32mx/4.5.2/../../../../pic32mx/lib/size\libpic32.a(default-bootstrap-exception-handler.o)
 .debug_frame   0x0000bcf8       0x20 c:/program files/microchip/xc32/v1.21/bin/../lib/gcc/pic32mx/4.5.2/../../../../pic32mx/lib/size\libpic32.a(default-on-reset.o)
 .debug_frame   0x0000bd18       0x20 c:/program files/microchip/xc32/v1.21/bin/../lib/gcc/pic32mx/4.5.2/../../../../pic32mx/lib/size\libpic32.a(default-on-bootstrap.o)
 .debug_frame   0x0000bd38       0x20 c:/program files/microchip/xc32/v1.21/bin/../lib/gcc/pic32mx/4.5.2/../../../../pic32mx/lib/size\libpic32.a(defaultinterrupt.o)
 .debug_frame   0x0000bd58       0x88 c:/program files/microchip/xc32/v1.21/bin/../lib/gcc/pic32mx/4.5.2/../../../../pic32mx/lib/size\libdebug.a(db_utils.o)
 .debug_frame   0x0000bde0       0x20 c:/program files/microchip/xc32/v1.21/bin/../lib/gcc/pic32mx/4.5.2/../../../../pic32mx/lib/size\libc.a(atoi.o)
 .debug_frame   0x0000be00       0x20 c:/program files/microchip/xc32/v1.21/bin/../lib/gcc/pic32mx/4.5.2/../../../../pic32mx/lib/size\libc.a(atol.o)
 .debug_frame   0x0000be20       0x2c c:/program files/microchip/xc32/v1.21/bin/../lib/gcc/pic32mx/4.5.2/../../../../pic32mx/lib/size\libc.a(calloc.o)
 .debug_frame   0x0000be4c       0x6c c:/program files/microchip/xc32/v1.21/bin/../lib/gcc/pic32mx/4.5.2/../../../../pic32mx/lib/size\libc.a(malloc.o)
 .debug_frame   0x0000beb8       0x38 c:/program files/microchip/xc32/v1.21/bin/../lib/gcc/pic32mx/4.5.2/../../../../pic32mx/lib/size\libc.a(rand.o)
 .debug_frame   0x0000bef0       0x38 c:/program files/microchip/xc32/v1.21/bin/../lib/gcc/pic32mx/4.5.2/../../../../pic32mx/lib/size\libc.a(setbuf.o)
 .debug_frame   0x0000bf28       0x20 c:/program files/microchip/xc32/v1.21/bin/../lib/gcc/pic32mx/4.5.2/../../../../pic32mx/lib/size\libc.a(strcat.o)
 .debug_frame   0x0000bf48       0x20 c:/program files/microchip/xc32/v1.21/bin/../lib/gcc/pic32mx/4.5.2/../../../../pic32mx/lib/size\libc.a(strchr.o)
 .debug_frame   0x0000bf68       0x20 c:/program files/microchip/xc32/v1.21/bin/../lib/gcc/pic32mx/4.5.2/../../../../pic32mx/lib/size\libc.a(strncmp.o)
 .debug_frame   0x0000bf88       0x20 c:/program files/microchip/xc32/v1.21/bin/../lib/gcc/pic32mx/4.5.2/../../../../pic32mx/lib/size\libc.a(strncpy.o)
 .debug_frame   0x0000bfa8       0x28 c:/program files/microchip/xc32/v1.21/bin/../lib/gcc/pic32mx/4.5.2/../../../../pic32mx/lib/size\libc.a(strrchr.o)
 .debug_frame   0x0000bfd0       0x2c c:/program files/microchip/xc32/v1.21/bin/../lib/gcc/pic32mx/4.5.2/../../../../pic32mx/lib/size\libc.a(strstr.o)
 .debug_frame   0x0000bffc       0x2c c:/program files/microchip/xc32/v1.21/bin/../lib/gcc/pic32mx/4.5.2/../../../../pic32mx/lib/size\libc.a(strtok.o)
 .debug_frame   0x0000c028       0x28 c:/program files/microchip/xc32/v1.21/bin/../lib/gcc/pic32mx/4.5.2/../../../../pic32mx/lib/size\libc.a(snprintf_cdnopsuxX.eo)
 .debug_frame   0x0000c050       0x2c c:/program files/microchip/xc32/v1.21/bin/../lib/gcc/pic32mx/4.5.2/../../../../pic32mx/lib/size\libc.a(sprintf_cdnopsuxX.eo)
 .debug_frame   0x0000c07c       0x28 c:/program files/microchip/xc32/v1.21/bin/../lib/gcc/pic32mx/4.5.2/../../../../pic32mx/lib/size\libc.a(vsnprintf_cdnopsuxX.eo)
 .debug_frame   0x0000c0a4       0x28 c:/program files/microchip/xc32/v1.21/bin/../lib/gcc/pic32mx/4.5.2/../../../../pic32mx/lib/size\libc.a(vsnprintf.o)
 .debug_frame   0x0000c0cc       0x38 c:/program files/microchip/xc32/v1.21/bin/../lib/gcc/pic32mx/4.5.2/../../../../pic32mx/lib/size\libc.a(buf.o)
 .debug_frame   0x0000c104       0x2c c:/program files/microchip/xc32/v1.21/bin/../lib/gcc/pic32mx/4.5.2/../../../../pic32mx/lib/size\libc.a(strcspn.o)
 .debug_frame   0x0000c130       0x2c c:/program files/microchip/xc32/v1.21/bin/../lib/gcc/pic32mx/4.5.2/../../../../pic32mx/lib/size\libc.a(strspn.o)
 .debug_frame   0x0000c15c       0x38 c:/program files/microchip/xc32/v1.21/bin/../lib/gcc/pic32mx/4.5.2/../../../../pic32mx/lib/size\libc.a(doprnt_cdnopsuxX.eo)
 .debug_frame   0x0000c194       0x74 c:/program files/microchip/xc32/v1.21/bin/../lib/gcc/pic32mx/4.5.2/../../../../pic32mx/lib/size\libc.a(doprnt.o)
 .debug_frame   0x0000c208       0x2c c:/program files/microchip/xc32/v1.21/bin/../lib/gcc/pic32mx/4.5.2/../../../../pic32mx/lib/size\libc.a(_fputc_simple.o)
 .debug_frame   0x0000c234       0x28 c:/program files/microchip/xc32/v1.21/bin/../lib/gcc/pic32mx/4.5.2/../../../../pic32mx/lib/size\libc.a(_flsbuf_simple.o)
 .debug_frame   0x0000c25c       0x88 c:/program files/microchip/xc32/v1.21/bin/../lib/gcc/pic32mx/4.5.2/../../../../pic32mx/lib/size\libpic32.a(sbrk.o)
 .debug_frame   0x0000c2e4       0x2c c:/program files/microchip/xc32/v1.21/bin/../lib/gcc/pic32mx/4.5.2/../../../../pic32mx/lib/size\libpic32.a(write.o)
 .debug_frame   0x0000c310       0x20 c:/program files/microchip/xc32/v1.21/bin/../lib/gcc/pic32mx/4.5.2/../../../../pic32mx/lib/size\libe.a(_floatdisf.o)
 .debug_frame   0x0000c330       0x20 c:/program files/microchip/xc32/v1.21/bin/../lib/gcc/pic32mx/4.5.2/size\libgcc.a(_lshrdi3.o)
 .debug_frame   0x0000c350       0x2c c:/program files/microchip/xc32/v1.21/bin/../lib/gcc/pic32mx/4.5.2/size\libgcc.a(_floatundisf.o)
 .debug_frame   0x0000c37c       0x20 c:/program files/microchip/xc32/v1.21/bin/../lib/gcc/pic32mx/4.5.2/size\libgcc.a(_umoddi3.o)

.debug_str      0x00000000     0x9e4f
 *(.debug_str)
 .debug_str     0x00000000      0x15d build/default/debug/_ext/979510709/bsp.o
 .debug_str     0x0000015d        0x0 build/default/debug/_ext/101875047/lfsr.o
 .debug_str     0x0000015d       0x1a build/default/debug/_ext/101875047/hashes.o
 .debug_str     0x00000177      0x12f build/default/debug/_ext/101875047/big_int.o
 .debug_str     0x000002a6        0x0 build/default/debug/_ext/101875047/helpers.o
 .debug_str     0x000002a6        0x0 build/default/debug/_ext/1472/berkeley_tcp_client_demo.o
 .debug_str     0x000002a6        0x0 build/default/debug/_ext/1472/berkeley_tcp_server_demo.o
 .debug_str     0x000002a6        0x0 build/default/debug/_ext/1472/berkeley_udp_client_demo.o
 .debug_str     0x000002a6      0x156 build/default/debug/_ext/1472/generic_tcp_client.o
 .debug_str     0x000003fc      0x156 build/default/debug/_ext/1472/generic_tcp_server.o
 .debug_str     0x00000552      0x18b build/default/debug/_ext/1472/ping_demo.o
 .debug_str     0x000006dd      0x160 build/default/debug/_ext/1472/smtp_demo.o
 .debug_str     0x0000083d      0x201 build/default/debug/_ext/365611741/system_services.o
 .debug_str     0x00000a3e      0x168 build/default/debug/_ext/365611741/system_debug.o
 .debug_str     0x00000ba6      0x15f build/default/debug/_ext/365611741/system_random.o
 .debug_str     0x00000d05      0x127 build/default/debug/_ext/365611741/system_command.o
 .debug_str     0x00000e2c      0x169 build/default/debug/_ext/365611741/system_userio.o
 .debug_str     0x00000f95      0x14f build/default/debug/_ext/97638081/sys_fs.o
 .debug_str     0x000010e4      0x135 build/default/debug/_ext/97638081/mpfs2.o
 .debug_str     0x00001219      0x11a build/default/debug/_ext/792872985/usart.o
 .debug_str     0x00001333        0x0 build/default/debug/_ext/792872985/lcd.o
 .debug_str     0x00001333      0x156 build/default/debug/_ext/792872985/drv_spi.o
 .debug_str     0x00001489      0x119 build/default/debug/_ext/792872985/db_appio.o
 .debug_str     0x000015a2      0x12f build/default/debug/_ext/792872985/spi_ram.o
 .debug_str     0x000016d1      0x12f build/default/debug/_ext/792872985/spi_eeprom.o
 .debug_str     0x00001800      0x12f build/default/debug/_ext/792872985/spi_flash.o
 .debug_str     0x0000192f      0x1b3 build/default/debug/_ext/792872985/drv_media.o
 .debug_str     0x00001ae2      0x196 build/default/debug/_ext/427700826/tcpip_announce.o
 .debug_str     0x00001c78      0x1d1 build/default/debug/_ext/427700826/http2.o
 .debug_str     0x00001e49      0x170 build/default/debug/_ext/427700826/arcfour.o
 .debug_str     0x00001fb9      0x23b build/default/debug/_ext/427700826/arp.o
 .debug_str     0x000021f4      0x170 build/default/debug/_ext/427700826/berkeley_api.o
 .debug_str     0x00002364      0x1c6 build/default/debug/_ext/427700826/dhcp.o
 .debug_str     0x0000252a      0x170 build/default/debug/_ext/427700826/dhcps.o
 .debug_str     0x0000269a      0x18f build/default/debug/_ext/427700826/dns.o
 .debug_str     0x00002829      0x170 build/default/debug/_ext/427700826/dnss.o
 .debug_str     0x00002999      0x170 build/default/debug/_ext/427700826/dyn_dns.o
 .debug_str     0x00002b09      0x170 build/default/debug/_ext/427700826/enc28_mac.o
 .debug_str     0x00002c79      0x170 build/default/debug/_ext/427700826/enc28j60.o
 .debug_str     0x00002de9      0x170 build/default/debug/_ext/427700826/encs24j600.o
 .debug_str     0x00002f59      0x170 build/default/debug/_ext/427700826/encx24_mac.o
 .debug_str     0x000030c9      0x1f7 build/default/debug/_ext/427700826/eth_pic32_ext_phy.o
 .debug_str     0x000032c0      0x170 build/default/debug/_ext/427700826/eth_pic32_ext_phy_dp83848.o
 .debug_str     0x00003430      0x210 build/default/debug/_ext/427700826/eth_pic32_int_mac.o
 .debug_str     0x00003640      0x170 build/default/debug/_ext/427700826/ftp.o
 .debug_str     0x000037b0        0x0 build/default/debug/_ext/427700826/hash_fnv.o
 .debug_str     0x000037b0        0xa build/default/debug/_ext/427700826/hash_tbl.o
 .debug_str     0x000037ba      0x1a8 build/default/debug/_ext/427700826/icmp.o
 .debug_str     0x00003962      0x170 build/default/debug/_ext/427700826/icmpv6.o
 .debug_str     0x00003ad2      0x227 build/default/debug/_ext/427700826/ipv4.o
 .debug_str     0x00003cf9      0x170 build/default/debug/_ext/427700826/ipv6.o
 .debug_str     0x00003e69      0x19c build/default/debug/_ext/427700826/mac_events_pic32.o
 .debug_str     0x00004005      0x1b1 build/default/debug/_ext/427700826/nbns.o
 .debug_str     0x000041b6      0x170 build/default/debug/_ext/427700826/ndp.o
 .debug_str     0x00004326      0x170 build/default/debug/_ext/427700826/tcpip_reboot.o
 .debug_str     0x00004496      0x1a5 build/default/debug/_ext/427700826/rsa.o
 .debug_str     0x0000463b      0x18f build/default/debug/_ext/427700826/smtp.o
 .debug_str     0x000047ca      0x170 build/default/debug/_ext/427700826/snmp.o
 .debug_str     0x0000493a      0x170 build/default/debug/_ext/427700826/snmpv3.o
 .debug_str     0x00004aaa      0x170 build/default/debug/_ext/427700826/snmpv3_usm.o
 .debug_str     0x00004c1a      0x170 build/default/debug/_ext/427700826/sntp.o
 .debug_str     0x00004d8a      0x205 build/default/debug/_ext/427700826/ssl.o
 .debug_str     0x00004f8f      0x272 build/default/debug/_ext/427700826/tcp.o
 .debug_str     0x00005201      0x195 build/default/debug/_ext/427700826/tcpip_heap_alloc.o
 .debug_str     0x00005396      0x170 build/default/debug/_ext/427700826/tcpip_storage.o
 .debug_str     0x00005506      0x1b7 build/default/debug/_ext/427700826/telnet.o
 .debug_str     0x000056bd      0x170 build/default/debug/_ext/427700826/tftpc.o
 .debug_str     0x0000582d      0x24d build/default/debug/_ext/427700826/udp.o
 .debug_str     0x00005a7a      0x31b build/default/debug/_ext/427700826/tcpip_mac_object.o
 .debug_str     0x00005d95      0x347 build/default/debug/_ext/427700826/tcpip_manager.o
 .debug_str     0x000060dc      0x1ab build/default/debug/_ext/427700826/tcpip_helpers.o
 .debug_str     0x00006287      0x25c build/default/debug/_ext/427700826/tcpip_commands.o
 .debug_str     0x000064e3      0x212 build/default/debug/_ext/427700826/iperf.o
 .debug_str     0x000066f5        0xb build/default/debug/_ext/427700826/tcpip_notify.o
 .debug_str     0x00006700      0x170 build/default/debug/_ext/427700826/zero_conf_helper.o
 .debug_str     0x00006870      0x1c1 build/default/debug/_ext/427700826/zero_conf_link_local.o
 .debug_str     0x00006a31      0x22f build/default/debug/_ext/427700826/zero_conf_multicast_dns.o
 .debug_str     0x00006c60      0x178 build/default/debug/_ext/334706090/wf_tx_power.o
 .debug_str     0x00006dd8      0x1ba build/default/debug/_ext/334706090/wf_connect.o
 .debug_str     0x00006f92      0x1b2 build/default/debug/_ext/334706090/wf_connection_algorithm.o
 .debug_str     0x00007144      0x177 build/default/debug/_ext/334706090/wf_connection_manager.o
 .debug_str     0x000072bb      0x200 build/default/debug/_ext/334706090/wf_connection_profile.o
 .debug_str     0x000074bb      0x17a build/default/debug/_ext/334706090/wf_easy_config.o
 .debug_str     0x00007635      0x1a9 build/default/debug/_ext/334706090/wf_eint.o
 .debug_str     0x000077de      0x1ac build/default/debug/_ext/334706090/wf_event_handler.o
 .debug_str     0x0000798a      0x242 build/default/debug/_ext/334706090/wf_init.o
 .debug_str     0x00007bcc      0x1a4 build/default/debug/_ext/334706090/wf_power_save.o
 .debug_str     0x00007d70      0x170 build/default/debug/_ext/334706090/wf_scan.o
 .debug_str     0x00007ee0      0x183 build/default/debug/_ext/334706090/wf_spi.o
 .debug_str     0x00008063      0x1b3 build/default/debug/_ext/334706090/mrf24w_mac_pic32.o
 .debug_str     0x00008216      0x18b build/default/debug/_ext/334706090/mrf24w_events.o
 .debug_str     0x000083a1      0x2e1 build/default/debug/_ext/334706090/wf_debug_output.o
 .debug_str     0x00008682      0x1bc build/default/debug/_ext/334706090/wf_commands.o
 .debug_str     0x0000883e      0x170 build/default/debug/_ext/334706090/wf_pbkdf2.o
 .debug_str     0x000089ae      0x237 build/default/debug/_ext/334706090/wf_driver_com_24g.o
 .debug_str     0x00008be5      0x22f build/default/debug/_ext/334706090/wf_driver_raw_24g.o
 .debug_str     0x00008e14      0x220 build/default/debug/_ext/334706090/wf_mac_24g.o
 .debug_str     0x00009034      0x1b5 build/default/debug/_ext/334706090/wf_mgmt_msg_24g.o
 .debug_str     0x000091e9      0x1e0 build/default/debug/_ext/334706090/wf_param_msg_24g.o
 .debug_str     0x000093c9      0x239 build/default/debug/_ext/334706090/wf_configData.o
 .debug_str     0x00009602      0x2a0 build/default/debug/_ext/1472/main_demo.o
 .debug_str     0x000098a2        0x0 build/default/debug/_ext/1472/custom_snmp_app.o
 .debug_str     0x000098a2      0x15f build/default/debug/_ext/1472/custom_ssl_cert.o
 .debug_str     0x00009a01      0x13f build/default/debug/_ext/1472/mpfs_img2.o
 .debug_str     0x00009b40      0x156 build/default/debug/_ext/1472/wf_config.o
 .debug_str     0x00009c96      0x1b9 build/default/debug/_ext/1472/custom_http_app.o
 .debug_str     0x00009e4f        0x0 c:/program files/microchip/xc32/v1.21/bin/../lib/gcc/pic32mx/4.5.2/../../../../pic32mx/lib/size\libmchp_peripheral.a(open_core_timer_lib.o)
 .debug_str     0x00009e4f        0x0 c:/program files/microchip/xc32/v1.21/bin/../lib/gcc/pic32mx/4.5.2/../../../../pic32mx/lib/size\libmchp_peripheral_32MX795F512L.a(eth_ack_packet_lib.o)
 .debug_str     0x00009e4f        0x0 c:/program files/microchip/xc32/v1.21/bin/../lib/gcc/pic32mx/4.5.2/../../../../pic32mx/lib/size\libmchp_peripheral_32MX795F512L.a(eth_close_lib.o)
 .debug_str     0x00009e4f        0x0 c:/program files/microchip/xc32/v1.21/bin/../lib/gcc/pic32mx/4.5.2/../../../../pic32mx/lib/size\libmchp_peripheral_32MX795F512L.a(eth_descriptors_add_lib.o)
 .debug_str     0x00009e4f        0x0 c:/program files/microchip/xc32/v1.21/bin/../lib/gcc/pic32mx/4.5.2/../../../../pic32mx/lib/size\libmchp_peripheral_32MX795F512L.a(eth_descriptors_remove_lib.o)
 .debug_str     0x00009e4f        0x0 c:/program files/microchip/xc32/v1.21/bin/../lib/gcc/pic32mx/4.5.2/../../../../pic32mx/lib/size\libmchp_peripheral_32MX795F512L.a(eth_events_lib.o)
 .debug_str     0x00009e4f        0x0 c:/program files/microchip/xc32/v1.21/bin/../lib/gcc/pic32mx/4.5.2/../../../../pic32mx/lib/size\libmchp_peripheral_32MX795F512L.a(eth_init_lib.o)
 .debug_str     0x00009e4f        0x0 c:/program files/microchip/xc32/v1.21/bin/../lib/gcc/pic32mx/4.5.2/../../../../pic32mx/lib/size\libmchp_peripheral_32MX795F512L.a(eth_mac_open_lib.o)
 .debug_str     0x00009e4f        0x0 c:/program files/microchip/xc32/v1.21/bin/../lib/gcc/pic32mx/4.5.2/../../../../pic32mx/lib/size\libmchp_peripheral_32MX795F512L.a(eth_mac_set_address_max_lib.o)
 .debug_str     0x00009e4f        0x0 c:/program files/microchip/xc32/v1.21/bin/../lib/gcc/pic32mx/4.5.2/../../../../pic32mx/lib/size\libmchp_peripheral_32MX795F512L.a(eth_rx_buffers_append_lib.o)
 .debug_str     0x00009e4f        0x0 c:/program files/microchip/xc32/v1.21/bin/../lib/gcc/pic32mx/4.5.2/../../../../pic32mx/lib/size\libmchp_peripheral_32MX795F512L.a(eth_rx_filters_lib.o)
 .debug_str     0x00009e4f        0x0 c:/program files/microchip/xc32/v1.21/bin/../lib/gcc/pic32mx/4.5.2/../../../../pic32mx/lib/size\libmchp_peripheral_32MX795F512L.a(eth_rx_get_packet_lib.o)
 .debug_str     0x00009e4f        0x0 c:/program files/microchip/xc32/v1.21/bin/../lib/gcc/pic32mx/4.5.2/../../../../pic32mx/lib/size\libmchp_peripheral_32MX795F512L.a(eth_rx_set_buffer_size_lib.o)
 .debug_str     0x00009e4f        0x0 c:/program files/microchip/xc32/v1.21/bin/../lib/gcc/pic32mx/4.5.2/../../../../pic32mx/lib/size\libmchp_peripheral_32MX795F512L.a(eth_tx_packet_lib.o)
 .debug_str     0x00009e4f        0x0 c:/program files/microchip/xc32/v1.21/bin/../lib/gcc/pic32mx/4.5.2/../../../../pic32mx/lib/size\libmchp_peripheral_32MX795F512L.a(_eth_append_busy_list_lib.o)
 .debug_str     0x00009e4f        0x0 c:/program files/microchip/xc32/v1.21/bin/../lib/gcc/pic32mx/4.5.2/../../../../pic32mx/lib/size\libmchp_peripheral_32MX795F512L.a(eth_miim_access.o)
 .debug_str     0x00009e4f        0x0 c:/program files/microchip/xc32/v1.21/bin/../lib/gcc/pic32mx/4.5.2/../../../../pic32mx/lib/size\libmchp_peripheral_32MX795F512L.a(soft_reset_lib.o)
 .debug_str     0x00009e4f        0x0 c:/program files/microchip/xc32/v1.21/bin/../lib/gcc/pic32mx/4.5.2/../../../../pic32mx/lib/size\libmchp_peripheral_32MX795F512L.a(pcache.o)
 .debug_str     0x00009e4f        0x0 c:/program files/microchip/xc32/v1.21/bin/../lib/gcc/pic32mx/4.5.2/../../../../pic32mx/lib/size\libmchp_peripheral_32MX795F512L.a(int_disable_interrupts_lib.o)
 .debug_str     0x00009e4f        0x0 c:/program files/microchip/xc32/v1.21/bin/../lib/gcc/pic32mx/4.5.2/../../../../pic32mx/lib/size\libmchp_peripheral_32MX795F512L.a(int_restore_interrupts_lib.o)
 .debug_str     0x00009e4f        0x0 c:/program files/microchip/xc32/v1.21/bin/../lib/gcc/pic32mx/4.5.2/../../../../pic32mx/lib/size\libmchp_peripheral_32MX795F512L.a(int_enable_mv_int_lib.o)
 .debug_str     0x00009e4f        0x0 c:/program files/microchip/xc32/v1.21/bin/../lib/gcc/pic32mx/4.5.2/../../../../pic32mx/lib/size\libmchp_peripheral_32MX795F512L.a(int_tbl_lib.o)
 .debug_str     0x00009e4f        0x0 c:/program files/microchip/xc32/v1.21/bin/../lib/gcc/pic32mx/4.5.2/../../../../pic32mx/lib/size\libmchp_peripheral_32MX795F512L.a(rtcc_init_lib.o)
 .debug_str     0x00009e4f        0x0 c:/program files/microchip/xc32/v1.21/bin/../lib/gcc/pic32mx/4.5.2/../../../../pic32mx/lib/size\libmchp_peripheral_32MX795F512L.a(rtcc_open_lib.o)
 .debug_str     0x00009e4f        0x0 c:/program files/microchip/xc32/v1.21/bin/../lib/gcc/pic32mx/4.5.2/../../../../pic32mx/lib/size\libmchp_peripheral_32MX795F512L.a(spi_chn_data_rdy_lib.o)
 .debug_str     0x00009e4f        0x0 c:/program files/microchip/xc32/v1.21/bin/../lib/gcc/pic32mx/4.5.2/../../../../pic32mx/lib/size\libmchp_peripheral_32MX795F512L.a(spi_chn_getc_lib.o)
 .debug_str     0x00009e4f        0x0 c:/program files/microchip/xc32/v1.21/bin/../lib/gcc/pic32mx/4.5.2/../../../../pic32mx/lib/size\libmchp_peripheral_32MX795F512L.a(spi_chn_open_lib.o)
 .debug_str     0x00009e4f        0x0 c:/program files/microchip/xc32/v1.21/bin/../lib/gcc/pic32mx/4.5.2/../../../../pic32mx/lib/size\libmchp_peripheral_32MX795F512L.a(spi_chn_putc_lib.o)
 .debug_str     0x00009e4f        0x0 c:/program files/microchip/xc32/v1.21/bin/../lib/gcc/pic32mx/4.5.2/../../../../pic32mx/lib/size\libmchp_peripheral_32MX795F512L.a(spi_chn_tx_buff_empty_lib.o)
 .debug_str     0x00009e4f        0x0 c:/program files/microchip/xc32/v1.21/bin/../lib/gcc/pic32mx/4.5.2/../../../../pic32mx/lib/size\libmchp_peripheral_32MX795F512L.a(spi_io_tbl_libp.o)
 .debug_str     0x00009e4f        0x0 c:/program files/microchip/xc32/v1.21/bin/../lib/gcc/pic32mx/4.5.2/../../../../pic32mx/lib/size\libmchp_peripheral_32MX795F512L.a(spi_map_tbl_libp.o)
 .debug_str     0x00009e4f        0x0 c:/program files/microchip/xc32/v1.21/bin/../lib/gcc/pic32mx/4.5.2/../../../../pic32mx/lib/size\libmchp_peripheral_32MX795F512L.a(port_set_pins_digital_in_lib.o)
 .debug_str     0x00009e4f        0x0 c:/program files/microchip/xc32/v1.21/bin/../lib/gcc/pic32mx/4.5.2/../../../../pic32mx/lib/size\libmchp_peripheral_32MX795F512L.a(port_set_pins_digital_out_lib.o)
 .debug_str     0x00009e4f        0x0 c:/program files/microchip/xc32/v1.21/bin/../lib/gcc/pic32mx/4.5.2/../../../../pic32mx/lib/size\libmchp_peripheral_32MX795F512L.a(_ports_tbl_libp.o)
 .debug_str     0x00009e4f        0x0 c:/program files/microchip/xc32/v1.21/bin/../lib/gcc/pic32mx/4.5.2/../../../../pic32mx/lib/size\libmchp_peripheral_32MX795F512L.a(int_enable_interrupts_lib.o)
 .debug_str     0x00009e4f        0x0 c:/program files/microchip/xc32/v1.21/bin/../lib/gcc/pic32mx/4.5.2/../../../../pic32mx/lib/size\libmchp_peripheral_32MX795F512L.a(_rtcc_wait_clock_off_lib.o)
 .debug_str     0x00009e4f        0x0 c:/program files/microchip/xc32/v1.21/bin/../lib/gcc/pic32mx/4.5.2/../../../../pic32mx/lib/size\libmchp_peripheral_32MX795F512L.a(read_core_timer_lib.o)
 .debug_str     0x00009e4f        0x0 c:/program files/microchip/xc32/v1.21/bin/../lib/gcc/pic32mx/4.5.2/size\libgcc.a(_udivdi3.o)
 .debug_str     0x00009e4f        0x0 c:/program files/microchip/xc32/v1.21/bin/../lib/gcc/pic32mx/4.5.2/size\libgcc.a(floatunsisf.o)
 .debug_str     0x00009e4f        0x0 c:/program files/microchip/xc32/v1.21/bin/../lib/gcc/pic32mx/4.5.2/../../../../pic32mx/lib/size\libpic32.a(default-bootstrap-exception-handler.o)
 .debug_str     0x00009e4f        0x0 c:/program files/microchip/xc32/v1.21/bin/../lib/gcc/pic32mx/4.5.2/../../../../pic32mx/lib/size\libpic32.a(default-on-reset.o)
 .debug_str     0x00009e4f        0x0 c:/program files/microchip/xc32/v1.21/bin/../lib/gcc/pic32mx/4.5.2/../../../../pic32mx/lib/size\libpic32.a(default-on-bootstrap.o)
 .debug_str     0x00009e4f        0x0 c:/program files/microchip/xc32/v1.21/bin/../lib/gcc/pic32mx/4.5.2/../../../../pic32mx/lib/size\libpic32.a(errno.o)
 .debug_str     0x00009e4f        0x0 c:/program files/microchip/xc32/v1.21/bin/../lib/gcc/pic32mx/4.5.2/../../../../pic32mx/lib/size\libpic32.a(defaultinterrupt.o)
 .debug_str     0x00009e4f        0x0 c:/program files/microchip/xc32/v1.21/bin/../lib/gcc/pic32mx/4.5.2/../../../../pic32mx/lib/size\libdebug.a(db_utils.o)
 .debug_str     0x00009e4f        0x0 c:/program files/microchip/xc32/v1.21/bin/../lib/gcc/pic32mx/4.5.2/../../../../pic32mx/lib/size\libpic32.a(xc32_uart.o)
 .debug_str     0x00009e4f        0x0 c:/program files/microchip/xc32/v1.21/bin/../lib/gcc/pic32mx/4.5.2/../../../../pic32mx/lib/size\libc.a(_iob.o)
 .debug_str     0x00009e4f        0x0 c:/program files/microchip/xc32/v1.21/bin/../lib/gcc/pic32mx/4.5.2/../../../../pic32mx/lib/size\libc.a(atoi.o)
 .debug_str     0x00009e4f        0x0 c:/program files/microchip/xc32/v1.21/bin/../lib/gcc/pic32mx/4.5.2/../../../../pic32mx/lib/size\libc.a(atol.o)
 .debug_str     0x00009e4f        0x0 c:/program files/microchip/xc32/v1.21/bin/../lib/gcc/pic32mx/4.5.2/../../../../pic32mx/lib/size\libc.a(calloc.o)
 .debug_str     0x00009e4f        0x0 c:/program files/microchip/xc32/v1.21/bin/../lib/gcc/pic32mx/4.5.2/../../../../pic32mx/lib/size\libc.a(ctype.o)
 .debug_str     0x00009e4f        0x0 c:/program files/microchip/xc32/v1.21/bin/../lib/gcc/pic32mx/4.5.2/../../../../pic32mx/lib/size\libc.a(malloc.o)
 .debug_str     0x00009e4f        0x0 c:/program files/microchip/xc32/v1.21/bin/../lib/gcc/pic32mx/4.5.2/../../../../pic32mx/lib/size\libc.a(rand.o)
 .debug_str     0x00009e4f        0x0 c:/program files/microchip/xc32/v1.21/bin/../lib/gcc/pic32mx/4.5.2/../../../../pic32mx/lib/size\libc.a(setbuf.o)
 .debug_str     0x00009e4f        0x0 c:/program files/microchip/xc32/v1.21/bin/../lib/gcc/pic32mx/4.5.2/../../../../pic32mx/lib/size\libc.a(strcat.o)
 .debug_str     0x00009e4f        0x0 c:/program files/microchip/xc32/v1.21/bin/../lib/gcc/pic32mx/4.5.2/../../../../pic32mx/lib/size\libc.a(strchr.o)
 .debug_str     0x00009e4f        0x0 c:/program files/microchip/xc32/v1.21/bin/../lib/gcc/pic32mx/4.5.2/../../../../pic32mx/lib/size\libc.a(strncmp.o)
 .debug_str     0x00009e4f        0x0 c:/program files/microchip/xc32/v1.21/bin/../lib/gcc/pic32mx/4.5.2/../../../../pic32mx/lib/size\libc.a(strncpy.o)
 .debug_str     0x00009e4f        0x0 c:/program files/microchip/xc32/v1.21/bin/../lib/gcc/pic32mx/4.5.2/../../../../pic32mx/lib/size\libc.a(strrchr.o)
 .debug_str     0x00009e4f        0x0 c:/program files/microchip/xc32/v1.21/bin/../lib/gcc/pic32mx/4.5.2/../../../../pic32mx/lib/size\libc.a(strstr.o)
 .debug_str     0x00009e4f        0x0 c:/program files/microchip/xc32/v1.21/bin/../lib/gcc/pic32mx/4.5.2/../../../../pic32mx/lib/size\libc.a(strtok.o)
 .debug_str     0x00009e4f        0x0 c:/program files/microchip/xc32/v1.21/bin/../lib/gcc/pic32mx/4.5.2/../../../../pic32mx/lib/size\libc.a(snprintf_cdnopsuxX.eo)
 .debug_str     0x00009e4f        0x0 c:/program files/microchip/xc32/v1.21/bin/../lib/gcc/pic32mx/4.5.2/../../../../pic32mx/lib/size\libc.a(sprintf_cdnopsuxX.eo)
 .debug_str     0x00009e4f        0x0 c:/program files/microchip/xc32/v1.21/bin/../lib/gcc/pic32mx/4.5.2/../../../../pic32mx/lib/size\libc.a(vsnprintf_cdnopsuxX.eo)
 .debug_str     0x00009e4f        0x0 c:/program files/microchip/xc32/v1.21/bin/../lib/gcc/pic32mx/4.5.2/../../../../pic32mx/lib/size\libc.a(vsnprintf.o)
 .debug_str     0x00009e4f        0x0 c:/program files/microchip/xc32/v1.21/bin/../lib/gcc/pic32mx/4.5.2/../../../../pic32mx/lib/size\libc.a(buf.o)
 .debug_str     0x00009e4f        0x0 c:/program files/microchip/xc32/v1.21/bin/../lib/gcc/pic32mx/4.5.2/../../../../pic32mx/lib/size\libc.a(strcspn.o)
 .debug_str     0x00009e4f        0x0 c:/program files/microchip/xc32/v1.21/bin/../lib/gcc/pic32mx/4.5.2/../../../../pic32mx/lib/size\libc.a(strspn.o)
 .debug_str     0x00009e4f        0x0 c:/program files/microchip/xc32/v1.21/bin/../lib/gcc/pic32mx/4.5.2/../../../../pic32mx/lib/size\libc.a(doprnt_cdnopsuxX.eo)
 .debug_str     0x00009e4f        0x0 c:/program files/microchip/xc32/v1.21/bin/../lib/gcc/pic32mx/4.5.2/../../../../pic32mx/lib/size\libc.a(doprnt.o)
 .debug_str     0x00009e4f        0x0 c:/program files/microchip/xc32/v1.21/bin/../lib/gcc/pic32mx/4.5.2/../../../../pic32mx/lib/size\libc.a(_fputc_simple.o)
 .debug_str     0x00009e4f        0x0 c:/program files/microchip/xc32/v1.21/bin/../lib/gcc/pic32mx/4.5.2/../../../../pic32mx/lib/size\libc.a(powersf.o)
 .debug_str     0x00009e4f        0x0 c:/program files/microchip/xc32/v1.21/bin/../lib/gcc/pic32mx/4.5.2/../../../../pic32mx/lib/size\libc.a(_flsbuf_simple.o)
 .debug_str     0x00009e4f        0x0 c:/program files/microchip/xc32/v1.21/bin/../lib/gcc/pic32mx/4.5.2/../../../../pic32mx/lib/size\libpic32.a(sbrk.o)
 .debug_str     0x00009e4f        0x0 c:/program files/microchip/xc32/v1.21/bin/../lib/gcc/pic32mx/4.5.2/../../../../pic32mx/lib/size\libpic32.a(write.o)
 .debug_str     0x00009e4f        0x0 c:/program files/microchip/xc32/v1.21/bin/../lib/gcc/pic32mx/4.5.2/../../../../pic32mx/lib/size\libe.a(_floatdisf.o)
 .debug_str     0x00009e4f        0x0 c:/program files/microchip/xc32/v1.21/bin/../lib/gcc/pic32mx/4.5.2/size\libgcc.a(_lshrdi3.o)
 .debug_str     0x00009e4f        0x0 c:/program files/microchip/xc32/v1.21/bin/../lib/gcc/pic32mx/4.5.2/size\libgcc.a(_floatundisf.o)
 .debug_str     0x00009e4f        0x0 c:/program files/microchip/xc32/v1.21/bin/../lib/gcc/pic32mx/4.5.2/size\libgcc.a(_umoddi3.o)

.debug_loc      0x00000000    0x12368
 *(.debug_loc)
 .debug_loc     0x00000000       0xb0 build/default/debug/_ext/979510709/bsp.o
 .debug_loc     0x000000b0       0x58 build/default/debug/_ext/101875047/lfsr.o
 .debug_loc     0x00000108      0x190 build/default/debug/_ext/101875047/hashes.o
 .debug_loc     0x00000298      0x2c2 build/default/debug/_ext/101875047/big_int.o
 .debug_loc     0x0000055a      0x160 build/default/debug/_ext/101875047/helpers.o
 .debug_loc     0x000006ba       0xb0 build/default/debug/_ext/1472/generic_tcp_client.o
 .debug_loc     0x0000076a       0xb2 build/default/debug/_ext/1472/generic_tcp_server.o
 .debug_loc     0x0000081c      0x108 build/default/debug/_ext/1472/ping_demo.o
 .debug_loc     0x00000924       0xb2 build/default/debug/_ext/1472/smtp_demo.o
 .debug_loc     0x000009d6      0x5b8 build/default/debug/_ext/365611741/system_services.o
 .debug_loc     0x00000f8e      0x37c build/default/debug/_ext/365611741/system_debug.o
 .debug_loc     0x0000130a      0x162 build/default/debug/_ext/365611741/system_random.o
 .debug_loc     0x0000146c      0x424 build/default/debug/_ext/365611741/system_command.o
 .debug_loc     0x00001890      0x1e4 build/default/debug/_ext/365611741/system_userio.o
 .debug_loc     0x00001a74      0xc66 build/default/debug/_ext/97638081/sys_fs.o
 .debug_loc     0x000026da      0x4a4 build/default/debug/_ext/97638081/mpfs2.o
 .debug_loc     0x00002b7e      0x1b8 build/default/debug/_ext/792872985/usart.o
 .debug_loc     0x00002d36      0x108 build/default/debug/_ext/792872985/drv_spi.o
 .debug_loc     0x00002e3e      0x1b8 build/default/debug/_ext/792872985/db_appio.o
 .debug_loc     0x00002ff6       0x84 build/default/debug/_ext/792872985/spi_ram.o
 .debug_loc     0x0000307a       0x84 build/default/debug/_ext/792872985/spi_eeprom.o
 .debug_loc     0x000030fe       0x84 build/default/debug/_ext/792872985/spi_flash.o
 .debug_loc     0x00003182      0x344 build/default/debug/_ext/792872985/drv_media.o
 .debug_loc     0x000034c6      0x1ba build/default/debug/_ext/427700826/tcpip_announce.o
 .debug_loc     0x00003680      0x666 build/default/debug/_ext/427700826/http2.o
 .debug_loc     0x00003ce6       0xdc build/default/debug/_ext/427700826/arcfour.o
 .debug_loc     0x00003dc2      0x744 build/default/debug/_ext/427700826/arp.o
 .debug_loc     0x00004506       0x84 build/default/debug/_ext/427700826/berkeley_api.o
 .debug_loc     0x0000458a      0x3cc build/default/debug/_ext/427700826/dhcp.o
 .debug_loc     0x00004956      0x108 build/default/debug/_ext/427700826/dhcps.o
 .debug_loc     0x00004a5e      0x26a build/default/debug/_ext/427700826/dns.o
 .debug_loc     0x00004cc8       0x84 build/default/debug/_ext/427700826/dnss.o
 .debug_loc     0x00004d4c       0x84 build/default/debug/_ext/427700826/dyn_dns.o
 .debug_loc     0x00004dd0       0x84 build/default/debug/_ext/427700826/enc28_mac.o
 .debug_loc     0x00004e54       0x84 build/default/debug/_ext/427700826/enc28j60.o
 .debug_loc     0x00004ed8       0x84 build/default/debug/_ext/427700826/encs24j600.o
 .debug_loc     0x00004f5c       0x84 build/default/debug/_ext/427700826/encx24_mac.o
 .debug_loc     0x00004fe0      0x2ee build/default/debug/_ext/427700826/eth_pic32_ext_phy.o
 .debug_loc     0x000052ce      0x134 build/default/debug/_ext/427700826/eth_pic32_ext_phy_dp83848.o
 .debug_loc     0x00005402      0x582 build/default/debug/_ext/427700826/eth_pic32_int_mac.o
 .debug_loc     0x00005984       0x84 build/default/debug/_ext/427700826/ftp.o
 .debug_loc     0x00005a08       0x58 build/default/debug/_ext/427700826/hash_fnv.o
 .debug_loc     0x00005a60      0x160 build/default/debug/_ext/427700826/hash_tbl.o
 .debug_loc     0x00005bc0      0x1b8 build/default/debug/_ext/427700826/icmp.o
 .debug_loc     0x00005d78       0x84 build/default/debug/_ext/427700826/icmpv6.o
 .debug_loc     0x00005dfc      0x738 build/default/debug/_ext/427700826/ipv4.o
 .debug_loc     0x00006534       0x84 build/default/debug/_ext/427700826/ipv6.o
 .debug_loc     0x000065b8      0x23c build/default/debug/_ext/427700826/mac_events_pic32.o
 .debug_loc     0x000067f4      0x162 build/default/debug/_ext/427700826/nbns.o
 .debug_loc     0x00006956       0x84 build/default/debug/_ext/427700826/ndp.o
 .debug_loc     0x000069da       0x84 build/default/debug/_ext/427700826/tcpip_reboot.o
 .debug_loc     0x00006a5e      0x23c build/default/debug/_ext/427700826/rsa.o
 .debug_loc     0x00006c9a      0x2ec build/default/debug/_ext/427700826/smtp.o
 .debug_loc     0x00006f86       0x84 build/default/debug/_ext/427700826/snmp.o
 .debug_loc     0x0000700a       0x84 build/default/debug/_ext/427700826/snmpv3.o
 .debug_loc     0x0000708e       0x84 build/default/debug/_ext/427700826/snmpv3_usm.o
 .debug_loc     0x00007112       0x84 build/default/debug/_ext/427700826/sntp.o
 .debug_loc     0x00007196      0xa86 build/default/debug/_ext/427700826/ssl.o
 .debug_loc     0x00007c1c     0x108e build/default/debug/_ext/427700826/tcp.o
 .debug_loc     0x00008caa      0x344 build/default/debug/_ext/427700826/tcpip_heap_alloc.o
 .debug_loc     0x00008fee       0x84 build/default/debug/_ext/427700826/tcpip_storage.o
 .debug_loc     0x00009072      0x2f2 build/default/debug/_ext/427700826/telnet.o
 .debug_loc     0x00009364       0x84 build/default/debug/_ext/427700826/tftpc.o
 .debug_loc     0x000093e8      0x7ea build/default/debug/_ext/427700826/udp.o
 .debug_loc     0x00009bd2      0x4a4 build/default/debug/_ext/427700826/tcpip_mac_object.o
 .debug_loc     0x0000a076      0xe4a build/default/debug/_ext/427700826/tcpip_manager.o
 .debug_loc     0x0000aec0      0x528 build/default/debug/_ext/427700826/tcpip_helpers.o
 .debug_loc     0x0000b3e8      0x348 build/default/debug/_ext/427700826/tcpip_commands.o
 .debug_loc     0x0000b730      0x63c build/default/debug/_ext/427700826/iperf.o
 .debug_loc     0x0000bd6c       0x84 build/default/debug/_ext/427700826/tcpip_notify.o
 .debug_loc     0x0000bdf0       0xb0 build/default/debug/_ext/427700826/zero_conf_helper.o
 .debug_loc     0x0000bea0      0x2c2 build/default/debug/_ext/427700826/zero_conf_link_local.o
 .debug_loc     0x0000c162      0x4b4 build/default/debug/_ext/427700826/zero_conf_multicast_dns.o
 .debug_loc     0x0000c616      0x108 build/default/debug/_ext/334706090/wf_tx_power.o
 .debug_loc     0x0000c71e      0x164 build/default/debug/_ext/334706090/wf_connect.o
 .debug_loc     0x0000c882      0x39c build/default/debug/_ext/334706090/wf_connection_algorithm.o
 .debug_loc     0x0000cc1e      0x1b8 build/default/debug/_ext/334706090/wf_connection_manager.o
 .debug_loc     0x0000cdd6      0x4a4 build/default/debug/_ext/334706090/wf_connection_profile.o
 .debug_loc     0x0000d27a       0xb2 build/default/debug/_ext/334706090/wf_easy_config.o
 .debug_loc     0x0000d32c      0x160 build/default/debug/_ext/334706090/wf_eint.o
 .debug_loc     0x0000d48c      0x23e build/default/debug/_ext/334706090/wf_event_handler.o
 .debug_loc     0x0000d6ca      0x160 build/default/debug/_ext/334706090/wf_init.o
 .debug_loc     0x0000d82a      0x318 build/default/debug/_ext/334706090/wf_power_save.o
 .debug_loc     0x0000db42      0x108 build/default/debug/_ext/334706090/wf_scan.o
 .debug_loc     0x0000dc4a      0x160 build/default/debug/_ext/334706090/wf_spi.o
 .debug_loc     0x0000ddaa      0x5ac build/default/debug/_ext/334706090/mrf24w_mac_pic32.o
 .debug_loc     0x0000e356      0x268 build/default/debug/_ext/334706090/mrf24w_events.o
 .debug_loc     0x0000e5be      0x3fa build/default/debug/_ext/334706090/wf_debug_output.o
 .debug_loc     0x0000e9b8      0x31a build/default/debug/_ext/334706090/wf_commands.o
 .debug_loc     0x0000ecd2       0x84 build/default/debug/_ext/334706090/wf_pbkdf2.o
 .debug_loc     0x0000ed56      0x4a4 build/default/debug/_ext/334706090/wf_driver_com_24g.o
 .debug_loc     0x0000f1fa      0x420 build/default/debug/_ext/334706090/wf_driver_raw_24g.o
 .debug_loc     0x0000f61a      0x4fc build/default/debug/_ext/334706090/wf_mac_24g.o
 .debug_loc     0x0000fb16      0x160 build/default/debug/_ext/334706090/wf_mgmt_msg_24g.o
 .debug_loc     0x0000fc76      0x4fc build/default/debug/_ext/334706090/wf_param_msg_24g.o
 .debug_loc     0x00010172      0x138 build/default/debug/_ext/334706090/wf_configData.o
 .debug_loc     0x000102aa      0x136 build/default/debug/_ext/1472/main_demo.o
 .debug_loc     0x000103e0       0x84 build/default/debug/_ext/1472/custom_ssl_cert.o
 .debug_loc     0x00010464       0x84 build/default/debug/_ext/1472/mpfs_img2.o
 .debug_loc     0x000104e8       0xb0 build/default/debug/_ext/1472/wf_config.o
 .debug_loc     0x00010598      0x766 build/default/debug/_ext/1472/custom_http_app.o
 .debug_loc     0x00010cfe      0xa67 c:/program files/microchip/xc32/v1.21/bin/../lib/gcc/pic32mx/4.5.2/size\libgcc.a(_udivdi3.o)
 .debug_loc     0x00011765       0x68 c:/program files/microchip/xc32/v1.21/bin/../lib/gcc/pic32mx/4.5.2/size\libgcc.a(floatunsisf.o)
 .debug_loc     0x000117cd       0x5f c:/program files/microchip/xc32/v1.21/bin/../lib/gcc/pic32mx/4.5.2/size\libgcc.a(_lshrdi3.o)
 .debug_loc     0x0001182c       0xc9 c:/program files/microchip/xc32/v1.21/bin/../lib/gcc/pic32mx/4.5.2/size\libgcc.a(_floatundisf.o)
 .debug_loc     0x000118f5      0xa73 c:/program files/microchip/xc32/v1.21/bin/../lib/gcc/pic32mx/4.5.2/size\libgcc.a(_umoddi3.o)

.debug_macinfo
 *(.debug_macinfo)

.debug_weaknames
 *(.debug_weaknames)

.debug_funcnames
 *(.debug_funcnames)

.debug_typenames
 *(.debug_typenames)

.debug_varnames
 *(.debug_varnames)

.debug_pubtypes
                0x00000000     0xcaa9
 *(.debug_pubtypes)
 .debug_pubtypes
                0x00000000       0xf9 build/default/debug/_ext/979510709/bsp.o
 .debug_pubtypes
                0x000000f9       0x3e build/default/debug/_ext/101875047/lfsr.o
 .debug_pubtypes
                0x00000137       0x6d build/default/debug/_ext/101875047/hashes.o
 .debug_pubtypes
                0x000001a4      0x13a build/default/debug/_ext/101875047/big_int.o
 .debug_pubtypes
                0x000002de       0x68 build/default/debug/_ext/101875047/helpers.o
 .debug_pubtypes
                0x00000346      0x192 build/default/debug/_ext/1472/generic_tcp_client.o
 .debug_pubtypes
                0x000004d8      0x12e build/default/debug/_ext/1472/generic_tcp_server.o
 .debug_pubtypes
                0x00000606      0x17a build/default/debug/_ext/1472/ping_demo.o
 .debug_pubtypes
                0x00000780      0x144 build/default/debug/_ext/1472/smtp_demo.o
 .debug_pubtypes
                0x000008c4      0x2a9 build/default/debug/_ext/365611741/system_services.o
 .debug_pubtypes
                0x00000b6d      0x1a8 build/default/debug/_ext/365611741/system_debug.o
 .debug_pubtypes
                0x00000d15      0x14c build/default/debug/_ext/365611741/system_random.o
 .debug_pubtypes
                0x00000e61      0x1c6 build/default/debug/_ext/365611741/system_command.o
 .debug_pubtypes
                0x00001027      0x1ec build/default/debug/_ext/365611741/system_userio.o
 .debug_pubtypes
                0x00001213      0x1ab build/default/debug/_ext/97638081/sys_fs.o
 .debug_pubtypes
                0x000013be      0x192 build/default/debug/_ext/97638081/mpfs2.o
 .debug_pubtypes
                0x00001550      0x1a7 build/default/debug/_ext/792872985/usart.o
 .debug_pubtypes
                0x000016f7      0x131 build/default/debug/_ext/792872985/drv_spi.o
 .debug_pubtypes
                0x00001828      0x145 build/default/debug/_ext/792872985/db_appio.o
 .debug_pubtypes
                0x0000196d       0xe7 build/default/debug/_ext/792872985/spi_ram.o
 .debug_pubtypes
                0x00001a54       0xe7 build/default/debug/_ext/792872985/spi_eeprom.o
 .debug_pubtypes
                0x00001b3b       0xe7 build/default/debug/_ext/792872985/spi_flash.o
 .debug_pubtypes
                0x00001c22      0x277 build/default/debug/_ext/792872985/drv_media.o
 .debug_pubtypes
                0x00001e99      0x32f build/default/debug/_ext/427700826/tcpip_announce.o
 .debug_pubtypes
                0x000021c8      0x344 build/default/debug/_ext/427700826/http2.o
 .debug_pubtypes
                0x0000250c      0x159 build/default/debug/_ext/427700826/arcfour.o
 .debug_pubtypes
                0x00002665      0x4a6 build/default/debug/_ext/427700826/arp.o
 .debug_pubtypes
                0x00002b0b      0x12c build/default/debug/_ext/427700826/berkeley_api.o
 .debug_pubtypes
                0x00002c37      0x392 build/default/debug/_ext/427700826/dhcp.o
 .debug_pubtypes
                0x00002fc9      0x141 build/default/debug/_ext/427700826/dhcps.o
 .debug_pubtypes
                0x0000310a      0x34b build/default/debug/_ext/427700826/dns.o
 .debug_pubtypes
                0x00003455      0x12c build/default/debug/_ext/427700826/dnss.o
 .debug_pubtypes
                0x00003581      0x12c build/default/debug/_ext/427700826/dyn_dns.o
 .debug_pubtypes
                0x000036ad      0x12c build/default/debug/_ext/427700826/enc28_mac.o
 .debug_pubtypes
                0x000037d9      0x12c build/default/debug/_ext/427700826/enc28j60.o
 .debug_pubtypes
                0x00003905      0x12c build/default/debug/_ext/427700826/encs24j600.o
 .debug_pubtypes
                0x00003a31      0x12c build/default/debug/_ext/427700826/encx24_mac.o
 .debug_pubtypes
                0x00003b5d      0x202 build/default/debug/_ext/427700826/eth_pic32_ext_phy.o
 .debug_pubtypes
                0x00003d5f      0x15e build/default/debug/_ext/427700826/eth_pic32_ext_phy_dp83848.o
 .debug_pubtypes
                0x00003ebd      0x4a6 build/default/debug/_ext/427700826/eth_pic32_int_mac.o
 .debug_pubtypes
                0x00004363      0x12c build/default/debug/_ext/427700826/ftp.o
 .debug_pubtypes
                0x0000448f       0x3a build/default/debug/_ext/427700826/hash_fnv.o
 .debug_pubtypes
                0x000044c9       0xe1 build/default/debug/_ext/427700826/hash_tbl.o
 .debug_pubtypes
                0x000045aa      0x360 build/default/debug/_ext/427700826/icmp.o
 .debug_pubtypes
                0x0000490a      0x12c build/default/debug/_ext/427700826/icmpv6.o
 .debug_pubtypes
                0x00004a36      0x399 build/default/debug/_ext/427700826/ipv4.o
 .debug_pubtypes
                0x00004dcf      0x12c build/default/debug/_ext/427700826/ipv6.o
 .debug_pubtypes
                0x00004efb      0x2c6 build/default/debug/_ext/427700826/mac_events_pic32.o
 .debug_pubtypes
                0x000051c1      0x3f7 build/default/debug/_ext/427700826/nbns.o
 .debug_pubtypes
                0x000055b8      0x12c build/default/debug/_ext/427700826/ndp.o
 .debug_pubtypes
                0x000056e4      0x12c build/default/debug/_ext/427700826/tcpip_reboot.o
 .debug_pubtypes
                0x00005810      0x2d4 build/default/debug/_ext/427700826/rsa.o
 .debug_pubtypes
                0x00005ae4      0x2d7 build/default/debug/_ext/427700826/smtp.o
 .debug_pubtypes
                0x00005dbb      0x12c build/default/debug/_ext/427700826/snmp.o
 .debug_pubtypes
                0x00005ee7      0x12c build/default/debug/_ext/427700826/snmpv3.o
 .debug_pubtypes
                0x00006013      0x12c build/default/debug/_ext/427700826/snmpv3_usm.o
 .debug_pubtypes
                0x0000613f      0x12c build/default/debug/_ext/427700826/sntp.o
 .debug_pubtypes
                0x0000626b      0x3b4 build/default/debug/_ext/427700826/ssl.o
 .debug_pubtypes
                0x0000661f      0x4b1 build/default/debug/_ext/427700826/tcp.o
 .debug_pubtypes
                0x00006ad0      0x203 build/default/debug/_ext/427700826/tcpip_heap_alloc.o
 .debug_pubtypes
                0x00006cd3      0x12c build/default/debug/_ext/427700826/tcpip_storage.o
 .debug_pubtypes
                0x00006dff      0x383 build/default/debug/_ext/427700826/telnet.o
 .debug_pubtypes
                0x00007182      0x12c build/default/debug/_ext/427700826/tftpc.o
 .debug_pubtypes
                0x000072ae      0x44b build/default/debug/_ext/427700826/udp.o
 .debug_pubtypes
                0x000076f9      0x238 build/default/debug/_ext/427700826/tcpip_mac_object.o
 .debug_pubtypes
                0x00007931      0x5c4 build/default/debug/_ext/427700826/tcpip_manager.o
 .debug_pubtypes
                0x00007ef5      0x262 build/default/debug/_ext/427700826/tcpip_helpers.o
 .debug_pubtypes
                0x00008157      0x3f6 build/default/debug/_ext/427700826/tcpip_commands.o
 .debug_pubtypes
                0x0000854d      0x466 build/default/debug/_ext/427700826/iperf.o
 .debug_pubtypes
                0x000089b3       0x6c build/default/debug/_ext/427700826/tcpip_notify.o
 .debug_pubtypes
                0x00008a1f      0x13a build/default/debug/_ext/427700826/zero_conf_helper.o
 .debug_pubtypes
                0x00008b59      0x2fd build/default/debug/_ext/427700826/zero_conf_link_local.o
 .debug_pubtypes
                0x00008e56      0x5b7 build/default/debug/_ext/427700826/zero_conf_multicast_dns.o
 .debug_pubtypes
                0x0000940d      0x155 build/default/debug/_ext/334706090/wf_tx_power.o
 .debug_pubtypes
                0x00009562      0x20c build/default/debug/_ext/334706090/wf_connect.o
 .debug_pubtypes
                0x0000976e      0x1f9 build/default/debug/_ext/334706090/wf_connection_algorithm.o
 .debug_pubtypes
                0x00009967      0x17b build/default/debug/_ext/334706090/wf_connection_manager.o
 .debug_pubtypes
                0x00009ae2      0x27f build/default/debug/_ext/334706090/wf_connection_profile.o
 .debug_pubtypes
                0x00009d61      0x1c0 build/default/debug/_ext/334706090/wf_easy_config.o
 .debug_pubtypes
                0x00009f21      0x184 build/default/debug/_ext/334706090/wf_eint.o
 .debug_pubtypes
                0x0000a0a5      0x21b build/default/debug/_ext/334706090/wf_event_handler.o
 .debug_pubtypes
                0x0000a2c0      0x22c build/default/debug/_ext/334706090/wf_init.o
 .debug_pubtypes
                0x0000a4ec      0x1bf build/default/debug/_ext/334706090/wf_power_save.o
 .debug_pubtypes
                0x0000a6ab      0x171 build/default/debug/_ext/334706090/wf_scan.o
 .debug_pubtypes
                0x0000a81c      0x16c build/default/debug/_ext/334706090/wf_spi.o
 .debug_pubtypes
                0x0000a988      0x343 build/default/debug/_ext/334706090/mrf24w_mac_pic32.o
 .debug_pubtypes
                0x0000accb      0x1e2 build/default/debug/_ext/334706090/mrf24w_events.o
 .debug_pubtypes
                0x0000aead      0x295 build/default/debug/_ext/334706090/wf_debug_output.o
 .debug_pubtypes
                0x0000b142      0x2b8 build/default/debug/_ext/334706090/wf_commands.o
 .debug_pubtypes
                0x0000b3fa      0x12c build/default/debug/_ext/334706090/wf_pbkdf2.o
 .debug_pubtypes
                0x0000b526      0x25c build/default/debug/_ext/334706090/wf_driver_com_24g.o
 .debug_pubtypes
                0x0000b782      0x16a build/default/debug/_ext/334706090/wf_driver_raw_24g.o
 .debug_pubtypes
                0x0000b8ec      0x265 build/default/debug/_ext/334706090/wf_mac_24g.o
 .debug_pubtypes
                0x0000bb51      0x17e build/default/debug/_ext/334706090/wf_mgmt_msg_24g.o
 .debug_pubtypes
                0x0000bccf      0x21b build/default/debug/_ext/334706090/wf_param_msg_24g.o
 .debug_pubtypes
                0x0000beea      0x217 build/default/debug/_ext/334706090/wf_configData.o
 .debug_pubtypes
                0x0000c101      0x303 build/default/debug/_ext/1472/main_demo.o
 .debug_pubtypes
                0x0000c404      0x111 build/default/debug/_ext/1472/custom_ssl_cert.o
 .debug_pubtypes
                0x0000c515      0x116 build/default/debug/_ext/1472/mpfs_img2.o
 .debug_pubtypes
                0x0000c62b      0x111 build/default/debug/_ext/1472/wf_config.o
 .debug_pubtypes
                0x0000c73c      0x1e5 build/default/debug/_ext/1472/custom_http_app.o
 .debug_pubtypes
                0x0000c921       0x59 c:/program files/microchip/xc32/v1.21/bin/../lib/gcc/pic32mx/4.5.2/size\libgcc.a(_udivdi3.o)
 .debug_pubtypes
                0x0000c97a       0x34 c:/program files/microchip/xc32/v1.21/bin/../lib/gcc/pic32mx/4.5.2/size\libgcc.a(floatunsisf.o)
 .debug_pubtypes
                0x0000c9ae       0x62 c:/program files/microchip/xc32/v1.21/bin/../lib/gcc/pic32mx/4.5.2/size\libgcc.a(_lshrdi3.o)
 .debug_pubtypes
                0x0000ca10       0x40 c:/program files/microchip/xc32/v1.21/bin/../lib/gcc/pic32mx/4.5.2/size\libgcc.a(_floatundisf.o)
 .debug_pubtypes
                0x0000ca50       0x59 c:/program files/microchip/xc32/v1.21/bin/../lib/gcc/pic32mx/4.5.2/size\libgcc.a(_umoddi3.o)

.debug_ranges   0x00000000     0x3c00
 *(.debug_ranges)
 .debug_ranges  0x00000000       0x28 build/default/debug/_ext/979510709/bsp.o
 .debug_ranges  0x00000028       0x18 build/default/debug/_ext/101875047/lfsr.o
 .debug_ranges  0x00000040       0x50 build/default/debug/_ext/101875047/hashes.o
 .debug_ranges  0x00000090       0x88 build/default/debug/_ext/101875047/big_int.o
 .debug_ranges  0x00000118       0x48 build/default/debug/_ext/101875047/helpers.o
 .debug_ranges  0x00000160       0x28 build/default/debug/_ext/1472/generic_tcp_client.o
 .debug_ranges  0x00000188       0x28 build/default/debug/_ext/1472/generic_tcp_server.o
 .debug_ranges  0x000001b0       0x38 build/default/debug/_ext/1472/ping_demo.o
 .debug_ranges  0x000001e8       0x28 build/default/debug/_ext/1472/smtp_demo.o
 .debug_ranges  0x00000210      0x170 build/default/debug/_ext/365611741/system_services.o
 .debug_ranges  0x00000380       0xa8 build/default/debug/_ext/365611741/system_debug.o
 .debug_ranges  0x00000428       0x48 build/default/debug/_ext/365611741/system_random.o
 .debug_ranges  0x00000470       0xc8 build/default/debug/_ext/365611741/system_command.o
 .debug_ranges  0x00000538       0x60 build/default/debug/_ext/365611741/system_userio.o
 .debug_ranges  0x00000598      0x248 build/default/debug/_ext/97638081/sys_fs.o
 .debug_ranges  0x000007e0       0xe0 build/default/debug/_ext/97638081/mpfs2.o
 .debug_ranges  0x000008c0       0x58 build/default/debug/_ext/792872985/usart.o
 .debug_ranges  0x00000918       0x38 build/default/debug/_ext/792872985/drv_spi.o
 .debug_ranges  0x00000950       0x58 build/default/debug/_ext/792872985/db_appio.o
 .debug_ranges  0x000009a8       0x20 build/default/debug/_ext/792872985/spi_ram.o
 .debug_ranges  0x000009c8       0x20 build/default/debug/_ext/792872985/spi_eeprom.o
 .debug_ranges  0x000009e8       0x20 build/default/debug/_ext/792872985/spi_flash.o
 .debug_ranges  0x00000a08       0xa0 build/default/debug/_ext/792872985/drv_media.o
 .debug_ranges  0x00000aa8       0x58 build/default/debug/_ext/427700826/tcpip_announce.o
 .debug_ranges  0x00000b00      0x130 build/default/debug/_ext/427700826/http2.o
 .debug_ranges  0x00000c30       0x30 build/default/debug/_ext/427700826/arcfour.o
 .debug_ranges  0x00000c60      0x158 build/default/debug/_ext/427700826/arp.o
 .debug_ranges  0x00000db8       0x20 build/default/debug/_ext/427700826/berkeley_api.o
 .debug_ranges  0x00000dd8       0xb8 build/default/debug/_ext/427700826/dhcp.o
 .debug_ranges  0x00000e90       0x38 build/default/debug/_ext/427700826/dhcps.o
 .debug_ranges  0x00000ec8       0x78 build/default/debug/_ext/427700826/dns.o
 .debug_ranges  0x00000f40       0x20 build/default/debug/_ext/427700826/dnss.o
 .debug_ranges  0x00000f60       0x20 build/default/debug/_ext/427700826/dyn_dns.o
 .debug_ranges  0x00000f80       0x20 build/default/debug/_ext/427700826/enc28_mac.o
 .debug_ranges  0x00000fa0       0x20 build/default/debug/_ext/427700826/enc28j60.o
 .debug_ranges  0x00000fc0       0x20 build/default/debug/_ext/427700826/encs24j600.o
 .debug_ranges  0x00000fe0       0x20 build/default/debug/_ext/427700826/encx24_mac.o
 .debug_ranges  0x00001000       0x90 build/default/debug/_ext/427700826/eth_pic32_ext_phy.o
 .debug_ranges  0x00001090       0x40 build/default/debug/_ext/427700826/eth_pic32_ext_phy_dp83848.o
 .debug_ranges  0x000010d0      0x108 build/default/debug/_ext/427700826/eth_pic32_int_mac.o
 .debug_ranges  0x000011d8       0x20 build/default/debug/_ext/427700826/ftp.o
 .debug_ranges  0x000011f8       0x18 build/default/debug/_ext/427700826/hash_fnv.o
 .debug_ranges  0x00001210       0x48 build/default/debug/_ext/427700826/hash_tbl.o
 .debug_ranges  0x00001258       0x58 build/default/debug/_ext/427700826/icmp.o
 .debug_ranges  0x000012b0       0x20 build/default/debug/_ext/427700826/icmpv6.o
 .debug_ranges  0x000012d0      0x158 build/default/debug/_ext/427700826/ipv4.o
 .debug_ranges  0x00001428       0x20 build/default/debug/_ext/427700826/ipv6.o
 .debug_ranges  0x00001448       0x70 build/default/debug/_ext/427700826/mac_events_pic32.o
 .debug_ranges  0x000014b8       0x48 build/default/debug/_ext/427700826/nbns.o
 .debug_ranges  0x00001500       0x20 build/default/debug/_ext/427700826/ndp.o
 .debug_ranges  0x00001520       0x20 build/default/debug/_ext/427700826/tcpip_reboot.o
 .debug_ranges  0x00001540       0x70 build/default/debug/_ext/427700826/rsa.o
 .debug_ranges  0x000015b0       0x90 build/default/debug/_ext/427700826/smtp.o
 .debug_ranges  0x00001640       0x20 build/default/debug/_ext/427700826/snmp.o
 .debug_ranges  0x00001660       0x20 build/default/debug/_ext/427700826/snmpv3.o
 .debug_ranges  0x00001680       0x20 build/default/debug/_ext/427700826/snmpv3_usm.o
 .debug_ranges  0x000016a0       0x20 build/default/debug/_ext/427700826/sntp.o
 .debug_ranges  0x000016c0      0x1f0 build/default/debug/_ext/427700826/ssl.o
 .debug_ranges  0x000018b0      0x320 build/default/debug/_ext/427700826/tcp.o
 .debug_ranges  0x00001bd0       0xa0 build/default/debug/_ext/427700826/tcpip_heap_alloc.o
 .debug_ranges  0x00001c70       0x20 build/default/debug/_ext/427700826/tcpip_storage.o
 .debug_ranges  0x00001c90       0x90 build/default/debug/_ext/427700826/telnet.o
 .debug_ranges  0x00001d20       0x20 build/default/debug/_ext/427700826/tftpc.o
 .debug_ranges  0x00001d40      0x178 build/default/debug/_ext/427700826/udp.o
 .debug_ranges  0x00001eb8       0xe0 build/default/debug/_ext/427700826/tcpip_mac_object.o
 .debug_ranges  0x00001f98      0x2a0 build/default/debug/_ext/427700826/tcpip_manager.o
 .debug_ranges  0x00002238       0xf8 build/default/debug/_ext/427700826/tcpip_helpers.o
 .debug_ranges  0x00002330       0xa0 build/default/debug/_ext/427700826/tcpip_commands.o
 .debug_ranges  0x000023d0      0x128 build/default/debug/_ext/427700826/iperf.o
 .debug_ranges  0x000024f8       0x20 build/default/debug/_ext/427700826/tcpip_notify.o
 .debug_ranges  0x00002518       0x28 build/default/debug/_ext/427700826/zero_conf_helper.o
 .debug_ranges  0x00002540       0x88 build/default/debug/_ext/427700826/zero_conf_link_local.o
 .debug_ranges  0x000025c8       0xe0 build/default/debug/_ext/427700826/zero_conf_multicast_dns.o
 .debug_ranges  0x000026a8       0x38 build/default/debug/_ext/334706090/wf_tx_power.o
 .debug_ranges  0x000026e0       0x48 build/default/debug/_ext/334706090/wf_connect.o
 .debug_ranges  0x00002728       0xb0 build/default/debug/_ext/334706090/wf_connection_algorithm.o
 .debug_ranges  0x000027d8       0x58 build/default/debug/_ext/334706090/wf_connection_manager.o
 .debug_ranges  0x00002830       0xe0 build/default/debug/_ext/334706090/wf_connection_profile.o
 .debug_ranges  0x00002910       0x28 build/default/debug/_ext/334706090/wf_easy_config.o
 .debug_ranges  0x00002938       0x48 build/default/debug/_ext/334706090/wf_eint.o
 .debug_ranges  0x00002980       0x70 build/default/debug/_ext/334706090/wf_event_handler.o
 .debug_ranges  0x000029f0       0x48 build/default/debug/_ext/334706090/wf_init.o
 .debug_ranges  0x00002a38       0x98 build/default/debug/_ext/334706090/wf_power_save.o
 .debug_ranges  0x00002ad0       0x38 build/default/debug/_ext/334706090/wf_scan.o
 .debug_ranges  0x00002b08       0x48 build/default/debug/_ext/334706090/wf_spi.o
 .debug_ranges  0x00002b50      0x110 build/default/debug/_ext/334706090/mrf24w_mac_pic32.o
 .debug_ranges  0x00002c60       0x78 build/default/debug/_ext/334706090/mrf24w_events.o
 .debug_ranges  0x00002cd8       0xc0 build/default/debug/_ext/334706090/wf_debug_output.o
 .debug_ranges  0x00002d98       0x98 build/default/debug/_ext/334706090/wf_commands.o
 .debug_ranges  0x00002e30       0x20 build/default/debug/_ext/334706090/wf_pbkdf2.o
 .debug_ranges  0x00002e50       0xe0 build/default/debug/_ext/334706090/wf_driver_com_24g.o
 .debug_ranges  0x00002f30       0xc8 build/default/debug/_ext/334706090/wf_driver_raw_24g.o
 .debug_ranges  0x00002ff8       0xf0 build/default/debug/_ext/334706090/wf_mac_24g.o
 .debug_ranges  0x000030e8       0x48 build/default/debug/_ext/334706090/wf_mgmt_msg_24g.o
 .debug_ranges  0x00003130       0xf0 build/default/debug/_ext/334706090/wf_param_msg_24g.o
 .debug_ranges  0x00003220       0x40 build/default/debug/_ext/334706090/wf_configData.o
 .debug_ranges  0x00003260       0x40 build/default/debug/_ext/1472/main_demo.o
 .debug_ranges  0x000032a0       0x20 build/default/debug/_ext/1472/custom_ssl_cert.o
 .debug_ranges  0x000032c0       0x20 build/default/debug/_ext/1472/mpfs_img2.o
 .debug_ranges  0x000032e0       0x28 build/default/debug/_ext/1472/wf_config.o
 .debug_ranges  0x00003308      0x160 build/default/debug/_ext/1472/custom_http_app.o
 .debug_ranges  0x00003468       0x10 c:/program files/microchip/xc32/v1.21/bin/../lib/gcc/pic32mx/4.5.2/../../../../pic32mx/lib/size\libmchp_peripheral.a(open_core_timer_lib.o)
 .debug_ranges  0x00003478       0x38 c:/program files/microchip/xc32/v1.21/bin/../lib/gcc/pic32mx/4.5.2/../../../../pic32mx/lib/size\libmchp_peripheral_32MX795F512L.a(eth_ack_packet_lib.o)
 .debug_ranges  0x000034b0       0x10 c:/program files/microchip/xc32/v1.21/bin/../lib/gcc/pic32mx/4.5.2/../../../../pic32mx/lib/size\libmchp_peripheral_32MX795F512L.a(eth_close_lib.o)
 .debug_ranges  0x000034c0       0x18 c:/program files/microchip/xc32/v1.21/bin/../lib/gcc/pic32mx/4.5.2/../../../../pic32mx/lib/size\libmchp_peripheral_32MX795F512L.a(eth_descriptors_add_lib.o)
 .debug_ranges  0x000034d8       0x40 c:/program files/microchip/xc32/v1.21/bin/../lib/gcc/pic32mx/4.5.2/../../../../pic32mx/lib/size\libmchp_peripheral_32MX795F512L.a(eth_descriptors_remove_lib.o)
 .debug_ranges  0x00003518       0x28 c:/program files/microchip/xc32/v1.21/bin/../lib/gcc/pic32mx/4.5.2/../../../../pic32mx/lib/size\libmchp_peripheral_32MX795F512L.a(eth_events_lib.o)
 .debug_ranges  0x00003540       0x10 c:/program files/microchip/xc32/v1.21/bin/../lib/gcc/pic32mx/4.5.2/../../../../pic32mx/lib/size\libmchp_peripheral_32MX795F512L.a(eth_init_lib.o)
 .debug_ranges  0x00003550       0x10 c:/program files/microchip/xc32/v1.21/bin/../lib/gcc/pic32mx/4.5.2/../../../../pic32mx/lib/size\libmchp_peripheral_32MX795F512L.a(eth_mac_open_lib.o)
 .debug_ranges  0x00003560       0x20 c:/program files/microchip/xc32/v1.21/bin/../lib/gcc/pic32mx/4.5.2/../../../../pic32mx/lib/size\libmchp_peripheral_32MX795F512L.a(eth_mac_set_address_max_lib.o)
 .debug_ranges  0x00003580       0x10 c:/program files/microchip/xc32/v1.21/bin/../lib/gcc/pic32mx/4.5.2/../../../../pic32mx/lib/size\libmchp_peripheral_32MX795F512L.a(eth_rx_buffers_append_lib.o)
 .debug_ranges  0x00003590       0x38 c:/program files/microchip/xc32/v1.21/bin/../lib/gcc/pic32mx/4.5.2/../../../../pic32mx/lib/size\libmchp_peripheral_32MX795F512L.a(eth_rx_filters_lib.o)
 .debug_ranges  0x000035c8       0x18 c:/program files/microchip/xc32/v1.21/bin/../lib/gcc/pic32mx/4.5.2/../../../../pic32mx/lib/size\libmchp_peripheral_32MX795F512L.a(eth_rx_get_packet_lib.o)
 .debug_ranges  0x000035e0       0x10 c:/program files/microchip/xc32/v1.21/bin/../lib/gcc/pic32mx/4.5.2/../../../../pic32mx/lib/size\libmchp_peripheral_32MX795F512L.a(eth_rx_set_buffer_size_lib.o)
 .debug_ranges  0x000035f0       0x38 c:/program files/microchip/xc32/v1.21/bin/../lib/gcc/pic32mx/4.5.2/../../../../pic32mx/lib/size\libmchp_peripheral_32MX795F512L.a(eth_tx_packet_lib.o)
 .debug_ranges  0x00003628       0x10 c:/program files/microchip/xc32/v1.21/bin/../lib/gcc/pic32mx/4.5.2/../../../../pic32mx/lib/size\libmchp_peripheral_32MX795F512L.a(_eth_append_busy_list_lib.o)
 .debug_ranges  0x00003638       0x38 c:/program files/microchip/xc32/v1.21/bin/../lib/gcc/pic32mx/4.5.2/../../../../pic32mx/lib/size\libmchp_peripheral_32MX795F512L.a(eth_miim_access.o)
 .debug_ranges  0x00003670       0x10 c:/program files/microchip/xc32/v1.21/bin/../lib/gcc/pic32mx/4.5.2/../../../../pic32mx/lib/size\libmchp_peripheral_32MX795F512L.a(soft_reset_lib.o)
 .debug_ranges  0x00003680       0x18 c:/program files/microchip/xc32/v1.21/bin/../lib/gcc/pic32mx/4.5.2/../../../../pic32mx/lib/size\libmchp_peripheral_32MX795F512L.a(pcache.o)
 .debug_ranges  0x00003698       0x10 c:/program files/microchip/xc32/v1.21/bin/../lib/gcc/pic32mx/4.5.2/../../../../pic32mx/lib/size\libmchp_peripheral_32MX795F512L.a(int_disable_interrupts_lib.o)
 .debug_ranges  0x000036a8       0x10 c:/program files/microchip/xc32/v1.21/bin/../lib/gcc/pic32mx/4.5.2/../../../../pic32mx/lib/size\libmchp_peripheral_32MX795F512L.a(int_restore_interrupts_lib.o)
 .debug_ranges  0x000036b8       0x10 c:/program files/microchip/xc32/v1.21/bin/../lib/gcc/pic32mx/4.5.2/../../../../pic32mx/lib/size\libmchp_peripheral_32MX795F512L.a(int_enable_mv_int_lib.o)
 .debug_ranges  0x000036c8       0x50 c:/program files/microchip/xc32/v1.21/bin/../lib/gcc/pic32mx/4.5.2/../../../../pic32mx/lib/size\libmchp_peripheral_32MX795F512L.a(int_tbl_lib.o)
 .debug_ranges  0x00003718       0x10 c:/program files/microchip/xc32/v1.21/bin/../lib/gcc/pic32mx/4.5.2/../../../../pic32mx/lib/size\libmchp_peripheral_32MX795F512L.a(rtcc_init_lib.o)
 .debug_ranges  0x00003728       0x10 c:/program files/microchip/xc32/v1.21/bin/../lib/gcc/pic32mx/4.5.2/../../../../pic32mx/lib/size\libmchp_peripheral_32MX795F512L.a(rtcc_open_lib.o)
 .debug_ranges  0x00003738       0x10 c:/program files/microchip/xc32/v1.21/bin/../lib/gcc/pic32mx/4.5.2/../../../../pic32mx/lib/size\libmchp_peripheral_32MX795F512L.a(spi_chn_data_rdy_lib.o)
 .debug_ranges  0x00003748       0x18 c:/program files/microchip/xc32/v1.21/bin/../lib/gcc/pic32mx/4.5.2/../../../../pic32mx/lib/size\libmchp_peripheral_32MX795F512L.a(spi_chn_getc_lib.o)
 .debug_ranges  0x00003760       0x10 c:/program files/microchip/xc32/v1.21/bin/../lib/gcc/pic32mx/4.5.2/../../../../pic32mx/lib/size\libmchp_peripheral_32MX795F512L.a(spi_chn_open_lib.o)
 .debug_ranges  0x00003770       0x20 c:/program files/microchip/xc32/v1.21/bin/../lib/gcc/pic32mx/4.5.2/../../../../pic32mx/lib/size\libmchp_peripheral_32MX795F512L.a(spi_chn_putc_lib.o)
 .debug_ranges  0x00003790       0x10 c:/program files/microchip/xc32/v1.21/bin/../lib/gcc/pic32mx/4.5.2/../../../../pic32mx/lib/size\libmchp_peripheral_32MX795F512L.a(spi_chn_tx_buff_empty_lib.o)
 .debug_ranges  0x000037a0       0x10 c:/program files/microchip/xc32/v1.21/bin/../lib/gcc/pic32mx/4.5.2/../../../../pic32mx/lib/size\libmchp_peripheral_32MX795F512L.a(port_set_pins_digital_in_lib.o)
 .debug_ranges  0x000037b0       0x10 c:/program files/microchip/xc32/v1.21/bin/../lib/gcc/pic32mx/4.5.2/../../../../pic32mx/lib/size\libmchp_peripheral_32MX795F512L.a(port_set_pins_digital_out_lib.o)
 .debug_ranges  0x000037c0       0x10 c:/program files/microchip/xc32/v1.21/bin/../lib/gcc/pic32mx/4.5.2/../../../../pic32mx/lib/size\libmchp_peripheral_32MX795F512L.a(int_enable_interrupts_lib.o)
 .debug_ranges  0x000037d0       0x18 c:/program files/microchip/xc32/v1.21/bin/../lib/gcc/pic32mx/4.5.2/../../../../pic32mx/lib/size\libmchp_peripheral_32MX795F512L.a(_rtcc_wait_clock_off_lib.o)
 .debug_ranges  0x000037e8       0x10 c:/program files/microchip/xc32/v1.21/bin/../lib/gcc/pic32mx/4.5.2/../../../../pic32mx/lib/size\libmchp_peripheral_32MX795F512L.a(read_core_timer_lib.o)
 .debug_ranges  0x000037f8       0xc0 c:/program files/microchip/xc32/v1.21/bin/../lib/gcc/pic32mx/4.5.2/size\libgcc.a(_udivdi3.o)
 .debug_ranges  0x000038b8       0x10 c:/program files/microchip/xc32/v1.21/bin/../lib/gcc/pic32mx/4.5.2/../../../../pic32mx/lib/size\libpic32.a(default-bootstrap-exception-handler.o)
 .debug_ranges  0x000038c8       0x10 c:/program files/microchip/xc32/v1.21/bin/../lib/gcc/pic32mx/4.5.2/../../../../pic32mx/lib/size\libpic32.a(default-on-reset.o)
 .debug_ranges  0x000038d8       0x10 c:/program files/microchip/xc32/v1.21/bin/../lib/gcc/pic32mx/4.5.2/../../../../pic32mx/lib/size\libpic32.a(default-on-bootstrap.o)
 .debug_ranges  0x000038e8       0x10 c:/program files/microchip/xc32/v1.21/bin/../lib/gcc/pic32mx/4.5.2/../../../../pic32mx/lib/size\libpic32.a(defaultinterrupt.o)
 .debug_ranges  0x000038f8       0x38 c:/program files/microchip/xc32/v1.21/bin/../lib/gcc/pic32mx/4.5.2/../../../../pic32mx/lib/size\libdebug.a(db_utils.o)
 .debug_ranges  0x00003930       0x10 c:/program files/microchip/xc32/v1.21/bin/../lib/gcc/pic32mx/4.5.2/../../../../pic32mx/lib/size\libc.a(atoi.o)
 .debug_ranges  0x00003940       0x10 c:/program files/microchip/xc32/v1.21/bin/../lib/gcc/pic32mx/4.5.2/../../../../pic32mx/lib/size\libc.a(atol.o)
 .debug_ranges  0x00003950       0x10 c:/program files/microchip/xc32/v1.21/bin/../lib/gcc/pic32mx/4.5.2/../../../../pic32mx/lib/size\libc.a(calloc.o)
 .debug_ranges  0x00003960       0x20 c:/program files/microchip/xc32/v1.21/bin/../lib/gcc/pic32mx/4.5.2/../../../../pic32mx/lib/size\libc.a(malloc.o)
 .debug_ranges  0x00003980       0x18 c:/program files/microchip/xc32/v1.21/bin/../lib/gcc/pic32mx/4.5.2/../../../../pic32mx/lib/size\libc.a(rand.o)
 .debug_ranges  0x00003998       0x18 c:/program files/microchip/xc32/v1.21/bin/../lib/gcc/pic32mx/4.5.2/../../../../pic32mx/lib/size\libc.a(setbuf.o)
 .debug_ranges  0x000039b0       0x10 c:/program files/microchip/xc32/v1.21/bin/../lib/gcc/pic32mx/4.5.2/../../../../pic32mx/lib/size\libc.a(strcat.o)
 .debug_ranges  0x000039c0       0x10 c:/program files/microchip/xc32/v1.21/bin/../lib/gcc/pic32mx/4.5.2/../../../../pic32mx/lib/size\libc.a(strchr.o)
 .debug_ranges  0x000039d0       0x10 c:/program files/microchip/xc32/v1.21/bin/../lib/gcc/pic32mx/4.5.2/../../../../pic32mx/lib/size\libc.a(strncmp.o)
 .debug_ranges  0x000039e0       0x10 c:/program files/microchip/xc32/v1.21/bin/../lib/gcc/pic32mx/4.5.2/../../../../pic32mx/lib/size\libc.a(strncpy.o)
 .debug_ranges  0x000039f0       0x10 c:/program files/microchip/xc32/v1.21/bin/../lib/gcc/pic32mx/4.5.2/../../../../pic32mx/lib/size\libc.a(strrchr.o)
 .debug_ranges  0x00003a00       0x10 c:/program files/microchip/xc32/v1.21/bin/../lib/gcc/pic32mx/4.5.2/../../../../pic32mx/lib/size\libc.a(strstr.o)
 .debug_ranges  0x00003a10       0x10 c:/program files/microchip/xc32/v1.21/bin/../lib/gcc/pic32mx/4.5.2/../../../../pic32mx/lib/size\libc.a(strtok.o)
 .debug_ranges  0x00003a20       0x10 c:/program files/microchip/xc32/v1.21/bin/../lib/gcc/pic32mx/4.5.2/../../../../pic32mx/lib/size\libc.a(snprintf_cdnopsuxX.eo)
 .debug_ranges  0x00003a30       0x10 c:/program files/microchip/xc32/v1.21/bin/../lib/gcc/pic32mx/4.5.2/../../../../pic32mx/lib/size\libc.a(sprintf_cdnopsuxX.eo)
 .debug_ranges  0x00003a40       0x10 c:/program files/microchip/xc32/v1.21/bin/../lib/gcc/pic32mx/4.5.2/../../../../pic32mx/lib/size\libc.a(vsnprintf_cdnopsuxX.eo)
 .debug_ranges  0x00003a50       0x10 c:/program files/microchip/xc32/v1.21/bin/../lib/gcc/pic32mx/4.5.2/../../../../pic32mx/lib/size\libc.a(vsnprintf.o)
 .debug_ranges  0x00003a60       0x18 c:/program files/microchip/xc32/v1.21/bin/../lib/gcc/pic32mx/4.5.2/../../../../pic32mx/lib/size\libc.a(buf.o)
 .debug_ranges  0x00003a78       0x10 c:/program files/microchip/xc32/v1.21/bin/../lib/gcc/pic32mx/4.5.2/../../../../pic32mx/lib/size\libc.a(strcspn.o)
 .debug_ranges  0x00003a88       0x10 c:/program files/microchip/xc32/v1.21/bin/../lib/gcc/pic32mx/4.5.2/../../../../pic32mx/lib/size\libc.a(strspn.o)
 .debug_ranges  0x00003a98       0x10 c:/program files/microchip/xc32/v1.21/bin/../lib/gcc/pic32mx/4.5.2/../../../../pic32mx/lib/size\libc.a(doprnt_cdnopsuxX.eo)
 .debug_ranges  0x00003aa8       0x20 c:/program files/microchip/xc32/v1.21/bin/../lib/gcc/pic32mx/4.5.2/../../../../pic32mx/lib/size\libc.a(doprnt.o)
 .debug_ranges  0x00003ac8       0x10 c:/program files/microchip/xc32/v1.21/bin/../lib/gcc/pic32mx/4.5.2/../../../../pic32mx/lib/size\libc.a(_fputc_simple.o)
 .debug_ranges  0x00003ad8       0x10 c:/program files/microchip/xc32/v1.21/bin/../lib/gcc/pic32mx/4.5.2/../../../../pic32mx/lib/size\libc.a(_flsbuf_simple.o)
 .debug_ranges  0x00003ae8       0x30 c:/program files/microchip/xc32/v1.21/bin/../lib/gcc/pic32mx/4.5.2/../../../../pic32mx/lib/size\libpic32.a(sbrk.o)
 .debug_ranges  0x00003b18       0x10 c:/program files/microchip/xc32/v1.21/bin/../lib/gcc/pic32mx/4.5.2/../../../../pic32mx/lib/size\libpic32.a(write.o)
 .debug_ranges  0x00003b28       0x10 c:/program files/microchip/xc32/v1.21/bin/../lib/gcc/pic32mx/4.5.2/../../../../pic32mx/lib/size\libe.a(_floatdisf.o)
 .debug_ranges  0x00003b38       0xc8 c:/program files/microchip/xc32/v1.21/bin/../lib/gcc/pic32mx/4.5.2/size\libgcc.a(_umoddi3.o)

.gnu.attributes
                0x00000000       0x10
 *(.gnu.attributes)
 .gnu.attributes
                0x00000000       0x10 build/default/debug/_ext/979510709/bsp.o
 .gnu.attributes
                0x00000010       0x10 build/default/debug/_ext/101875047/lfsr.o
 .gnu.attributes
                0x00000020       0x10 build/default/debug/_ext/101875047/hashes.o
 .gnu.attributes
                0x00000030       0x10 build/default/debug/_ext/101875047/big_int.o
 .gnu.attributes
                0x00000040       0x10 build/default/debug/_ext/101875047/helpers.o
 .gnu.attributes
                0x00000050       0x10 build/default/debug/_ext/1472/berkeley_tcp_client_demo.o
 .gnu.attributes
                0x00000060       0x10 build/default/debug/_ext/1472/berkeley_tcp_server_demo.o
 .gnu.attributes
                0x00000070       0x10 build/default/debug/_ext/1472/berkeley_udp_client_demo.o
 .gnu.attributes
                0x00000080       0x10 build/default/debug/_ext/1472/generic_tcp_client.o
 .gnu.attributes
                0x00000090       0x10 build/default/debug/_ext/1472/generic_tcp_server.o
 .gnu.attributes
                0x000000a0       0x10 build/default/debug/_ext/1472/ping_demo.o
 .gnu.attributes
                0x000000b0       0x10 build/default/debug/_ext/1472/smtp_demo.o
 .gnu.attributes
                0x000000c0       0x10 build/default/debug/_ext/365611741/system_services.o
 .gnu.attributes
                0x000000d0       0x10 build/default/debug/_ext/365611741/system_debug.o
 .gnu.attributes
                0x000000e0       0x10 build/default/debug/_ext/365611741/system_random.o
 .gnu.attributes
                0x000000f0       0x10 build/default/debug/_ext/365611741/system_command.o
 .gnu.attributes
                0x00000100       0x10 build/default/debug/_ext/365611741/system_userio.o
 .gnu.attributes
                0x00000110       0x10 build/default/debug/_ext/97638081/sys_fs.o
 .gnu.attributes
                0x00000120       0x10 build/default/debug/_ext/97638081/mpfs2.o
 .gnu.attributes
                0x00000130       0x10 build/default/debug/_ext/792872985/usart.o
 .gnu.attributes
                0x00000140       0x10 build/default/debug/_ext/792872985/lcd.o
 .gnu.attributes
                0x00000150       0x10 build/default/debug/_ext/792872985/drv_spi.o
 .gnu.attributes
                0x00000160       0x10 build/default/debug/_ext/792872985/db_appio.o
 .gnu.attributes
                0x00000170       0x10 build/default/debug/_ext/792872985/spi_ram.o
 .gnu.attributes
                0x00000180       0x10 build/default/debug/_ext/792872985/spi_eeprom.o
 .gnu.attributes
                0x00000190       0x10 build/default/debug/_ext/792872985/spi_flash.o
 .gnu.attributes
                0x000001a0       0x10 build/default/debug/_ext/792872985/drv_media.o
 .gnu.attributes
                0x000001b0       0x10 build/default/debug/_ext/427700826/tcpip_announce.o
 .gnu.attributes
                0x000001c0       0x10 build/default/debug/_ext/427700826/http2.o
 .gnu.attributes
                0x000001d0       0x10 build/default/debug/_ext/427700826/arcfour.o
 .gnu.attributes
                0x000001e0       0x10 build/default/debug/_ext/427700826/arp.o
 .gnu.attributes
                0x000001f0       0x10 build/default/debug/_ext/427700826/berkeley_api.o
 .gnu.attributes
                0x00000200       0x10 build/default/debug/_ext/427700826/dhcp.o
 .gnu.attributes
                0x00000210       0x10 build/default/debug/_ext/427700826/dhcps.o
 .gnu.attributes
                0x00000220       0x10 build/default/debug/_ext/427700826/dns.o
 .gnu.attributes
                0x00000230       0x10 build/default/debug/_ext/427700826/dnss.o
 .gnu.attributes
                0x00000240       0x10 build/default/debug/_ext/427700826/dyn_dns.o
 .gnu.attributes
                0x00000250       0x10 build/default/debug/_ext/427700826/enc28_mac.o
 .gnu.attributes
                0x00000260       0x10 build/default/debug/_ext/427700826/enc28j60.o
 .gnu.attributes
                0x00000270       0x10 build/default/debug/_ext/427700826/encs24j600.o
 .gnu.attributes
                0x00000280       0x10 build/default/debug/_ext/427700826/encx24_mac.o
 .gnu.attributes
                0x00000290       0x10 build/default/debug/_ext/427700826/eth_pic32_ext_phy.o
 .gnu.attributes
                0x000002a0       0x10 build/default/debug/_ext/427700826/eth_pic32_ext_phy_dp83848.o
 .gnu.attributes
                0x000002b0       0x10 build/default/debug/_ext/427700826/eth_pic32_int_mac.o
 .gnu.attributes
                0x000002c0       0x10 build/default/debug/_ext/427700826/ftp.o
 .gnu.attributes
                0x000002d0       0x10 build/default/debug/_ext/427700826/hash_fnv.o
 .gnu.attributes
                0x000002e0       0x10 build/default/debug/_ext/427700826/hash_tbl.o
 .gnu.attributes
                0x000002f0       0x10 build/default/debug/_ext/427700826/icmp.o
 .gnu.attributes
                0x00000300       0x10 build/default/debug/_ext/427700826/icmpv6.o
 .gnu.attributes
                0x00000310       0x10 build/default/debug/_ext/427700826/ipv4.o
 .gnu.attributes
                0x00000320       0x10 build/default/debug/_ext/427700826/ipv6.o
 .gnu.attributes
                0x00000330       0x10 build/default/debug/_ext/427700826/mac_events_pic32.o
 .gnu.attributes
                0x00000340       0x10 build/default/debug/_ext/427700826/nbns.o
 .gnu.attributes
                0x00000350       0x10 build/default/debug/_ext/427700826/ndp.o
 .gnu.attributes
                0x00000360       0x10 build/default/debug/_ext/427700826/tcpip_reboot.o
 .gnu.attributes
                0x00000370       0x10 build/default/debug/_ext/427700826/rsa.o
 .gnu.attributes
                0x00000380       0x10 build/default/debug/_ext/427700826/smtp.o
 .gnu.attributes
                0x00000390       0x10 build/default/debug/_ext/427700826/snmp.o
 .gnu.attributes
                0x000003a0       0x10 build/default/debug/_ext/427700826/snmpv3.o
 .gnu.attributes
                0x000003b0       0x10 build/default/debug/_ext/427700826/snmpv3_usm.o
 .gnu.attributes
                0x000003c0       0x10 build/default/debug/_ext/427700826/sntp.o
 .gnu.attributes
                0x000003d0       0x10 build/default/debug/_ext/427700826/ssl.o
 .gnu.attributes
                0x000003e0       0x10 build/default/debug/_ext/427700826/tcp.o
 .gnu.attributes
                0x000003f0       0x10 build/default/debug/_ext/427700826/tcpip_heap_alloc.o
 .gnu.attributes
                0x00000400       0x10 build/default/debug/_ext/427700826/tcpip_storage.o
 .gnu.attributes
                0x00000410       0x10 build/default/debug/_ext/427700826/telnet.o
 .gnu.attributes
                0x00000420       0x10 build/default/debug/_ext/427700826/tftpc.o
 .gnu.attributes
                0x00000430       0x10 build/default/debug/_ext/427700826/udp.o
 .gnu.attributes
                0x00000440       0x10 build/default/debug/_ext/427700826/tcpip_mac_object.o
 .gnu.attributes
                0x00000450       0x10 build/default/debug/_ext/427700826/tcpip_manager.o
 .gnu.attributes
                0x00000460       0x10 build/default/debug/_ext/427700826/tcpip_helpers.o
 .gnu.attributes
                0x00000470       0x10 build/default/debug/_ext/427700826/tcpip_commands.o
 .gnu.attributes
                0x00000480       0x10 build/default/debug/_ext/427700826/iperf.o
 .gnu.attributes
                0x00000490       0x10 build/default/debug/_ext/427700826/tcpip_notify.o
 .gnu.attributes
                0x000004a0       0x10 build/default/debug/_ext/427700826/zero_conf_helper.o
 .gnu.attributes
                0x000004b0       0x10 build/default/debug/_ext/427700826/zero_conf_link_local.o
 .gnu.attributes
                0x000004c0       0x10 build/default/debug/_ext/427700826/zero_conf_multicast_dns.o
 .gnu.attributes
                0x000004d0       0x10 build/default/debug/_ext/334706090/wf_tx_power.o
 .gnu.attributes
                0x000004e0       0x10 build/default/debug/_ext/334706090/wf_connect.o
 .gnu.attributes
                0x000004f0       0x10 build/default/debug/_ext/334706090/wf_connection_algorithm.o
 .gnu.attributes
                0x00000500       0x10 build/default/debug/_ext/334706090/wf_connection_manager.o
 .gnu.attributes
                0x00000510       0x10 build/default/debug/_ext/334706090/wf_connection_profile.o
 .gnu.attributes
                0x00000520       0x10 build/default/debug/_ext/334706090/wf_easy_config.o
 .gnu.attributes
                0x00000530       0x10 build/default/debug/_ext/334706090/wf_eint.o
 .gnu.attributes
                0x00000540       0x10 build/default/debug/_ext/334706090/wf_event_handler.o
 .gnu.attributes
                0x00000550       0x10 build/default/debug/_ext/334706090/wf_init.o
 .gnu.attributes
                0x00000560       0x10 build/default/debug/_ext/334706090/wf_power_save.o
 .gnu.attributes
                0x00000570       0x10 build/default/debug/_ext/334706090/wf_scan.o
 .gnu.attributes
                0x00000580       0x10 build/default/debug/_ext/334706090/wf_spi.o
 .gnu.attributes
                0x00000590       0x10 build/default/debug/_ext/334706090/mrf24w_mac_pic32.o
 .gnu.attributes
                0x000005a0       0x10 build/default/debug/_ext/334706090/mrf24w_events.o
 .gnu.attributes
                0x000005b0       0x10 build/default/debug/_ext/334706090/wf_debug_output.o
 .gnu.attributes
                0x000005c0       0x10 build/default/debug/_ext/334706090/wf_commands.o
 .gnu.attributes
                0x000005d0       0x10 build/default/debug/_ext/334706090/wf_pbkdf2.o
 .gnu.attributes
                0x000005e0       0x10 build/default/debug/_ext/334706090/wf_driver_com_24g.o
 .gnu.attributes
                0x000005f0       0x10 build/default/debug/_ext/334706090/wf_driver_raw_24g.o
 .gnu.attributes
                0x00000600       0x10 build/default/debug/_ext/334706090/wf_mac_24g.o
 .gnu.attributes
                0x00000610       0x10 build/default/debug/_ext/334706090/wf_mgmt_msg_24g.o
 .gnu.attributes
                0x00000620       0x10 build/default/debug/_ext/334706090/wf_param_msg_24g.o
 .gnu.attributes
                0x00000630       0x10 build/default/debug/_ext/334706090/wf_configData.o
 .gnu.attributes
                0x00000640       0x10 build/default/debug/_ext/1472/main_demo.o
 .gnu.attributes
                0x00000650       0x10 build/default/debug/_ext/1472/custom_snmp_app.o
 .gnu.attributes
                0x00000660       0x10 build/default/debug/_ext/1472/custom_ssl_cert.o
 .gnu.attributes
                0x00000670       0x10 build/default/debug/_ext/1472/mpfs_img2.o
 .gnu.attributes
                0x00000680       0x10 build/default/debug/_ext/1472/wf_config.o
 .gnu.attributes
                0x00000690       0x10 build/default/debug/_ext/1472/custom_http_app.o
 .gnu.attributes
                0x000006a0       0x10 c:/program files/microchip/xc32/v1.21/bin/../lib/gcc/pic32mx/4.5.2/../../../../pic32mx/lib/size\libmchp_peripheral.a(open_core_timer_lib.o)
 .gnu.attributes
                0x000006b0       0x10 c:/program files/microchip/xc32/v1.21/bin/../lib/gcc/pic32mx/4.5.2/../../../../pic32mx/lib/size\libmchp_peripheral_32MX795F512L.a(eth_ack_packet_lib.o)
 .gnu.attributes
                0x000006c0       0x10 c:/program files/microchip/xc32/v1.21/bin/../lib/gcc/pic32mx/4.5.2/../../../../pic32mx/lib/size\libmchp_peripheral_32MX795F512L.a(eth_close_lib.o)
 .gnu.attributes
                0x000006d0       0x10 c:/program files/microchip/xc32/v1.21/bin/../lib/gcc/pic32mx/4.5.2/../../../../pic32mx/lib/size\libmchp_peripheral_32MX795F512L.a(eth_descriptors_add_lib.o)
 .gnu.attributes
                0x000006e0       0x10 c:/program files/microchip/xc32/v1.21/bin/../lib/gcc/pic32mx/4.5.2/../../../../pic32mx/lib/size\libmchp_peripheral_32MX795F512L.a(eth_descriptors_remove_lib.o)
 .gnu.attributes
                0x000006f0       0x10 c:/program files/microchip/xc32/v1.21/bin/../lib/gcc/pic32mx/4.5.2/../../../../pic32mx/lib/size\libmchp_peripheral_32MX795F512L.a(eth_events_lib.o)
 .gnu.attributes
                0x00000700       0x10 c:/program files/microchip/xc32/v1.21/bin/../lib/gcc/pic32mx/4.5.2/../../../../pic32mx/lib/size\libmchp_peripheral_32MX795F512L.a(eth_init_lib.o)
 .gnu.attributes
                0x00000710       0x10 c:/program files/microchip/xc32/v1.21/bin/../lib/gcc/pic32mx/4.5.2/../../../../pic32mx/lib/size\libmchp_peripheral_32MX795F512L.a(eth_mac_open_lib.o)
 .gnu.attributes
                0x00000720       0x10 c:/program files/microchip/xc32/v1.21/bin/../lib/gcc/pic32mx/4.5.2/../../../../pic32mx/lib/size\libmchp_peripheral_32MX795F512L.a(eth_mac_set_address_max_lib.o)
 .gnu.attributes
                0x00000730       0x10 c:/program files/microchip/xc32/v1.21/bin/../lib/gcc/pic32mx/4.5.2/../../../../pic32mx/lib/size\libmchp_peripheral_32MX795F512L.a(eth_rx_buffers_append_lib.o)
 .gnu.attributes
                0x00000740       0x10 c:/program files/microchip/xc32/v1.21/bin/../lib/gcc/pic32mx/4.5.2/../../../../pic32mx/lib/size\libmchp_peripheral_32MX795F512L.a(eth_rx_filters_lib.o)
 .gnu.attributes
                0x00000750       0x10 c:/program files/microchip/xc32/v1.21/bin/../lib/gcc/pic32mx/4.5.2/../../../../pic32mx/lib/size\libmchp_peripheral_32MX795F512L.a(eth_rx_get_packet_lib.o)
 .gnu.attributes
                0x00000760       0x10 c:/program files/microchip/xc32/v1.21/bin/../lib/gcc/pic32mx/4.5.2/../../../../pic32mx/lib/size\libmchp_peripheral_32MX795F512L.a(eth_rx_set_buffer_size_lib.o)
 .gnu.attributes
                0x00000770       0x10 c:/program files/microchip/xc32/v1.21/bin/../lib/gcc/pic32mx/4.5.2/../../../../pic32mx/lib/size\libmchp_peripheral_32MX795F512L.a(eth_tx_packet_lib.o)
 .gnu.attributes
                0x00000780       0x10 c:/program files/microchip/xc32/v1.21/bin/../lib/gcc/pic32mx/4.5.2/../../../../pic32mx/lib/size\libmchp_peripheral_32MX795F512L.a(_eth_append_busy_list_lib.o)
 .gnu.attributes
                0x00000790       0x10 c:/program files/microchip/xc32/v1.21/bin/../lib/gcc/pic32mx/4.5.2/../../../../pic32mx/lib/size\libmchp_peripheral_32MX795F512L.a(eth_miim_access.o)
 .gnu.attributes
                0x000007a0       0x10 c:/program files/microchip/xc32/v1.21/bin/../lib/gcc/pic32mx/4.5.2/../../../../pic32mx/lib/size\libmchp_peripheral_32MX795F512L.a(soft_reset_lib.o)
 .gnu.attributes
                0x000007b0       0x10 c:/program files/microchip/xc32/v1.21/bin/../lib/gcc/pic32mx/4.5.2/../../../../pic32mx/lib/size\libmchp_peripheral_32MX795F512L.a(pcache.o)
 .gnu.attributes
                0x000007c0       0x10 c:/program files/microchip/xc32/v1.21/bin/../lib/gcc/pic32mx/4.5.2/../../../../pic32mx/lib/size\libmchp_peripheral_32MX795F512L.a(int_disable_interrupts_lib.o)
 .gnu.attributes
                0x000007d0       0x10 c:/program files/microchip/xc32/v1.21/bin/../lib/gcc/pic32mx/4.5.2/../../../../pic32mx/lib/size\libmchp_peripheral_32MX795F512L.a(int_restore_interrupts_lib.o)
 .gnu.attributes
                0x000007e0       0x10 c:/program files/microchip/xc32/v1.21/bin/../lib/gcc/pic32mx/4.5.2/../../../../pic32mx/lib/size\libmchp_peripheral_32MX795F512L.a(int_enable_mv_int_lib.o)
 .gnu.attributes
                0x000007f0       0x10 c:/program files/microchip/xc32/v1.21/bin/../lib/gcc/pic32mx/4.5.2/../../../../pic32mx/lib/size\libmchp_peripheral_32MX795F512L.a(int_tbl_lib.o)
 .gnu.attributes
                0x00000800       0x10 c:/program files/microchip/xc32/v1.21/bin/../lib/gcc/pic32mx/4.5.2/../../../../pic32mx/lib/size\libmchp_peripheral_32MX795F512L.a(rtcc_init_lib.o)
 .gnu.attributes
                0x00000810       0x10 c:/program files/microchip/xc32/v1.21/bin/../lib/gcc/pic32mx/4.5.2/../../../../pic32mx/lib/size\libmchp_peripheral_32MX795F512L.a(rtcc_open_lib.o)
 .gnu.attributes
                0x00000820       0x10 c:/program files/microchip/xc32/v1.21/bin/../lib/gcc/pic32mx/4.5.2/../../../../pic32mx/lib/size\libmchp_peripheral_32MX795F512L.a(spi_chn_data_rdy_lib.o)
 .gnu.attributes
                0x00000830       0x10 c:/program files/microchip/xc32/v1.21/bin/../lib/gcc/pic32mx/4.5.2/../../../../pic32mx/lib/size\libmchp_peripheral_32MX795F512L.a(spi_chn_getc_lib.o)
 .gnu.attributes
                0x00000840       0x10 c:/program files/microchip/xc32/v1.21/bin/../lib/gcc/pic32mx/4.5.2/../../../../pic32mx/lib/size\libmchp_peripheral_32MX795F512L.a(spi_chn_open_lib.o)
 .gnu.attributes
                0x00000850       0x10 c:/program files/microchip/xc32/v1.21/bin/../lib/gcc/pic32mx/4.5.2/../../../../pic32mx/lib/size\libmchp_peripheral_32MX795F512L.a(spi_chn_putc_lib.o)
 .gnu.attributes
                0x00000860       0x10 c:/program files/microchip/xc32/v1.21/bin/../lib/gcc/pic32mx/4.5.2/../../../../pic32mx/lib/size\libmchp_peripheral_32MX795F512L.a(spi_chn_tx_buff_empty_lib.o)
 .gnu.attributes
                0x00000870       0x10 c:/program files/microchip/xc32/v1.21/bin/../lib/gcc/pic32mx/4.5.2/../../../../pic32mx/lib/size\libmchp_peripheral_32MX795F512L.a(spi_io_tbl_libp.o)
 .gnu.attributes
                0x00000880       0x10 c:/program files/microchip/xc32/v1.21/bin/../lib/gcc/pic32mx/4.5.2/../../../../pic32mx/lib/size\libmchp_peripheral_32MX795F512L.a(spi_map_tbl_libp.o)
 .gnu.attributes
                0x00000890       0x10 c:/program files/microchip/xc32/v1.21/bin/../lib/gcc/pic32mx/4.5.2/../../../../pic32mx/lib/size\libmchp_peripheral_32MX795F512L.a(port_set_pins_digital_in_lib.o)
 .gnu.attributes
                0x000008a0       0x10 c:/program files/microchip/xc32/v1.21/bin/../lib/gcc/pic32mx/4.5.2/../../../../pic32mx/lib/size\libmchp_peripheral_32MX795F512L.a(port_set_pins_digital_out_lib.o)
 .gnu.attributes
                0x000008b0       0x10 c:/program files/microchip/xc32/v1.21/bin/../lib/gcc/pic32mx/4.5.2/../../../../pic32mx/lib/size\libmchp_peripheral_32MX795F512L.a(_ports_tbl_libp.o)
 .gnu.attributes
                0x000008c0       0x10 c:/program files/microchip/xc32/v1.21/bin/../lib/gcc/pic32mx/4.5.2/../../../../pic32mx/lib/size\libmchp_peripheral_32MX795F512L.a(int_enable_interrupts_lib.o)
 .gnu.attributes
                0x000008d0       0x10 c:/program files/microchip/xc32/v1.21/bin/../lib/gcc/pic32mx/4.5.2/../../../../pic32mx/lib/size\libmchp_peripheral_32MX795F512L.a(_rtcc_wait_clock_off_lib.o)
 .gnu.attributes
                0x000008e0       0x10 c:/program files/microchip/xc32/v1.21/bin/../lib/gcc/pic32mx/4.5.2/../../../../pic32mx/lib/size\libmchp_peripheral_32MX795F512L.a(read_core_timer_lib.o)
 .gnu.attributes
                0x000008f0       0x10 c:/program files/microchip/xc32/v1.21/bin/../lib/gcc/pic32mx/4.5.2/size\libgcc.a(_udivdi3.o)
 .gnu.attributes
                0x00000900       0x10 c:/program files/microchip/xc32/v1.21/bin/../lib/gcc/pic32mx/4.5.2/size\libgcc.a(floatunsisf.o)
 .gnu.attributes
                0x00000910       0x10 c:/program files/microchip/xc32/v1.21/bin/../lib/gcc/pic32mx/4.5.2/../../../../pic32mx/lib/size\libpic32.a(default-bootstrap-exception-handler.o)
 .gnu.attributes
                0x00000920       0x10 c:/program files/microchip/xc32/v1.21/bin/../lib/gcc/pic32mx/4.5.2/../../../../pic32mx/lib/size\libpic32.a(default-on-reset.o)
 .gnu.attributes
                0x00000930       0x10 c:/program files/microchip/xc32/v1.21/bin/../lib/gcc/pic32mx/4.5.2/../../../../pic32mx/lib/size\libpic32.a(default-on-bootstrap.o)
 .gnu.attributes
                0x00000940       0x10 c:/program files/microchip/xc32/v1.21/bin/../lib/gcc/pic32mx/4.5.2/../../../../pic32mx/lib/size\libpic32.a(errno.o)
 .gnu.attributes
                0x00000950       0x10 c:/program files/microchip/xc32/v1.21/bin/../lib/gcc/pic32mx/4.5.2/../../../../pic32mx/lib/size\libpic32.a(defaultinterrupt.o)
 .gnu.attributes
                0x00000960       0x10 c:/program files/microchip/xc32/v1.21/bin/../lib/gcc/pic32mx/4.5.2/../../../../pic32mx/lib/size\libdebug.a(db_utils.o)
 .gnu.attributes
                0x00000970       0x10 c:/program files/microchip/xc32/v1.21/bin/../lib/gcc/pic32mx/4.5.2/../../../../pic32mx/lib/size\libpic32.a(xc32_uart.o)
 .gnu.attributes
                0x00000980       0x10 c:/program files/microchip/xc32/v1.21/bin/../lib/gcc/pic32mx/4.5.2/../../../../pic32mx/lib/size\libc.a(_iob.o)
 .gnu.attributes
                0x00000990       0x10 c:/program files/microchip/xc32/v1.21/bin/../lib/gcc/pic32mx/4.5.2/../../../../pic32mx/lib/size\libc.a(atoi.o)
 .gnu.attributes
                0x000009a0       0x10 c:/program files/microchip/xc32/v1.21/bin/../lib/gcc/pic32mx/4.5.2/../../../../pic32mx/lib/size\libc.a(atol.o)
 .gnu.attributes
                0x000009b0       0x10 c:/program files/microchip/xc32/v1.21/bin/../lib/gcc/pic32mx/4.5.2/../../../../pic32mx/lib/size\libc.a(calloc.o)
 .gnu.attributes
                0x000009c0       0x10 c:/program files/microchip/xc32/v1.21/bin/../lib/gcc/pic32mx/4.5.2/../../../../pic32mx/lib/size\libc.a(ctype.o)
 .gnu.attributes
                0x000009d0       0x10 c:/program files/microchip/xc32/v1.21/bin/../lib/gcc/pic32mx/4.5.2/../../../../pic32mx/lib/size\libc.a(malloc.o)
 .gnu.attributes
                0x000009e0       0x10 c:/program files/microchip/xc32/v1.21/bin/../lib/gcc/pic32mx/4.5.2/../../../../pic32mx/lib/size\libc.a(rand.o)
 .gnu.attributes
                0x000009f0       0x10 c:/program files/microchip/xc32/v1.21/bin/../lib/gcc/pic32mx/4.5.2/../../../../pic32mx/lib/size\libc.a(setbuf.o)
 .gnu.attributes
                0x00000a00       0x10 c:/program files/microchip/xc32/v1.21/bin/../lib/gcc/pic32mx/4.5.2/../../../../pic32mx/lib/size\libc.a(strcat.o)
 .gnu.attributes
                0x00000a10       0x10 c:/program files/microchip/xc32/v1.21/bin/../lib/gcc/pic32mx/4.5.2/../../../../pic32mx/lib/size\libc.a(strchr.o)
 .gnu.attributes
                0x00000a20       0x10 c:/program files/microchip/xc32/v1.21/bin/../lib/gcc/pic32mx/4.5.2/../../../../pic32mx/lib/size\libc.a(strncmp.o)
 .gnu.attributes
                0x00000a30       0x10 c:/program files/microchip/xc32/v1.21/bin/../lib/gcc/pic32mx/4.5.2/../../../../pic32mx/lib/size\libc.a(strncpy.o)
 .gnu.attributes
                0x00000a40       0x10 c:/program files/microchip/xc32/v1.21/bin/../lib/gcc/pic32mx/4.5.2/../../../../pic32mx/lib/size\libc.a(strrchr.o)
 .gnu.attributes
                0x00000a50       0x10 c:/program files/microchip/xc32/v1.21/bin/../lib/gcc/pic32mx/4.5.2/../../../../pic32mx/lib/size\libc.a(strstr.o)
 .gnu.attributes
                0x00000a60       0x10 c:/program files/microchip/xc32/v1.21/bin/../lib/gcc/pic32mx/4.5.2/../../../../pic32mx/lib/size\libc.a(strtok.o)
 .gnu.attributes
                0x00000a70       0x10 c:/program files/microchip/xc32/v1.21/bin/../lib/gcc/pic32mx/4.5.2/../../../../pic32mx/lib/size\libc.a(snprintf_cdnopsuxX.eo)
 .gnu.attributes
                0x00000a80       0x10 c:/program files/microchip/xc32/v1.21/bin/../lib/gcc/pic32mx/4.5.2/../../../../pic32mx/lib/size\libc.a(sprintf_cdnopsuxX.eo)
 .gnu.attributes
                0x00000a90       0x10 c:/program files/microchip/xc32/v1.21/bin/../lib/gcc/pic32mx/4.5.2/../../../../pic32mx/lib/size\libc.a(vsnprintf_cdnopsuxX.eo)
 .gnu.attributes
                0x00000aa0       0x10 c:/program files/microchip/xc32/v1.21/bin/../lib/gcc/pic32mx/4.5.2/../../../../pic32mx/lib/size\libc.a(vsnprintf.o)
 .gnu.attributes
                0x00000ab0       0x10 c:/program files/microchip/xc32/v1.21/bin/../lib/gcc/pic32mx/4.5.2/../../../../pic32mx/lib/size\libc.a(buf.o)
 .gnu.attributes
                0x00000ac0       0x10 c:/program files/microchip/xc32/v1.21/bin/../lib/gcc/pic32mx/4.5.2/../../../../pic32mx/lib/size\libc.a(strcspn.o)
 .gnu.attributes
                0x00000ad0       0x10 c:/program files/microchip/xc32/v1.21/bin/../lib/gcc/pic32mx/4.5.2/../../../../pic32mx/lib/size\libc.a(strspn.o)
 .gnu.attributes
                0x00000ae0       0x10 c:/program files/microchip/xc32/v1.21/bin/../lib/gcc/pic32mx/4.5.2/../../../../pic32mx/lib/size\libc.a(doprnt_cdnopsuxX.eo)
 .gnu.attributes
                0x00000af0       0x10 c:/program files/microchip/xc32/v1.21/bin/../lib/gcc/pic32mx/4.5.2/../../../../pic32mx/lib/size\libc.a(doprnt.o)
 .gnu.attributes
                0x00000b00       0x10 c:/program files/microchip/xc32/v1.21/bin/../lib/gcc/pic32mx/4.5.2/../../../../pic32mx/lib/size\libc.a(_fputc_simple.o)
 .gnu.attributes
                0x00000b10       0x10 c:/program files/microchip/xc32/v1.21/bin/../lib/gcc/pic32mx/4.5.2/../../../../pic32mx/lib/size\libc.a(powersf.o)
 .gnu.attributes
                0x00000b20       0x10 c:/program files/microchip/xc32/v1.21/bin/../lib/gcc/pic32mx/4.5.2/../../../../pic32mx/lib/size\libc.a(_flsbuf_simple.o)
 .gnu.attributes
                0x00000b30       0x10 c:/program files/microchip/xc32/v1.21/bin/../lib/gcc/pic32mx/4.5.2/../../../../pic32mx/lib/size\libpic32.a(sbrk.o)
 .gnu.attributes
                0x00000b40       0x10 c:/program files/microchip/xc32/v1.21/bin/../lib/gcc/pic32mx/4.5.2/../../../../pic32mx/lib/size\libpic32.a(write.o)
 .gnu.attributes
                0x00000b50       0x10 c:/program files/microchip/xc32/v1.21/bin/../lib/gcc/pic32mx/4.5.2/../../../../pic32mx/lib/size\libe.a(_floatdisf.o)
 .gnu.attributes
                0x00000b60       0x10 c:/program files/microchip/xc32/v1.21/bin/../lib/gcc/pic32mx/4.5.2/size\libgcc.a(_lshrdi3.o)
 .gnu.attributes
                0x00000b70       0x10 c:/program files/microchip/xc32/v1.21/bin/../lib/gcc/pic32mx/4.5.2/size\libgcc.a(_floatundisf.o)
 .gnu.attributes
                0x00000b80       0x10 c:/program files/microchip/xc32/v1.21/bin/../lib/gcc/pic32mx/4.5.2/size\libgcc.a(_umoddi3.o)
LOAD c:/program files/microchip/xc32/v1.21/bin/../lib/gcc/pic32mx/4.5.2/size\libgcc.a
START GROUP
LOAD c:/program files/microchip/xc32/v1.21/bin/../lib/gcc/pic32mx/4.5.2/../../../../pic32mx/lib/size\libpic32.a
LOAD c:/program files/microchip/xc32/v1.21/bin/../lib/gcc/pic32mx/4.5.2/../../../../pic32mx/lib/size\libdebug.a
LOAD c:/program files/microchip/xc32/v1.21/bin/../lib/gcc/pic32mx/4.5.2/../../../../pic32mx/lib/size\libm.a
LOAD c:/program files/microchip/xc32/v1.21/bin/../lib/gcc/pic32mx/4.5.2/../../../../pic32mx/lib/size\libe.a
LOAD c:/program files/microchip/xc32/v1.21/bin/../lib/gcc/pic32mx/4.5.2/../../../../pic32mx/lib/size\libdsp.a
LOAD c:/program files/microchip/xc32/v1.21/bin/../lib/gcc/pic32mx/4.5.2/size\libgcc.a
LOAD c:/program files/microchip/xc32/v1.21/bin/../lib/gcc/pic32mx/4.5.2/../../../../pic32mx/lib/size\libpic32.a
LOAD c:/program files/microchip/xc32/v1.21/bin/../lib/gcc/pic32mx/4.5.2/../../../../pic32mx/lib/size\libc.a
LOAD c:/program files/microchip/xc32/v1.21/bin/../lib/gcc/pic32mx/4.5.2/../../../../pic32mx/lib/size\libpic32.a
END GROUP
LOAD c:/program files/microchip/xc32/v1.21/bin/../lib/gcc/pic32mx/4.5.2/size\libgcc.a
OUTPUT(dist/default/debug/tcpip_pic32_esk_mrf24wg_web_server_demo_app.X.debug.elf elf32-tradlittlemips)
LOAD stack
LOAD data_init

.reginfo        0x9d000000       0x18
 .reginfo       0x9d000000       0x18 c:/program files/microchip/xc32/v1.21/bin/../lib/gcc/pic32mx/4.5.2/../../../../pic32mx/lib/size/crt0.o

.stack          0xa000b858      0x800
 .stack         0xa000b858      0x800 stack

.bss            0xa0000ac0      0x210
 .bss           0xa0000ac0      0x210 build/default/debug/_ext/97638081/sys_fs.o

.data           0xa0000cd0      0x174
 .data          0xa0000cd0      0x174 build/default/debug/_ext/334706090/wf_debug_output.o
                0xa0000cd0                connectionFailureStrings
                0xa0000d20                deauthDisssocReasonCodes
                0xa0000d84                statusCodes

.bss            0xa0000e44      0x29c
 .bss           0xa0000e44      0x100 c:/program files/microchip/xc32/v1.21/bin/../lib/gcc/pic32mx/4.5.2/../../../../pic32mx/lib/size\libdebug.a(db_utils.o)
 .bss           0xa0000f44       0xd8 build/default/debug/_ext/97638081/mpfs2.o
 .bss           0xa000101c       0xc4 build/default/debug/_ext/427700826/iperf.o

.data           0xa00010e0      0x160
 .data          0xa00010e0       0xc0 build/default/debug/_ext/427700826/eth_pic32_int_mac.o
 .data          0xa00011a0       0xa0 c:/program files/microchip/xc32/v1.21/bin/../lib/gcc/pic32mx/4.5.2/../../../../pic32mx/lib/size\libc.a(_iob.o)
                0xa00011a0                _iob

.bss            0xa0001240      0x1fc
 .bss           0xa0001240       0x68 build/default/debug/_ext/365611741/system_command.o
 .bss           0xa00012a8       0x5c build/default/debug/_ext/365611741/system_random.o
 .bss           0xa0001304       0x5c build/default/debug/_ext/1472/custom_http_app.o
 .bss           0xa0001360       0x50 build/default/debug/_ext/365611741/system_userio.o
 .bss           0xa00013b0       0x40 c:/program files/microchip/xc32/v1.21/bin/../lib/gcc/pic32mx/4.5.2/../../../../pic32mx/lib/size\libc.a(_iob.o)
                0xa00013b0                _sibuf
                0xa00013d0                _sobuf
 .bss           0xa00013f0       0x20 build/default/debug/_ext/101875047/big_int_helper_c32.o
                0xa00013f0                _iA
                0xa00013f4                _xA
                0xa00013f8                _iB
                0xa00013fc                _xB
                0xa0001400                _iR
                0xa0001404                _wC
 .bss           0xa0001410       0x1c c:/program files/microchip/xc32/v1.21/bin/../lib/gcc/pic32mx/4.5.2/../../../../pic32mx/lib/size\libpic32.a(sbrk.o)
 .bss           0xa000142c       0x10 c:/program files/microchip/xc32/v1.21/bin/../lib/gcc/pic32mx/4.5.2/../../../../pic32mx/lib/size\libc.a(malloc.o)
                0xa000142c                __allocs

.bss            0xa0001440       0x10
 .bss           0xa0001440       0x10 c:/program files/microchip/xc32/v1.21/bin/../lib/gcc/pic32mx/4.5.2/../../../../pic32mx/lib/size\libc.a(rand.o)

.bss            0xa000143c        0x4
 .bss           0xa000143c        0x4 c:/program files/microchip/xc32/v1.21/bin/../lib/gcc/pic32mx/4.5.2/../../../../pic32mx/lib/size\libc.a(strtok.o)

.bss            0xa0001450        0x4
 .bss           0xa0001450        0x4 c:/program files/microchip/xc32/v1.21/bin/../lib/gcc/pic32mx/4.5.2/../../../../pic32mx/lib/size\libc.a(buf.o)

.rodata         0x9d000020     0x7d7c
 .rodata        0x9d000020     0x7d7c build/default/debug/_ext/1472/mpfs_img2.o
                0x9d000020                MPFS_IMAGE_DATA

.text._TcpHandleSeg
                0x9d007d9c     0x1778
 .text._TcpHandleSeg
                0x9d007d9c     0x1778 build/default/debug/_ext/427700826/tcp.o

.text.HTTPProcess
                0x9d009514     0x16d0
 .text.HTTPProcess
                0x9d009514     0x16d0 build/default/debug/_ext/427700826/http2.o

.text.SMTPClientTask
                0x9d00abe4     0x15f4
 .text.SMTPClientTask
                0x9d00abe4     0x15f4 build/default/debug/_ext/427700826/smtp.o
                0x9d00abe4                SMTPClientTask

.text.vfprintf  0x9d00c1d8     0x15a8
 .text.vfprintf
                0x9d00c1d8     0x15a8 c:/program files/microchip/xc32/v1.21/bin/../lib/gcc/pic32mx/4.5.2/../../../../pic32mx/lib/size\libc.a(doprnt.o)
                0x9d00c1d8                vfprintf

.text.DNSClientTask
                0x9d00d780     0x1144
 .text.DNSClientTask
                0x9d00d780     0x1144 build/default/debug/_ext/427700826/dns.o
                0x9d00d780                DNSClientTask

.rodata         0x9d00e8c4     0x108c
 .rodata        0x9d00e8c4     0x108c build/default/debug/_ext/334706090/wf_debug_output.o

.text.HTTPPostEmail
                0x9d00f950      0xc4c
 .text.HTTPPostEmail
                0x9d00f950      0xc4c build/default/debug/_ext/1472/custom_http_app.o

.text.mDNSProcessIncomingRR
                0x9d01059c      0xbc8
 .text.mDNSProcessIncomingRR
                0x9d01059c      0xbc8 build/default/debug/_ext/427700826/zero_conf_multicast_dns.o

.text.CommandIperfStart
                0x9d011164      0xb50
 .text.CommandIperfStart
                0x9d011164      0xb50 build/default/debug/_ext/427700826/iperf.o

.rodata         0x9d011cb4      0xb48
 .rodata        0x9d011cb4      0xb48 build/default/debug/_ext/427700826/tcpip_commands.o

.text.DHCPTask  0x9d0127fc      0xa74
 .text.DHCPTask
                0x9d0127fc      0xa74 build/default/debug/_ext/427700826/dhcp.o
                0x9d0127fc                DHCPTask

.text._TcpSend  0x9d013270      0xa40
 .text._TcpSend
                0x9d013270      0xa40 build/default/debug/_ext/427700826/tcp.o

.dinit          0x9d013cb0      0xa04
 .dinit         0x9d013cb0      0xa04 data_init

.text.TCPAdjustFIFOSize
                0x9d0146b4      0x9fc
 .text.TCPAdjustFIFOSize
                0x9d0146b4      0x9fc build/default/debug/_ext/427700826/tcp.o
                0x9d0146b4                TCPAdjustFIFOSize

.text.SSLRxServerCertificate
                0x9d0150b0      0x99c
 .text.SSLRxServerCertificate
                0x9d0150b0      0x99c build/default/debug/_ext/427700826/ssl.o

.text._RSAModExp
                0x9d015a4c      0x94c
 .text._RSAModExp
                0x9d015a4c      0x94c build/default/debug/_ext/427700826/rsa.o

.rodata         0x9d016398      0x900
 .rodata        0x9d016398      0x900 build/default/debug/_ext/427700826/iperf.o

.text           0x9d016c98      0x8ec
 .text          0x9d016c98      0x8ec c:/program files/microchip/xc32/v1.21/bin/../lib/gcc/pic32mx/4.5.2/../../../../pic32mx/lib/size\libm.a(fp32.o)
                0x9d016c98                __subsf3
                0x9d016c98                fpsub
                0x9d016ca0                fpadd
                0x9d016ca0                __addsf3
                0x9d016f0c                fpmul
                0x9d016f0c                __mulsf3
                0x9d0170c4                fpdiv
                0x9d0170c4                __divsf3
                0x9d0172f0                litofp
                0x9d0172f0                sitofp
                0x9d0172f0                __floatsisf
                0x9d01734c                uitofp
                0x9d01734c                ultofp
                0x9d017398                fptosi
                0x9d017398                fptoli
                0x9d017398                __fixsfsi
                0x9d017410                __fixunssfsi
                0x9d017410                fptoul
                0x9d017410                fptoui
                0x9d017484                __eqsf2
                0x9d017484                __nesf2
                0x9d017484                __lesf2
                0x9d017484                __ltsf2
                0x9d017484                fpcmp
                0x9d017484                __gtsf2
                0x9d017484                __gesf2
                0x9d017518                fpfabs
                0x9d017518                fabsf
                0x9d017528                __negsf2
                0x9d017538                fpnan
                0x9d017538                nanf

.text._vfprintf_cdnopsuxX
                0x9d017584      0x8b8
 .text._vfprintf_cdnopsuxX
                0x9d017584      0x8b8 c:/program files/microchip/xc32/v1.21/bin/../lib/gcc/pic32mx/4.5.2/../../../../pic32mx/lib/size\libc.a(doprnt_cdnopsuxX.eo)
                0x9d017584                _vfprintf_cdnopuxX
                0x9d017584                _vfprintf_cdnopsuxX

.text.TCPTick   0x9d017e3c      0x890
 .text.TCPTick  0x9d017e3c      0x890 build/default/debug/_ext/427700826/tcp.o
                0x9d017e3c                TCPTick

.text.ZeroconfLLProcess
                0x9d0186cc      0x87c
 .text.ZeroconfLLProcess
                0x9d0186cc      0x87c build/default/debug/_ext/427700826/zero_conf_link_local.o
                0x9d0186cc                ZeroconfLLProcess

.text.iwconfigDisplayStatus
                0x9d018f48      0x7f0
 .text.iwconfigDisplayStatus
                0x9d018f48      0x7f0 build/default/debug/_ext/334706090/wf_commands.o

.rodata         0x9d019738      0x7d4
 .rodata        0x9d019738      0x7d4 c:/program files/microchip/xc32/v1.21/bin/../lib/gcc/pic32mx/4.5.2/../../../../pic32mx/lib/size\libmchp_peripheral_32MX795F512L.a(int_tbl_lib.o)
                0x9d019738                __IntSrcTbl
                0x9d019c54                __IntVectorTbl

.text.PIC32MACInitialize
                0x9d019f0c      0x774
 .text.PIC32MACInitialize
                0x9d019f0c      0x774 build/default/debug/_ext/427700826/eth_pic32_int_mac.o
                0x9d019f0c                PIC32MACInitialize

.text._DHCPReceive
                0x9d01a680      0x748
 .text._DHCPReceive
                0x9d01a680      0x748 build/default/debug/_ext/427700826/dhcp.o

.text.StateMachineUdpRx
                0x9d01adc8      0x748
 .text.StateMachineUdpRx
                0x9d01adc8      0x748 build/default/debug/_ext/427700826/iperf.o

.text.NBNSTask  0x9d01b510      0x73c
 .text.NBNSTask
                0x9d01b510      0x73c build/default/debug/_ext/427700826/nbns.o
                0x9d01b510                NBNSTask

.text.mDNSSendRR
                0x9d01bc4c      0x70c
 .text.mDNSSendRR
                0x9d01bc4c      0x70c build/default/debug/_ext/427700826/zero_conf_multicast_dns.o

.text.mDNSProcessInternal
                0x9d01c358      0x6dc
 .text.mDNSProcessInternal
                0x9d01c358      0x6dc build/default/debug/_ext/427700826/zero_conf_multicast_dns.o

.text.HTTPPrint
                0x9d01ca34      0x6ac
 .text.HTTPPrint
                0x9d01ca34      0x6ac build/default/debug/_ext/427700826/http2.o
                0x9d01ca34                HTTPPrint

.text.HTTPPostConfig
                0x9d01d0e0      0x694
 .text.HTTPPostConfig
                0x9d01d0e0      0x694 build/default/debug/_ext/1472/custom_http_app.o

.text.ReportBW_Jitter_Loss
                0x9d01d774      0x614
 .text.ReportBW_Jitter_Loss
                0x9d01d774      0x614 build/default/debug/_ext/427700826/iperf.o

.text.GenericTxStart
                0x9d01dd88      0x610
 .text.GenericTxStart
                0x9d01dd88      0x610 build/default/debug/_ext/427700826/iperf.o

.text.mDNSResponder
                0x9d01e398      0x60c
 .text.mDNSResponder
                0x9d01e398      0x60c build/default/debug/_ext/427700826/zero_conf_multicast_dns.o

.rodata         0x9d01e9a4      0x5d4
 .rodata        0x9d01e9a4      0x5d4 build/default/debug/_ext/334706090/wf_commands.o

.text._DHCPSend
                0x9d01ef78      0x5c8
 .text._DHCPSend
                0x9d01ef78      0x5c8 build/default/debug/_ext/427700826/dhcp.o

.rodata         0x9d01f540      0x5bc
 .rodata        0x9d01f540      0x5bc build/default/debug/_ext/427700826/http2.o

.text.mDNSProbe
                0x9d01fafc      0x584
 .text.mDNSProbe
                0x9d01fafc      0x584 build/default/debug/_ext/427700826/zero_conf_multicast_dns.o

.text.TCPFindArray
                0x9d020080      0x578
 .text.TCPFindArray
                0x9d020080      0x578 build/default/debug/_ext/427700826/tcp.o
                0x9d020080                TCPFindArray

.text.SSLRxRecord
                0x9d0205f8      0x528
 .text.SSLRxRecord
                0x9d0205f8      0x528 build/default/debug/_ext/427700826/ssl.o
                0x9d0205f8                SSLRxRecord

.text.SHA1HashBlock
                0x9d020b20      0x4fc
 .text.SHA1HashBlock
                0x9d020b20      0x4fc build/default/debug/_ext/101875047/hashes.o

.text.EthPhyInit
                0x9d02101c      0x4dc
 .text.EthPhyInit
                0x9d02101c      0x4dc build/default/debug/_ext/427700826/eth_pic32_ext_phy.o
                0x9d02101c                EthPhyInit

.text.TCPIP_STACK_NetConfigSet
                0x9d0214f8      0x4d8
 .text.TCPIP_STACK_NetConfigSet
                0x9d0214f8      0x4d8 build/default/debug/_ext/427700826/tcpip_manager.o
                0x9d0214f8                TCPIP_STACK_NetConfigSet

.text.SYS_Initialize
                0x9d0219d0      0x4c8
 .text.SYS_Initialize
                0x9d0219d0      0x4c8 build/default/debug/_ext/365611741/system_services.o
                0x9d0219d0                SYS_Initialize

.text.CommandIwConfig
                0x9d021e98      0x4bc
 .text.CommandIwConfig
                0x9d021e98      0x4bc build/default/debug/_ext/334706090/wf_commands.o

.text.SHA1Calculate
                0x9d022354      0x4b8
 .text.SHA1Calculate
                0x9d022354      0x4b8 build/default/debug/_ext/101875047/hashes.o
                0x9d022354                SHA1Calculate

.text.WF_ConfigDataPrint
                0x9d02280c      0x4b8
 .text.WF_ConfigDataPrint
                0x9d02280c      0x4b8 build/default/debug/_ext/334706090/wf_configData.o
                0x9d02280c                WF_ConfigDataPrint

.text.RSAStep   0x9d022cc4      0x4a8
 .text.RSAStep  0x9d022cc4      0x4a8 build/default/debug/_ext/427700826/rsa.o
                0x9d022cc4                RSAStep

.rodata         0x9d02316c      0x49c
 .rodata        0x9d02316c      0x49c build/default/debug/_ext/427700826/tcpip_manager.o

.text.GenericTCPClient
                0x9d023608      0x498
 .text.GenericTCPClient
                0x9d023608      0x498 build/default/debug/_ext/1472/generic_tcp_client.o
                0x9d023608                GenericTCPClient

.text.GenericTxEnd
                0x9d023aa0      0x498
 .text.GenericTxEnd
                0x9d023aa0      0x498 build/default/debug/_ext/427700826/iperf.o

.text.TCPIP_ANNOUNCE_Send
                0x9d023f38      0x490
 .text.TCPIP_ANNOUNCE_Send
                0x9d023f38      0x490 build/default/debug/_ext/427700826/tcpip_announce.o
                0x9d023f38                TCPIP_ANNOUNCE_Send

.text._TCPIP_HEAP_Free
                0x9d0243c8      0x490
 .text._TCPIP_HEAP_Free
                0x9d0243c8      0x490 build/default/debug/_ext/427700826/tcpip_heap_alloc.o
                0x9d0243c8                _TCPIP_HEAP_Free

.text._TcpFindMatchingSocket
                0x9d024858      0x480
 .text._TcpFindMatchingSocket
                0x9d024858      0x480 build/default/debug/_ext/427700826/tcp.o

.text.TCPIP_STACK_Init
                0x9d024cd8      0x464
 .text.TCPIP_STACK_Init
                0x9d024cd8      0x464 build/default/debug/_ext/427700826/tcpip_manager.o
                0x9d024cd8                TCPIP_STACK_Init

.text           0x9d02513c      0x8a0
 .text          0x9d02513c      0x460 c:/program files/microchip/xc32/v1.21/bin/../lib/gcc/pic32mx/4.5.2/size\libgcc.a(_umoddi3.o)
                0x9d02513c                __umoddi3
 .text          0x9d02559c      0x440 c:/program files/microchip/xc32/v1.21/bin/../lib/gcc/pic32mx/4.5.2/size\libgcc.a(_udivdi3.o)
                0x9d02559c                __udivdi3

.text.TCPIP_STACK_BringNetUp
                0x9d0259dc      0x438
 .text.TCPIP_STACK_BringNetUp
                0x9d0259dc      0x438 build/default/debug/_ext/427700826/tcpip_manager.o

.text.TCPSSLHandleIncoming
                0x9d025e14      0x42c
 .text.TCPSSLHandleIncoming
                0x9d025e14      0x42c build/default/debug/_ext/427700826/tcp.o
                0x9d025e14                TCPSSLHandleIncoming

.text.CommandHelp
                0x9d026240      0x428
 .text.CommandHelp
                0x9d026240      0x428 build/default/debug/_ext/365611741/system_command.o

.text.TCPOpen   0x9d026668      0x428
 .text.TCPOpen  0x9d026668      0x428 build/default/debug/_ext/427700826/tcp.o

.text.HTTPExecuteGet
                0x9d026a90      0x414
 .text.HTTPExecuteGet
                0x9d026a90      0x414 build/default/debug/_ext/1472/custom_http_app.o
                0x9d026a90                HTTPExecuteGet

.text           0x9d026ea4      0x400
 .text          0x9d026ea4      0x400 build/default/debug/_ext/101875047/big_int_helper_c32.o
                0x9d026ea4                _addBI
                0x9d026f38                _subBI
                0x9d026fd4                _zeroBI
                0x9d027008                _msbBI
                0x9d027044                _mulBI
                0x9d02710c                _sqrBI
                0x9d027140                _masBI
                0x9d027230                _copyBI

.text.ARPInitialize
                0x9d0272a4      0x3f4
 .text.ARPInitialize
                0x9d0272a4      0x3f4 build/default/debug/_ext/427700826/arp.o
                0x9d0272a4                ARPInitialize

.text.CommandNetInfo
                0x9d027698      0x3f4
 .text.CommandNetInfo
                0x9d027698      0x3f4 build/default/debug/_ext/427700826/tcpip_commands.o

.text.CommandStackOnOff
                0x9d027a8c      0x3e4
 .text.CommandStackOnOff
                0x9d027a8c      0x3e4 build/default/debug/_ext/427700826/tcpip_commands.o

.text           0x9d027e70      0x3dc
 .text          0x9d027e70      0x3dc c:/program files/microchip/xc32/v1.21/bin/../lib/gcc/pic32mx/4.5.2/../../../../pic32mx/lib/size\libm.a(fpmod32.o)
                0x9d027e70                fmodf
                0x9d027e70                fpfmod
                0x9d027fb4                frexpf
                0x9d027fb4                fpfrexp
                0x9d028038                __mchp_ldexpf
                0x9d028038                fpldexp
                0x9d02817c                fpmodf
                0x9d02817c                modff

.rodata         0x9d02824c      0x3d4
 .rodata        0x9d02824c      0x3d4 build/default/debug/_ext/1472/custom_ssl_cert.o
                0x9d02824c                SSL_P
                0x9d02828c                SSL_Q
                0x9d0282cc                SSL_dP
                0x9d02830c                SSL_dQ
                0x9d02834c                SSL_qInv
                0x9d02838c                SSL_CERT
                0x9d02861e                SSL_CERT_LEN

.text.StateMachineTcpRx
                0x9d028620      0x3c8
 .text.StateMachineTcpRx
                0x9d028620      0x3c8 build/default/debug/_ext/427700826/iperf.o

.rodata         0x9d0289e8      0x3c0
 .rodata        0x9d0289e8      0x3c0 build/default/debug/_ext/1472/custom_http_app.o
                0x9d028cec                HTML_UP_ARROW
                0x9d028cf0                HTML_DOWN_ARROW

.text.WFProcessMgmtIndicateMsg
                0x9d028da8      0x3b0
 .text.WFProcessMgmtIndicateMsg
                0x9d028da8      0x3b0 build/default/debug/_ext/334706090/wf_event_handler.o
                0x9d028da8                WFProcessMgmtIndicateMsg

.text.main      0x9d029158      0x3b0
 .text.main     0x9d029158      0x3b0 build/default/debug/_ext/1472/main_demo.o
                0x9d029158                main

.text.MPFSSeek  0x9d029508      0x3ac
 .text.MPFSSeek
                0x9d029508      0x3ac build/default/debug/_ext/97638081/mpfs2.o
                0x9d029508                MPFSSeek

.text.StateMachineUdpRxDone
                0x9d0298b4      0x3a0
 .text.StateMachineUdpRxDone
                0x9d0298b4      0x3a0 build/default/debug/_ext/427700826/iperf.o

.text.FindMatchingSocket
                0x9d029c54      0x39c
 .text.FindMatchingSocket
                0x9d029c54      0x39c build/default/debug/_ext/427700826/udp.o

.text.TCPPutArray
                0x9d029ff0      0x394
 .text.TCPPutArray
                0x9d029ff0      0x394 build/default/debug/_ext/427700826/tcp.o
                0x9d029ff0                TCPPutArray

.text.TCPIP_Helper_Base64Decode
                0x9d02a384      0x394
 .text.TCPIP_Helper_Base64Decode
                0x9d02a384      0x394 build/default/debug/_ext/427700826/tcpip_helpers.o
                0x9d02a384                TCPIP_Helper_Base64Decode

.text.CommandNetworkOnOff
                0x9d02a718      0x394
 .text.CommandNetworkOnOff
                0x9d02a718      0x394 build/default/debug/_ext/427700826/tcpip_commands.o

.text.OutputSecurityMode
                0x9d02aaac      0x38c
 .text.OutputSecurityMode
                0x9d02aaac      0x38c build/default/debug/_ext/334706090/wf_debug_output.o

.text.mDNSSDFillResRecords
                0x9d02ae38      0x374
 .text.mDNSSDFillResRecords
                0x9d02ae38      0x374 build/default/debug/_ext/427700826/zero_conf_multicast_dns.o

.text.TCPIP_STACK_Task
                0x9d02b1ac      0x35c
 .text.TCPIP_STACK_Task
                0x9d02b1ac      0x35c build/default/debug/_ext/427700826/tcpip_manager.o
                0x9d02b1ac                TCPIP_STACK_Task

.text.SSLTxClientHello
                0x9d02b508      0x358
 .text.SSLTxClientHello
                0x9d02b508      0x358 build/default/debug/_ext/427700826/ssl.o

.text.SSLTxServerHello
                0x9d02b860      0x358
 .text.SSLTxServerHello
                0x9d02b860      0x358 build/default/debug/_ext/427700826/ssl.o

.text._SYS_COMMAND_TASK
                0x9d02bbb8      0x354
 .text._SYS_COMMAND_TASK
                0x9d02bbb8      0x354 build/default/debug/_ext/365611741/system_command.o
                0x9d02bbb8                _SYS_COMMAND_TASK

.text.CommandAddressService
                0x9d02bf0c      0x354
 .text.CommandAddressService
                0x9d02bf0c      0x354 build/default/debug/_ext/427700826/tcpip_commands.o

.text.HTTPPostMD5
                0x9d02c260      0x340
 .text.HTTPPostMD5
                0x9d02c260      0x340 build/default/debug/_ext/1472/custom_http_app.o

.text.SSLTxCCSFin
                0x9d02c5a0      0x33c
 .text.SSLTxCCSFin
                0x9d02c5a0      0x33c build/default/debug/_ext/427700826/ssl.o

.text.HTTPInit  0x9d02c8dc      0x330
 .text.HTTPInit
                0x9d02c8dc      0x330 build/default/debug/_ext/427700826/http2.o
                0x9d02c8dc                HTTPInit

.text.UDPOpen   0x9d02cc0c      0x330
 .text.UDPOpen  0x9d02cc0c      0x330 build/default/debug/_ext/427700826/udp.o

.text.TelnetTask
                0x9d02cf3c      0x324
 .text.TelnetTask
                0x9d02cf3c      0x324 build/default/debug/_ext/427700826/telnet.o
                0x9d02cf3c                TelnetTask

.text.TCPIP_HELPER_StringToIPAddress
                0x9d02d260      0x31c
 .text.TCPIP_HELPER_StringToIPAddress
                0x9d02d260      0x31c build/default/debug/_ext/427700826/tcpip_helpers.o
                0x9d02d260                TCPIP_HELPER_StringToIPAddress

.text.OutputConnectionFailedMsg
                0x9d02d57c      0x31c
 .text.OutputConnectionFailedMsg
                0x9d02d57c      0x31c build/default/debug/_ext/334706090/wf_debug_output.o

.text.ARPTask   0x9d02d898      0x310
 .text.ARPTask  0x9d02d898      0x310 build/default/debug/_ext/427700826/arp.o
                0x9d02d898                ARPTask

.text.TCPIP_IPV4_PutArrayHelper
                0x9d02dba8      0x310
 .text.TCPIP_IPV4_PutArrayHelper
                0x9d02dba8      0x310 build/default/debug/_ext/427700826/ipv4.o
                0x9d02dba8                TCPIP_IPV4_PutArrayHelper

.text.MPFSOpen  0x9d02deb8      0x30c
 .text.MPFSOpen
                0x9d02deb8      0x30c build/default/debug/_ext/97638081/mpfs2.o
                0x9d02deb8                MPFSOpen

.text.CalculateFinishedHash
                0x9d02e1c4      0x308
 .text.CalculateFinishedHash
                0x9d02e1c4      0x308 build/default/debug/_ext/427700826/ssl.o

.text.UDPInit   0x9d02e4cc      0x300
 .text.UDPInit  0x9d02e4cc      0x300 build/default/debug/_ext/427700826/udp.o
                0x9d02e4cc                UDPInit

.text.TCPSSLInPlaceMACEncrypt
                0x9d02e7cc      0x2f8
 .text.TCPSSLInPlaceMACEncrypt
                0x9d02e7cc      0x2f8 build/default/debug/_ext/427700826/tcp.o
                0x9d02e7cc                TCPSSLInPlaceMACEncrypt

.text.EthPhyGetNegotiationResult
                0x9d02eac4      0x2f4
 .text.EthPhyGetNegotiationResult
                0x9d02eac4      0x2f4 build/default/debug/_ext/427700826/eth_pic32_ext_phy.o
                0x9d02eac4                EthPhyGetNegotiationResult

.text.SSLTxClientKeyExchange
                0x9d02edb8      0x2e4
 .text.SSLTxClientKeyExchange
                0x9d02edb8      0x2e4 build/default/debug/_ext/427700826/ssl.o

.text.GenerateSessionKeys
                0x9d02f09c      0x2e4
 .text.GenerateSessionKeys
                0x9d02f09c      0x2e4 build/default/debug/_ext/427700826/ssl.o

.text.iwconfigSetMode
                0x9d02f380      0x2e0
 .text.iwconfigSetMode
                0x9d02f380      0x2e0 build/default/debug/_ext/334706090/wf_commands.o

.text.mDNSDeCompress
                0x9d02f660      0x2dc
 .text.mDNSDeCompress
                0x9d02f660      0x2dc build/default/debug/_ext/427700826/zero_conf_multicast_dns.o

.text.StateMachineRxStart
                0x9d02f93c      0x2d0
 .text.StateMachineRxStart
                0x9d02f93c      0x2d0 build/default/debug/_ext/427700826/iperf.o

.text.GenericTxHeaderPreparation
                0x9d02fc0c      0x2d0
 .text.GenericTxHeaderPreparation
                0x9d02fc0c      0x2d0 build/default/debug/_ext/427700826/iperf.o

.text.ProcessEscSequence
                0x9d02fedc      0x2c8
 .text.ProcessEscSequence
                0x9d02fedc      0x2c8 build/default/debug/_ext/365611741/system_command.o

.text.SSLRxAntiqueClientHello
                0x9d0301a4      0x2c8
 .text.SSLRxAntiqueClientHello
                0x9d0301a4      0x2c8 build/default/debug/_ext/427700826/ssl.o

.text.HTTPReadTo
                0x9d03046c      0x2c4
 .text.HTTPReadTo
                0x9d03046c      0x2c4 build/default/debug/_ext/427700826/http2.o

.text.MD5HashBlock
                0x9d030730      0x2bc
 .text.MD5HashBlock
                0x9d030730      0x2bc build/default/debug/_ext/101875047/hashes.o

.text.SSLTxMessage
                0x9d0309ec      0x2bc
 .text.SSLTxMessage
                0x9d0309ec      0x2bc build/default/debug/_ext/427700826/ssl.o
                0x9d0309ec                SSLTxMessage

.text.mDNSInitialize
                0x9d030ca8      0x2bc
 .text.mDNSInitialize
                0x9d030ca8      0x2bc build/default/debug/_ext/427700826/zero_conf_multicast_dns.o
                0x9d030ca8                mDNSInitialize

.text._PhyInitIo
                0x9d030f64      0x2b8
 .text._PhyInitIo
                0x9d030f64      0x2b8 build/default/debug/_ext/427700826/eth_pic32_ext_phy.o

.text.TCPIP_Helper_Base64Encode
                0x9d03121c      0x2b8
 .text.TCPIP_Helper_Base64Encode
                0x9d03121c      0x2b8 build/default/debug/_ext/427700826/tcpip_helpers.o
                0x9d03121c                TCPIP_Helper_Base64Encode

.text.ICMPProcess
                0x9d0314d4      0x2ac
 .text.ICMPProcess
                0x9d0314d4      0x2ac build/default/debug/_ext/427700826/icmp.o
                0x9d0314d4                ICMPProcess

.text._TCPIsPutReady
                0x9d031780      0x2ac
 .text._TCPIsPutReady
                0x9d031780      0x2ac build/default/debug/_ext/427700826/tcp.o

.text.MD5Calculate
                0x9d031a2c      0x2a8
 .text.MD5Calculate
                0x9d031a2c      0x2a8 build/default/debug/_ext/101875047/hashes.o
                0x9d031a2c                MD5Calculate

.text.SSLTxServerCertificate
                0x9d031cd4      0x2a8
 .text.SSLTxServerCertificate
                0x9d031cd4      0x2a8 build/default/debug/_ext/427700826/ssl.o

.text.iwconfigSetChannel
                0x9d031f7c      0x2a8
 .text.iwconfigSetChannel
                0x9d031f7c      0x2a8 build/default/debug/_ext/334706090/wf_commands.o

.text.ParseCmdBuffer
                0x9d032224      0x2a4
 .text.ParseCmdBuffer
                0x9d032224      0x2a4 build/default/debug/_ext/365611741/system_command.o

.text.TCPSSLDecryptMAC
                0x9d0324c8      0x2a4
 .text.TCPSSLDecryptMAC
                0x9d0324c8      0x2a4 build/default/debug/_ext/427700826/tcp.o
                0x9d0324c8                TCPSSLDecryptMAC

.rodata         0x9d03276c      0x2a4
 .rodata        0x9d03276c      0x2a4 build/default/debug/_ext/1472/main_demo.o
                0x9d03276c                arpConfigData
                0x9d03278c                dhcpConfigData
                0x9d03279c                httpConfigData
                0x9d0327a8                macPIC32INTConfigData
                0x9d0327b8                mac97J60ConfigData
                0x9d0327b8                tcpConfigData
                0x9d0327b8                macMRF24WConfigData
                0x9d0327b8                macENCJ600ConfigData
                0x9d0327b8                macENCJ60ConfigData
                0x9d0327c0                udpConfigData
                0x9d032868                TCPIP_HOSTS_CONFIGURATION
                0x9d0328b8                TCPIP_STACK_MODULE_CONFIG_TBL

.text.SSLRxClientHello
                0x9d032a10      0x290
 .text.SSLRxClientHello
                0x9d032a10      0x290 build/default/debug/_ext/427700826/ssl.o

.text.CommandHeapInfo
                0x9d032ca0      0x290
 .text.CommandHeapInfo
                0x9d032ca0      0x290 build/default/debug/_ext/427700826/tcpip_commands.o

.rodata         0x9d032f30      0x28c
 .rodata        0x9d032f30      0x28c build/default/debug/_ext/365611741/system_command.o
                0x9d032f40                sysConsoleApi

.text.DRV_MEDIA_Open
                0x9d0331bc      0x28c
 .text.DRV_MEDIA_Open
                0x9d0331bc      0x28c build/default/debug/_ext/792872985/drv_media.o
                0x9d0331bc                DRV_MEDIA_Open

.text.SSLRxServerHello
                0x9d033448      0x288
 .text.SSLRxServerHello
                0x9d033448      0x288 build/default/debug/_ext/427700826/ssl.o

.text._TcpDisconnect
                0x9d0336d0      0x288
 .text._TcpDisconnect
                0x9d0336d0      0x288 build/default/debug/_ext/427700826/tcp.o

.text.RSASetData
                0x9d033958      0x284
 .text.RSASetData
                0x9d033958      0x284 build/default/debug/_ext/427700826/rsa.o
                0x9d033958                RSASetData

.text.SSLStartSession
                0x9d033bdc      0x284
 .text.SSLStartSession
                0x9d033bdc      0x284 build/default/debug/_ext/427700826/ssl.o
                0x9d033bdc                SSLStartSession

.text.MPFSGetArray
                0x9d033e60      0x280
 .text.MPFSGetArray
                0x9d033e60      0x280 build/default/debug/_ext/97638081/mpfs2.o
                0x9d033e60                MPFSGetArray

.text.UDPProcessIPv4
                0x9d0340e0      0x278
 .text.UDPProcessIPv4
                0x9d0340e0      0x278 build/default/debug/_ext/427700826/udp.o
                0x9d0340e0                UDPProcessIPv4

.text.Wifi_Connect
                0x9d034358      0x278
 .text.Wifi_Connect
                0x9d034358      0x278 build/default/debug/_ext/334706090/wf_connect.o
                0x9d034358                Wifi_Connect

.text.SyncENCPtrRAWState
                0x9d0345d0      0x278
 .text.SyncENCPtrRAWState
                0x9d0345d0      0x278 build/default/debug/_ext/334706090/wf_mac_24g.o

.text.SYS_FS_mount
                0x9d034848      0x274
 .text.SYS_FS_mount
                0x9d034848      0x274 build/default/debug/_ext/97638081/sys_fs.o
                0x9d034848                SYS_FS_mount

.text.GetMaxSegSizeOption
                0x9d034abc      0x274
 .text.GetMaxSegSizeOption
                0x9d034abc      0x274 build/default/debug/_ext/427700826/tcp.o

.text.WriteAnalogRegisterBitBang
                0x9d034d30      0x270
 .text.WriteAnalogRegisterBitBang
                0x9d034d30      0x270 build/default/debug/_ext/334706090/wf_driver_com_24g.o

.text.HSGetArray
                0x9d034fa0      0x26c
 .text.HSGetArray
                0x9d034fa0      0x26c build/default/debug/_ext/427700826/ssl.o

.text.GenericTCPServer
                0x9d03520c      0x268
 .text.GenericTCPServer
                0x9d03520c      0x268 build/default/debug/_ext/1472/generic_tcp_server.o
                0x9d03520c                GenericTCPServer

.text.TCPIP_IPV4_CalculatePayloadChecksum
                0x9d035474      0x268
 .text.TCPIP_IPV4_CalculatePayloadChecksum
                0x9d035474      0x268 build/default/debug/_ext/427700826/ipv4.o
                0x9d035474                TCPIP_IPV4_CalculatePayloadChecksum

.text.SSLRxFinished
                0x9d0356dc      0x268
 .text.SSLRxFinished
                0x9d0356dc      0x268 build/default/debug/_ext/427700826/ssl.o

.text.SMTPDemo  0x9d035944      0x264
 .text.SMTPDemo
                0x9d035944      0x264 build/default/debug/_ext/1472/smtp_demo.o
                0x9d035944                SMTPDemo

.text.HTTPSendFile
                0x9d035ba8      0x264
 .text.HTTPSendFile
                0x9d035ba8      0x264 build/default/debug/_ext/427700826/http2.o

.text.SSLRxCCS  0x9d035e0c      0x264
 .text.SSLRxCCS
                0x9d035e0c      0x264 build/default/debug/_ext/427700826/ssl.o

.text.TCPGetArray
                0x9d036070      0x260
 .text.TCPGetArray
                0x9d036070      0x260 build/default/debug/_ext/427700826/tcp.o
                0x9d036070                TCPGetArray

.text.SYS_GENERATE_RANDOM_DWORD
                0x9d0362d0      0x25c
 .text.SYS_GENERATE_RANDOM_DWORD
                0x9d0362d0      0x25c build/default/debug/_ext/365611741/system_random.o
                0x9d0362d0                SYS_GENERATE_RANDOM_DWORD

.text.SYS_CLK_OscClockGet
                0x9d03652c      0x258
 .text.SYS_CLK_OscClockGet
                0x9d03652c      0x258 build/default/debug/_ext/365611741/system_services.o
                0x9d03652c                SYS_CLK_OscClockGet

.text.SSLRxHandshake
                0x9d036784      0x254
 .text.SSLRxHandshake
                0x9d036784      0x254 build/default/debug/_ext/427700826/ssl.o
                0x9d036784                SSLRxHandshake

.text.TCPIP_IPV4_CopyTxPacketStruct
                0x9d0369d8      0x250
 .text.TCPIP_IPV4_CopyTxPacketStruct
                0x9d0369d8      0x250 build/default/debug/_ext/427700826/ipv4.o
                0x9d0369d8                TCPIP_IPV4_CopyTxPacketStruct

.text.TCPProcessIPv4
                0x9d036c28      0x250
 .text.TCPProcessIPv4
                0x9d036c28      0x250 build/default/debug/_ext/427700826/tcp.o
                0x9d036c28                TCPProcessIPv4

.text.ProcessTCPIPMacEvents
                0x9d036e78      0x250
 .text.ProcessTCPIPMacEvents
                0x9d036e78      0x250 build/default/debug/_ext/427700826/tcpip_manager.o

.text.ARPProcess
                0x9d0370c8      0x248
 .text.ARPProcess
                0x9d0370c8      0x248 build/default/debug/_ext/427700826/arp.o
                0x9d0370c8                ARPProcess

.text           0x9d037310      0x248
 .text          0x9d037310      0x248 build/default/debug/_ext/427700826/tcpip_helper_c32.o
                0x9d037310                TCPIP_HELPER_htonl
                0x9d03731c                TCPIP_HELPER_htons
                0x9d037328                TCPIP_Helper_CalcIPChecksum

.text.LoadDefaultConfig
                0x9d037558      0x244
 .text.LoadDefaultConfig
                0x9d037558      0x244 build/default/debug/_ext/427700826/tcpip_manager.o

.text.malloc    0x9d03779c      0x240
 .text.malloc   0x9d03779c      0x240 c:/program files/microchip/xc32/v1.21/bin/../lib/gcc/pic32mx/4.5.2/../../../../pic32mx/lib/size\libc.a(malloc.o)
                0x9d03779c                malloc

.text.StateMachineTCPTxOpen
                0x9d0379dc      0x238
 .text.StateMachineTCPTxOpen
                0x9d0379dc      0x238 build/default/debug/_ext/427700826/iperf.o

.text.MPFSGet   0x9d037c14      0x228
 .text.MPFSGet  0x9d037c14      0x228 build/default/debug/_ext/97638081/mpfs2.o
                0x9d037c14                MPFSGet

.text.CommandSetIpAddress
                0x9d037e3c      0x228
 .text.CommandSetIpAddress
                0x9d037e3c      0x228 build/default/debug/_ext/427700826/tcpip_commands.o

.text.ARPEntryRemoveNet
                0x9d038064      0x224
 .text.ARPEntryRemoveNet
                0x9d038064      0x224 build/default/debug/_ext/427700826/arp.o
                0x9d038064                ARPEntryRemoveNet

.text.TCPIP_IPV4_GetDataSegmentByType
                0x9d038288      0x224
 .text.TCPIP_IPV4_GetDataSegmentByType
                0x9d038288      0x224 build/default/debug/_ext/427700826/ipv4.o
                0x9d038288                TCPIP_IPV4_GetDataSegmentByType

.text.SSLRxClientKeyExchange
                0x9d0384ac      0x224
 .text.SSLRxClientKeyExchange
                0x9d0384ac      0x224 build/default/debug/_ext/427700826/ssl.o

.text.EthRxBuffersAppend
                0x9d0386d0      0x224
 .text.EthRxBuffersAppend
                0x9d0386d0      0x224 c:/program files/microchip/xc32/v1.21/bin/../lib/gcc/pic32mx/4.5.2/../../../../pic32mx/lib/size\libmchp_peripheral_32MX795F512L.a(eth_rx_buffers_append_lib.o)
                0x9d0386d0                EthRxBuffersAppend

.text.BigIntMod
                0x9d0388f4      0x220
 .text.BigIntMod
                0x9d0388f4      0x220 build/default/debug/_ext/101875047/big_int.o
                0x9d0388f4                BigIntMod

.text.StateMachineTxArpResolve
                0x9d038b14      0x220
 .text.StateMachineTxArpResolve
                0x9d038b14      0x220 build/default/debug/_ext/427700826/iperf.o

.text.__floatdisf
                0x9d038d34      0x220
 .text.__floatdisf
                0x9d038d34      0x220 c:/program files/microchip/xc32/v1.21/bin/../lib/gcc/pic32mx/4.5.2/../../../../pic32mx/lib/size\libe.a(_floatdisf.o)
                0x9d038d34                __floatdisf

.text.EthPhyNegotiationComplete
                0x9d038f54      0x21c
 .text.EthPhyNegotiationComplete
                0x9d038f54      0x21c build/default/debug/_ext/427700826/eth_pic32_ext_phy.o
                0x9d038f54                EthPhyNegotiationComplete

.text.StateMachineUDPTxOpen
                0x9d039170      0x21c
 .text.StateMachineUDPTxOpen
                0x9d039170      0x21c build/default/debug/_ext/427700826/iperf.o

.text.SSLPeriodic
                0x9d03938c      0x218
 .text.SSLPeriodic
                0x9d03938c      0x218 build/default/debug/_ext/427700826/ssl.o
                0x9d03938c                SSLPeriodic

.text.GenerateHashRounds
                0x9d0395a4      0x218
 .text.GenerateHashRounds
                0x9d0395a4      0x218 build/default/debug/_ext/427700826/ssl.o

.text.HTTPHeaderParseCookie
                0x9d0397bc      0x214
 .text.HTTPHeaderParseCookie
                0x9d0397bc      0x214 build/default/debug/_ext/427700826/http2.o

.text.TCPInit   0x9d0399d0      0x210
 .text.TCPInit  0x9d0399d0      0x210 build/default/debug/_ext/427700826/tcp.o
                0x9d0399d0                TCPInit

.text.mDNSServiceRegister
                0x9d039be0      0x210
 .text.mDNSServiceRegister
                0x9d039be0      0x210 build/default/debug/_ext/427700826/zero_conf_multicast_dns.o
                0x9d039be0                mDNSServiceRegister

.text._TcpCloseSocket
                0x9d039df0      0x20c
 .text._TcpCloseSocket
                0x9d039df0      0x20c build/default/debug/_ext/427700826/tcp.o

.text.ARPIsResolved
                0x9d039ffc      0x204
 .text.ARPIsResolved
                0x9d039ffc      0x204 build/default/debug/_ext/427700826/arp.o
                0x9d039ffc                ARPIsResolved

.text.DHCPInit  0x9d03a200      0x204
 .text.DHCPInit
                0x9d03a200      0x204 build/default/debug/_ext/427700826/dhcp.o
                0x9d03a200                DHCPInit

.text.iwconfigSetPower
                0x9d03a404      0x204
 .text.iwconfigSetPower
                0x9d03a404      0x204 build/default/debug/_ext/334706090/wf_commands.o

.text.HTTPIncFile
                0x9d03a608      0x200
 .text.HTTPIncFile
                0x9d03a608      0x200 build/default/debug/_ext/427700826/http2.o
                0x9d03a608                HTTPIncFile

.text.PIC32MACSetRXHashTableEntry
                0x9d03a808      0x200
 .text.PIC32MACSetRXHashTableEntry
                0x9d03a808      0x200 build/default/debug/_ext/427700826/eth_pic32_int_mac.o

.text.UDPTask   0x9d03aa08      0x200
 .text.UDPTask  0x9d03aa08      0x200 build/default/debug/_ext/427700826/udp.o
                0x9d03aa08                UDPTask

.text.ZeroconfARPPktNotify
                0x9d03ac08      0x200
 .text.ZeroconfARPPktNotify
                0x9d03ac08      0x200 build/default/debug/_ext/427700826/zero_conf_link_local.o

.text._TcpSocketSetIdleState
                0x9d03ae08      0x1fc
 .text._TcpSocketSetIdleState
                0x9d03ae08      0x1fc build/default/debug/_ext/427700826/tcp.o

.text.SYS_USERIO_SetLED
                0x9d03b004      0x1f8
 .text.SYS_USERIO_SetLED
                0x9d03b004      0x1f8 build/default/debug/_ext/365611741/system_userio.o
                0x9d03b004                SYS_USERIO_SetLED

.text.TCPIP_ANNOUNCE_Task
                0x9d03b1fc      0x1f8
 .text.TCPIP_ANNOUNCE_Task
                0x9d03b1fc      0x1f8 build/default/debug/_ext/427700826/tcpip_announce.o
                0x9d03b1fc                TCPIP_ANNOUNCE_Task

.rodata         0x9d03b3f4      0x1f4
 .rodata        0x9d03b3f4      0x1f4 build/default/debug/_ext/365611741/system_services.o
                0x9d03b3fc                MEDIA_STORAGE_CONFIGURATION

.text.TCPIP_IPERF_Task
                0x9d03b5e8      0x1f0
 .text.TCPIP_IPERF_Task
                0x9d03b5e8      0x1f0 build/default/debug/_ext/427700826/iperf.o
                0x9d03b5e8                TCPIP_IPERF_Task

.text.TCPIP_IPV4_Flush
                0x9d03b7d8      0x1ec
 .text.TCPIP_IPV4_Flush
                0x9d03b7d8      0x1ec build/default/debug/_ext/427700826/ipv4.o
                0x9d03b7d8                TCPIP_IPV4_Flush

.text.SYS_FS_ExtractFirstFilename
                0x9d03b9c4      0x1e8
 .text.SYS_FS_ExtractFirstFilename
                0x9d03b9c4      0x1e8 build/default/debug/_ext/97638081/sys_fs.o

.text.SYS_FS_initialize
                0x9d03bbac      0x1e8
 .text.SYS_FS_initialize
                0x9d03bbac      0x1e8 build/default/debug/_ext/97638081/sys_fs.o
                0x9d03bbac                SYS_FS_initialize

.text.CommandIperfSize
                0x9d03bd94      0x1e8
 .text.CommandIperfSize
                0x9d03bd94      0x1e8 build/default/debug/_ext/427700826/iperf.o

.text._TCPIP_HEAP_Malloc
                0x9d03bf7c      0x1e0
 .text._TCPIP_HEAP_Malloc
                0x9d03bf7c      0x1e0 build/default/debug/_ext/427700826/tcpip_heap_alloc.o
                0x9d03bf7c                _TCPIP_HEAP_Malloc

.text.ascii_to_u32s
                0x9d03c15c      0x1e0
 .text.ascii_to_u32s
                0x9d03c15c      0x1e0 build/default/debug/_ext/427700826/iperf.o

.text.StringToArgs
                0x9d03c33c      0x1dc
 .text.StringToArgs
                0x9d03c33c      0x1dc build/default/debug/_ext/365611741/system_command.o

.text.HTTPURLDecode
                0x9d03c518      0x1dc
 .text.HTTPURLDecode
                0x9d03c518      0x1dc build/default/debug/_ext/427700826/http2.o
                0x9d03c518                HTTPURLDecode

.text.PIC32MACGetHeader
                0x9d03c6f4      0x1dc
 .text.PIC32MACGetHeader
                0x9d03c6f4      0x1dc build/default/debug/_ext/427700826/eth_pic32_int_mac.o

.text.TelnetCheckLogon
                0x9d03c8d0      0x1dc
 .text.TelnetCheckLogon
                0x9d03c8d0      0x1dc build/default/debug/_ext/427700826/telnet.o

.text._PhyDetectReset
                0x9d03caac      0x1d8
 .text._PhyDetectReset
                0x9d03caac      0x1d8 build/default/debug/_ext/427700826/eth_pic32_ext_phy.o

.text.TCPIP_IPV4_IsTxPutReady
                0x9d03cc84      0x1d8
 .text.TCPIP_IPV4_IsTxPutReady
                0x9d03cc84      0x1d8 build/default/debug/_ext/427700826/ipv4.o
                0x9d03cc84                TCPIP_IPV4_IsTxPutReady

.text.SSLTxRecord
                0x9d03ce5c      0x1d8
 .text.SSLTxRecord
                0x9d03ce5c      0x1d8 build/default/debug/_ext/427700826/ssl.o
                0x9d03ce5c                SSLTxRecord

.text.SSLSessionNew
                0x9d03d034      0x1d8
 .text.SSLSessionNew
                0x9d03d034      0x1d8 build/default/debug/_ext/427700826/ssl.o

.text.mDNSPutString
                0x9d03d20c      0x1d8
 .text.mDNSPutString
                0x9d03d20c      0x1d8 build/default/debug/_ext/427700826/zero_conf_multicast_dns.o

.text.SYS_FS_chdir
                0x9d03d3e4      0x1d4
 .text.SYS_FS_chdir
                0x9d03d3e4      0x1d4 build/default/debug/_ext/97638081/sys_fs.o
                0x9d03d3e4                SYS_FS_chdir

.text.HTTPHeaderParseAuthorization
                0x9d03d5b8      0x1d4
 .text.HTTPHeaderParseAuthorization
                0x9d03d5b8      0x1d4 build/default/debug/_ext/427700826/http2.o

.text.UDPv4IsTxPutReady
                0x9d03d78c      0x1d0
 .text.UDPv4IsTxPutReady
                0x9d03d78c      0x1d0 build/default/debug/_ext/427700826/udp.o

.text.CommandSetMACAddress
                0x9d03d95c      0x1d0
 .text.CommandSetMACAddress
                0x9d03d95c      0x1d0 build/default/debug/_ext/427700826/tcpip_commands.o

.text.UDPDeInit
                0x9d03db2c      0x1cc
 .text.UDPDeInit
                0x9d03db2c      0x1cc build/default/debug/_ext/427700826/udp.o
                0x9d03db2c                UDPDeInit

.text.HSEnd     0x9d03dcf8      0x1c4
 .text.HSEnd    0x9d03dcf8      0x1c4 build/default/debug/_ext/427700826/ssl.o

.text.mDNSSDFormatServiceInstance
                0x9d03debc      0x1c4
 .text.mDNSSDFormatServiceInstance
                0x9d03debc      0x1c4 build/default/debug/_ext/427700826/zero_conf_multicast_dns.o

.text.HTTPPrint_ledSelected
                0x9d03e080      0x1c4
 .text.HTTPPrint_ledSelected
                0x9d03e080      0x1c4 build/default/debug/_ext/1472/custom_http_app.o
                0x9d03e080                HTTPPrint_ledSelected

.text.TCPIP_STACK_NetUp
                0x9d03e244      0x1c0
 .text.TCPIP_STACK_NetUp
                0x9d03e244      0x1c0 build/default/debug/_ext/427700826/tcpip_manager.o
                0x9d03e244                TCPIP_STACK_NetUp

.text.RSAInit   0x9d03e404      0x1bc
 .text.RSAInit  0x9d03e404      0x1bc build/default/debug/_ext/427700826/rsa.o
                0x9d03e404                RSAInit

.text.FindEmailAddress
                0x9d03e5c0      0x1bc
 .text.FindEmailAddress
                0x9d03e5c0      0x1bc build/default/debug/_ext/427700826/smtp.o

.text.TelnetCheckUser
                0x9d03e77c      0x1bc
 .text.TelnetCheckUser
                0x9d03e77c      0x1bc build/default/debug/_ext/427700826/telnet.o

.text._EthAckPacket
                0x9d03e938      0x1bc
 .text._EthAckPacket
                0x9d03e938      0x1bc c:/program files/microchip/xc32/v1.21/bin/../lib/gcc/pic32mx/4.5.2/../../../../pic32mx/lib/size\libmchp_peripheral_32MX795F512L.a(eth_ack_packet_lib.o)
                0x9d03e938                _EthAckPacket

.text.SYS_USERIO_ReadIO
                0x9d03eaf4      0x1b8
 .text.SYS_USERIO_ReadIO
                0x9d03eaf4      0x1b8 build/default/debug/_ext/365611741/system_userio.o

.text.TCPSetOptions
                0x9d03ecac      0x1b8
 .text.TCPSetOptions
                0x9d03ecac      0x1b8 build/default/debug/_ext/427700826/tcp.o
                0x9d03ecac                TCPSetOptions

.text.MRF24W_MACGetHeader
                0x9d03ee64      0x1b8
 .text.MRF24W_MACGetHeader
                0x9d03ee64      0x1b8 build/default/debug/_ext/334706090/wf_mac_24g.o
                0x9d03ee64                MRF24W_MACGetHeader

.text.HTTPPrint_uploadedmd5
                0x9d03f01c      0x1b8
 .text.HTTPPrint_uploadedmd5
                0x9d03f01c      0x1b8 build/default/debug/_ext/1472/custom_http_app.o
                0x9d03f01c                HTTPPrint_uploadedmd5

.text._SYS_COMMAND_ADDGRP
                0x9d03f1d4      0x1b4
 .text._SYS_COMMAND_ADDGRP
                0x9d03f1d4      0x1b4 build/default/debug/_ext/365611741/system_command.o
                0x9d03f1d4                _SYS_COMMAND_ADDGRP

.text.WF_ProcessEvent
                0x9d03f388      0x1b4
 .text.WF_ProcessEvent
                0x9d03f388      0x1b4 build/default/debug/_ext/1472/wf_config.o
                0x9d03f388                WF_ProcessEvent

.text._SystemTickIntHandler
                0x9d03f53c      0x1b0
 .text._SystemTickIntHandler
                0x9d03f53c      0x1b0 build/default/debug/_ext/365611741/system_services.o
                0x9d03f53c                _SystemTickIntHandler

.text.TCPPeekArray
                0x9d03f6ec      0x1ac
 .text.TCPPeekArray
                0x9d03f6ec      0x1ac build/default/debug/_ext/427700826/tcp.o
                0x9d03f6ec                TCPPeekArray

.text.SMTPPut   0x9d03f898      0x1a8
 .text.SMTPPut  0x9d03f898      0x1a8 build/default/debug/_ext/427700826/smtp.o
                0x9d03f898                SMTPPut

.text.isNotifyApp
                0x9d03fa40      0x1a8
 .text.isNotifyApp
                0x9d03fa40      0x1a8 build/default/debug/_ext/334706090/wf_event_handler.o

.text.SSLInit   0x9d03fbe8      0x1a4
 .text.SSLInit  0x9d03fbe8      0x1a4 build/default/debug/_ext/427700826/ssl.o
                0x9d03fbe8                SSLInit

.text.DisplayNodeMsg
                0x9d03fd8c      0x1a0
 .text.DisplayNodeMsg
                0x9d03fd8c      0x1a0 build/default/debug/_ext/365611741/system_command.o

.text.PIC32MACIsTxReady
                0x9d03ff2c      0x1a0
 .text.PIC32MACIsTxReady
                0x9d03ff2c      0x1a0 build/default/debug/_ext/427700826/eth_pic32_int_mac.o

.text.CommandSetGatewayAddress
                0x9d0400cc      0x1a0
 .text.CommandSetGatewayAddress
                0x9d0400cc      0x1a0 build/default/debug/_ext/427700826/tcpip_commands.o

.text.CommandSetPriDNSAddress
                0x9d04026c      0x1a0
 .text.CommandSetPriDNSAddress
                0x9d04026c      0x1a0 build/default/debug/_ext/427700826/tcpip_commands.o

.text.HTTPPrint_led
                0x9d04040c      0x1a0
 .text.HTTPPrint_led
                0x9d04040c      0x1a0 build/default/debug/_ext/1472/custom_http_app.o
                0x9d04040c                HTTPPrint_led

.text           0x9d0405ac      0x1a0
 .text          0x9d0405ac      0x1a0 c:/program files/microchip/xc32/v1.21/bin/../lib/gcc/pic32mx/4.5.2/../../../../pic32mx/lib/size\libpic32.a(strcpy.o)
                0x9d0405ac                strcpy

.text.TCPStartSSLServer
                0x9d04074c      0x19c
 .text.TCPStartSSLServer
                0x9d04074c      0x19c build/default/debug/_ext/427700826/tcp.o
                0x9d04074c                TCPStartSSLServer

.text.StateMachineTCPTxConnect
                0x9d0408e8      0x19c
 .text.StateMachineTCPTxConnect
                0x9d0408e8      0x19c build/default/debug/_ext/427700826/iperf.o

.text.TCPStartSSLClient
                0x9d040a84      0x198
 .text.TCPStartSSLClient
                0x9d040a84      0x198 build/default/debug/_ext/427700826/tcp.o
                0x9d040a84                TCPStartSSLClient

.text.NBNSGetName
                0x9d040c1c      0x194
 .text.NBNSGetName
                0x9d040c1c      0x194 build/default/debug/_ext/427700826/nbns.o

.text.TCPSSLPutRecordHeader
                0x9d040db0      0x194
 .text.TCPSSLPutRecordHeader
                0x9d040db0      0x194 build/default/debug/_ext/427700826/tcp.o
                0x9d040db0                TCPSSLPutRecordHeader

.text._Sys_Ext1_Isr
                0x9d040f44      0x190
 .text._Sys_Ext1_Isr
                0x9d040f44      0x190 build/default/debug/_ext/365611741/system_services.o
                0x9d040f44                _Sys_Ext1_Isr

.text._Sys_Ext3_Isr
                0x9d0410d4      0x190
 .text._Sys_Ext3_Isr
                0x9d0410d4      0x190 build/default/debug/_ext/365611741/system_services.o
                0x9d0410d4                _Sys_Ext3_Isr

.text._Sys_CN_Isr
                0x9d041264      0x190
 .text._Sys_CN_Isr
                0x9d041264      0x190 build/default/debug/_ext/365611741/system_services.o
                0x9d041264                _Sys_CN_Isr

.text._Sys_Eth_Isr
                0x9d0413f4      0x190
 .text._Sys_Eth_Isr
                0x9d0413f4      0x190 build/default/debug/_ext/365611741/system_services.o
                0x9d0413f4                _Sys_Eth_Isr

.text.SSLMACBegin
                0x9d041584      0x190
 .text.SSLMACBegin
                0x9d041584      0x190 build/default/debug/_ext/427700826/ssl.o
                0x9d041584                SSLMACBegin

.text.MRF24W_ChipReset
                0x9d041714      0x190
 .text.MRF24W_ChipReset
                0x9d041714      0x190 build/default/debug/_ext/334706090/wf_driver_com_24g.o
                0x9d041714                MRF24W_ChipReset

.text.RawMove   0x9d0418a4      0x190
 .text.RawMove  0x9d0418a4      0x190 build/default/debug/_ext/334706090/wf_driver_raw_24g.o

.rodata         0x9d041a34      0x190
 .rodata        0x9d041a34      0x190 build/default/debug/_ext/334706090/wf_configData.o

.text.TCPIP_HELPER_StringToMACAddress
                0x9d041bc4      0x18c
 .text.TCPIP_HELPER_StringToMACAddress
                0x9d041bc4      0x18c build/default/debug/_ext/427700826/tcpip_helpers.o
                0x9d041bc4                TCPIP_HELPER_StringToMACAddress

.text.WaitForRawMoveComplete
                0x9d041d50      0x18c
 .text.WaitForRawMoveComplete
                0x9d041d50      0x18c build/default/debug/_ext/334706090/wf_driver_raw_24g.o

.text.UDPGetArray
                0x9d041edc      0x188
 .text.UDPGetArray
                0x9d041edc      0x188 build/default/debug/_ext/427700826/udp.o
                0x9d041edc                UDPGetArray

.text.OutputBeaconTimeout
                0x9d042064      0x188
 .text.OutputBeaconTimeout
                0x9d042064      0x188 build/default/debug/_ext/334706090/wf_debug_output.o

.text.DRV_MEDIA_Initialize
                0x9d0421ec      0x184
 .text.DRV_MEDIA_Initialize
                0x9d0421ec      0x184 build/default/debug/_ext/792872985/drv_media.o
                0x9d0421ec                DRV_MEDIA_Initialize

.text._EthRxAckBuffer
                0x9d042370      0x184
 .text._EthRxAckBuffer
                0x9d042370      0x184 c:/program files/microchip/xc32/v1.21/bin/../lib/gcc/pic32mx/4.5.2/../../../../pic32mx/lib/size\libmchp_peripheral_32MX795F512L.a(eth_ack_packet_lib.o)

.text.HTTPServer
                0x9d0424f4      0x180
 .text.HTTPServer
                0x9d0424f4      0x180 build/default/debug/_ext/427700826/http2.o
                0x9d0424f4                HTTPServer

.text._OAHashFindBkt
                0x9d042674      0x180
 .text._OAHashFindBkt
                0x9d042674      0x180 build/default/debug/_ext/427700826/hash_tbl.o

.text.PIC32MACEventClearNotifyEvents
                0x9d0427f4      0x180
 .text.PIC32MACEventClearNotifyEvents
                0x9d0427f4      0x180 build/default/debug/_ext/427700826/mac_events_pic32.o
                0x9d0427f4                PIC32MACEventClearNotifyEvents

.text.TCPIP_IPV4_AllocateTxPacket
                0x9d042974      0x178
 .text.TCPIP_IPV4_AllocateTxPacket
                0x9d042974      0x178 build/default/debug/_ext/427700826/ipv4.o
                0x9d042974                TCPIP_IPV4_AllocateTxPacket

.text.SSLHashAlloc
                0x9d042aec      0x178
 .text.SSLHashAlloc
                0x9d042aec      0x178 build/default/debug/_ext/427700826/ssl.o

.text.TCPIP_HEAP_Create
                0x9d042c64      0x178
 .text.TCPIP_HEAP_Create
                0x9d042c64      0x178 build/default/debug/_ext/427700826/tcpip_heap_alloc.o
                0x9d042c64                TCPIP_HEAP_Create

.text.BSP_Initialize
                0x9d042ddc      0x174
 .text.BSP_Initialize
                0x9d042ddc      0x174 build/default/debug/_ext/979510709/bsp.o
                0x9d042ddc                BSP_Initialize

.text.SSLStubAlloc
                0x9d042f50      0x174
 .text.SSLStubAlloc
                0x9d042f50      0x174 build/default/debug/_ext/427700826/ssl.o

.text.StateMachineRxDone
                0x9d0430c4      0x174
 .text.StateMachineRxDone
                0x9d0430c4      0x174 build/default/debug/_ext/427700826/iperf.o

.text.SYS_FS_IsLegalDirString
                0x9d043238      0x170
 .text.SYS_FS_IsLegalDirString
                0x9d043238      0x170 build/default/debug/_ext/97638081/sys_fs.o
                0x9d043238                SYS_FS_IsLegalDirString

.text._ARPProbeAddress
                0x9d0433a8      0x170
 .text._ARPProbeAddress
                0x9d0433a8      0x170 build/default/debug/_ext/427700826/arp.o

.text.SpiChnOpen
                0x9d043518      0x170
 .text.SpiChnOpen
                0x9d043518      0x170 c:/program files/microchip/xc32/v1.21/bin/../lib/gcc/pic32mx/4.5.2/../../../../pic32mx/lib/size\libmchp_peripheral_32MX795F512L.a(spi_chn_open_lib.o)
                0x9d043518                SpiChnOpen

.text.BigIntCompare
                0x9d043688      0x16c
 .text.BigIntCompare
                0x9d043688      0x16c build/default/debug/_ext/101875047/big_int.o
                0x9d043688                BigIntCompare

.text.stricmppgm2ram
                0x9d0437f4      0x16c
 .text.stricmppgm2ram
                0x9d0437f4      0x16c build/default/debug/_ext/101875047/helpers.o
                0x9d0437f4                stricmppgm2ram

.text.OAHashLookUpInsert
                0x9d043960      0x16c
 .text.OAHashLookUpInsert
                0x9d043960      0x16c build/default/debug/_ext/427700826/hash_tbl.o
                0x9d043960                OAHashLookUpInsert

.text.SSLBufferAlloc
                0x9d043acc      0x16c
 .text.SSLBufferAlloc
                0x9d043acc      0x16c build/default/debug/_ext/427700826/ssl.o

.text.UDPv4Flush
                0x9d043c38      0x16c
 .text.UDPv4Flush
                0x9d043c38      0x16c build/default/debug/_ext/427700826/udp.o

.text.mDNSRename
                0x9d043da4      0x16c
 .text.mDNSRename
                0x9d043da4      0x16c build/default/debug/_ext/427700826/zero_conf_multicast_dns.o

.text.mDNSProcess
                0x9d043f10      0x16c
 .text.mDNSProcess
                0x9d043f10      0x16c build/default/debug/_ext/427700826/zero_conf_multicast_dns.o
                0x9d043f10                mDNSProcess

.text.WFHardwareInit
                0x9d04407c      0x168
 .text.WFHardwareInit
                0x9d04407c      0x168 build/default/debug/_ext/334706090/wf_driver_com_24g.o
                0x9d04407c                WFHardwareInit

.text.RawSetIndex
                0x9d0441e4      0x168
 .text.RawSetIndex
                0x9d0441e4      0x168 build/default/debug/_ext/334706090/wf_driver_raw_24g.o
                0x9d0441e4                RawSetIndex

.text           0x9d04434c      0x2d0
 .text          0x9d04434c      0x168 c:/program files/microchip/xc32/v1.21/bin/../lib/gcc/pic32mx/4.5.2/../../../../pic32mx/lib/size\libpic32.a(memcpy.o)
                0x9d04434c                memcpy
 .text          0x9d0444b4      0x168 c:/program files/microchip/xc32/v1.21/bin/../lib/gcc/pic32mx/4.5.2/../../../../pic32mx/lib/size\libpic32.a(strlen.o)
                0x9d0444b4                strlen

.text.MPFSOpenID
                0x9d04461c      0x164
 .text.MPFSOpenID
                0x9d04461c      0x164 build/default/debug/_ext/97638081/mpfs2.o
                0x9d04461c                MPFSOpenID

.text.HSPutArray
                0x9d044780      0x164
 .text.HSPutArray
                0x9d044780      0x164 build/default/debug/_ext/427700826/ssl.o

.text.SYS_TICK_TimerDelete
                0x9d0448e4      0x160
 .text.SYS_TICK_TimerDelete
                0x9d0448e4      0x160 build/default/debug/_ext/365611741/system_services.o
                0x9d0448e4                SYS_TICK_TimerDelete

.text.USART_INIT
                0x9d044a44      0x160
 .text.USART_INIT
                0x9d044a44      0x160 build/default/debug/_ext/792872985/usart.o
                0x9d044a44                USART_INIT

.text.DRV_SPI_TxRx
                0x9d044ba4      0x160
 .text.DRV_SPI_TxRx
                0x9d044ba4      0x160 build/default/debug/_ext/792872985/drv_spi.o
                0x9d044ba4                DRV_SPI_TxRx

.text.DNSPutString
                0x9d044d04      0x160
 .text.DNSPutString
                0x9d044d04      0x160 build/default/debug/_ext/427700826/dns.o

.text.TCPIP_IPV4_TransmitPacket
                0x9d044e64      0x160
 .text.TCPIP_IPV4_TransmitPacket
                0x9d044e64      0x160 build/default/debug/_ext/427700826/ipv4.o
                0x9d044e64                TCPIP_IPV4_TransmitPacket

.text.PIC32MACEventInit
                0x9d044fc4      0x160
 .text.PIC32MACEventInit
                0x9d044fc4      0x160 build/default/debug/_ext/427700826/mac_events_pic32.o
                0x9d044fc4                PIC32MACEventInit

.text.UDPBind   0x9d045124      0x160
 .text.UDPBind  0x9d045124      0x160 build/default/debug/_ext/427700826/udp.o
                0x9d045124                UDPBind

.text.WFEintHandler
                0x9d045284      0x160
 .text.WFEintHandler
                0x9d045284      0x160 build/default/debug/_ext/334706090/wf_driver_com_24g.o
                0x9d045284                WFEintHandler

.text._EthAppendBusyList
                0x9d0453e4      0x160
 .text._EthAppendBusyList
                0x9d0453e4      0x160 c:/program files/microchip/xc32/v1.21/bin/../lib/gcc/pic32mx/4.5.2/../../../../pic32mx/lib/size\libmchp_peripheral_32MX795F512L.a(_eth_append_busy_list_lib.o)
                0x9d0453e4                _EthAppendBusyList

.text.ARP_SendIfPkt
                0x9d045544      0x15c
 .text.ARP_SendIfPkt
                0x9d045544      0x15c build/default/debug/_ext/427700826/arp.o

.text.TCPIP_IPV4_GetHeader
                0x9d0456a0      0x15c
 .text.TCPIP_IPV4_GetHeader
                0x9d0456a0      0x15c build/default/debug/_ext/427700826/ipv4.o
                0x9d0456a0                TCPIP_IPV4_GetHeader

.text.SSLStubSync
                0x9d0457fc      0x15c
 .text.SSLStubSync
                0x9d0457fc      0x15c build/default/debug/_ext/427700826/ssl.o

.text.DRV_MEDIA_Read
                0x9d045958      0x158
 .text.DRV_MEDIA_Read
                0x9d045958      0x158 build/default/debug/_ext/792872985/drv_media.o
                0x9d045958                DRV_MEDIA_Read

.text.HTTPPrint_config_mac
                0x9d045ab0      0x158
 .text.HTTPPrint_config_mac
                0x9d045ab0      0x158 build/default/debug/_ext/1472/custom_http_app.o
                0x9d045ab0                HTTPPrint_config_mac

.text.CommandSetBIOSName
                0x9d045c08      0x154
 .text.CommandSetBIOSName
                0x9d045c08      0x154 build/default/debug/_ext/427700826/tcpip_commands.o

.text.ProcessInterruptServiceResult
                0x9d045d5c      0x154
 .text.ProcessInterruptServiceResult
                0x9d045d5c      0x154 build/default/debug/_ext/334706090/wf_driver_com_24g.o

.rodata         0x9d045eb0      0x150
 .rodata        0x9d045eb0      0x150 build/default/debug/_ext/365611741/system_debug.o

.text._TCPIPStackIsLocalNetwork
                0x9d046000      0x150
 .text._TCPIPStackIsLocalNetwork
                0x9d046000      0x150 build/default/debug/_ext/427700826/tcpip_manager.o
                0x9d046000                _TCPIPStackIsLocalNetwork

.text.TCPIP_Helper_CalcMACBufferIPChecksum
                0x9d046150      0x150
 .text.TCPIP_Helper_CalcMACBufferIPChecksum
                0x9d046150      0x150 build/default/debug/_ext/427700826/tcpip_helpers.o
                0x9d046150                TCPIP_Helper_CalcMACBufferIPChecksum

.text.CommandSetDefaultInterface
                0x9d0462a0      0x150
 .text.CommandSetDefaultInterface
                0x9d0462a0      0x150 build/default/debug/_ext/427700826/tcpip_commands.o

.text.CommandIperfNetIf
                0x9d0463f0      0x150
 .text.CommandIperfNetIf
                0x9d0463f0      0x150 build/default/debug/_ext/427700826/iperf.o

.text.OutputChannelList
                0x9d046540      0x150
 .text.OutputChannelList
                0x9d046540      0x150 build/default/debug/_ext/334706090/wf_debug_output.o

.text.EthRxGetPacket
                0x9d046690      0x150
 .text.EthRxGetPacket
                0x9d046690      0x150 c:/program files/microchip/xc32/v1.21/bin/../lib/gcc/pic32mx/4.5.2/../../../../pic32mx/lib/size\libmchp_peripheral_32MX795F512L.a(eth_rx_get_packet_lib.o)
                0x9d046690                EthRxGetPacket

.text.scale     0x9d0467e0      0x150
 .text.scale    0x9d0467e0      0x150 c:/program files/microchip/xc32/v1.21/bin/../lib/gcc/pic32mx/4.5.2/../../../../pic32mx/lib/size\libc.a(doprnt.o)

.text.TCPIPCommandsInit
                0x9d046930      0x14c
 .text.TCPIPCommandsInit
                0x9d046930      0x14c build/default/debug/_ext/427700826/tcpip_commands.o
                0x9d046930                TCPIPCommandsInit

.text._sbrk_init
                0x9d046a7c      0x14c
 .text._sbrk_init
                0x9d046a7c      0x14c c:/program files/microchip/xc32/v1.21/bin/../lib/gcc/pic32mx/4.5.2/../../../../pic32mx/lib/size\libpic32.a(sbrk.o)
                0x9d046a7c                _sbrk_init

.text._SYS_CMDIO_DELETE
                0x9d046bc8      0x148
 .text._SYS_CMDIO_DELETE
                0x9d046bc8      0x148 build/default/debug/_ext/365611741/system_command.o
                0x9d046bc8                _SYS_CMDIO_DELETE

.text.ARCFOURCrypt
                0x9d046d10      0x148
 .text.ARCFOURCrypt
                0x9d046d10      0x148 build/default/debug/_ext/427700826/arcfour.o
                0x9d046d10                ARCFOURCrypt

.text.TcpIpEthIsr
                0x9d046e58      0x148
 .text.TcpIpEthIsr
                0x9d046e58      0x148 build/default/debug/_ext/427700826/mac_events_pic32.o

.text.TCPIP_STACK_DeInit
                0x9d046fa0      0x148
 .text.TCPIP_STACK_DeInit
                0x9d046fa0      0x148 build/default/debug/_ext/427700826/tcpip_manager.o
                0x9d046fa0                TCPIP_STACK_DeInit

.text.OutputConnectionTempLostMsg
                0x9d0470e8      0x148
 .text.OutputConnectionTempLostMsg
                0x9d0470e8      0x148 build/default/debug/_ext/334706090/wf_debug_output.o

.text.OutputConnectionPermLostMsg
                0x9d047230      0x148
 .text.OutputConnectionPermLostMsg
                0x9d047230      0x148 build/default/debug/_ext/334706090/wf_debug_output.o

.text.SendMgmtMsg
                0x9d047378      0x148
 .text.SendMgmtMsg
                0x9d047378      0x148 build/default/debug/_ext/334706090/wf_mgmt_msg_24g.o
                0x9d047378                SendMgmtMsg

.text._MACCleanup
                0x9d0474c0      0x144
 .text._MACCleanup
                0x9d0474c0      0x144 build/default/debug/_ext/427700826/eth_pic32_int_mac.o

.text.OAHashLookUp
                0x9d047604      0x144
 .text.OAHashLookUp
                0x9d047604      0x144 build/default/debug/_ext/427700826/hash_tbl.o
                0x9d047604                OAHashLookUp

.rodata         0x9d047748      0x140
 .rodata        0x9d047748      0x140 build/default/debug/_ext/101875047/hashes.o

.text.SYS_USERIO_ButtonGet
                0x9d047888      0x140
 .text.SYS_USERIO_ButtonGet
                0x9d047888      0x140 build/default/debug/_ext/365611741/system_userio.o
                0x9d047888                SYS_USERIO_ButtonGet

.text.ARPProcessRxPkt
                0x9d0479c8      0x140
 .text.ARPProcessRxPkt
                0x9d0479c8      0x140 build/default/debug/_ext/427700826/arp.o

.text.SSLSessionMatchID
                0x9d047b08      0x140
 .text.SSLSessionMatchID
                0x9d047b08      0x140 build/default/debug/_ext/427700826/ssl.o

.text.UDPSocketSetNet
                0x9d047c48      0x140
 .text.UDPSocketSetNet
                0x9d047c48      0x140 build/default/debug/_ext/427700826/udp.o
                0x9d047c48                UDPSocketSetNet

.text._WF_OutputConnectionContext
                0x9d047d88      0x140
 .text._WF_OutputConnectionContext
                0x9d047d88      0x140 build/default/debug/_ext/334706090/wf_debug_output.o
                0x9d047d88                _WF_OutputConnectionContext

.text.PowerSaveTask
                0x9d047ec8      0x140
 .text.PowerSaveTask
                0x9d047ec8      0x140 build/default/debug/_ext/334706090/wf_driver_com_24g.o
                0x9d047ec8                PowerSaveTask

.text.PIC32MACGetConfig
                0x9d048008      0x13c
 .text.PIC32MACGetConfig
                0x9d048008      0x13c build/default/debug/_ext/427700826/eth_pic32_int_mac.o
                0x9d048008                PIC32MACGetConfig

.text.WF_SetMultiCastFilter
                0x9d048144      0x13c
 .text.WF_SetMultiCastFilter
                0x9d048144      0x13c build/default/debug/_ext/334706090/wf_param_msg_24g.o
                0x9d048144                WF_SetMultiCastFilter

.text._ARPUpdateEntry
                0x9d048280      0x138
 .text._ARPUpdateEntry
                0x9d048280      0x138 build/default/debug/_ext/427700826/arp.o

.text.TCPIP_IPV4_QueuedPacketTransmitTask
                0x9d0483b8      0x138
 .text.TCPIP_IPV4_QueuedPacketTransmitTask
                0x9d0483b8      0x138 build/default/debug/_ext/427700826/ipv4.o

.text.SSLTerminate
                0x9d0484f0      0x138
 .text.SSLTerminate
                0x9d0484f0      0x138 build/default/debug/_ext/427700826/ssl.o
                0x9d0484f0                SSLTerminate

.text.UDPIsGetReady
                0x9d048628      0x138
 .text.UDPIsGetReady
                0x9d048628      0x138 build/default/debug/_ext/427700826/udp.o
                0x9d048628                UDPIsGetReady

.text._general_exception_handler
                0x9d048760      0x134
 .text._general_exception_handler
                0x9d048760      0x134 build/default/debug/_ext/365611741/system_debug.o
                0x9d048760                _general_exception_handler

.text.PIC32MACPutHeader
                0x9d048894      0x134
 .text.PIC32MACPutHeader
                0x9d048894      0x134 build/default/debug/_ext/427700826/eth_pic32_int_mac.o

.text.TCPIP_IPV4_InsertIPPacketSegment
                0x9d0489c8      0x134
 .text.TCPIP_IPV4_InsertIPPacketSegment
                0x9d0489c8      0x134 build/default/debug/_ext/427700826/ipv4.o
                0x9d0489c8                TCPIP_IPV4_InsertIPPacketSegment

.text.SSLRxAlert
                0x9d048afc      0x134
 .text.SSLRxAlert
                0x9d048afc      0x134 build/default/debug/_ext/427700826/ssl.o

.text.TCPIP_STACK_NetDown
                0x9d048c30      0x134
 .text.TCPIP_STACK_NetDown
                0x9d048c30      0x134 build/default/debug/_ext/427700826/tcpip_manager.o
                0x9d048c30                TCPIP_STACK_NetDown

.text.SetSecurity
                0x9d048d64      0x134
 .text.SetSecurity
                0x9d048d64      0x134 build/default/debug/_ext/334706090/wf_connection_profile.o

.text.uitoa     0x9d048e98      0x130
 .text.uitoa    0x9d048e98      0x130 build/default/debug/_ext/101875047/helpers.o
                0x9d048e98                uitoa

.text.PIC32MACEventSetNotifyEvents
                0x9d048fc8      0x130
 .text.PIC32MACEventSetNotifyEvents
                0x9d048fc8      0x130 build/default/debug/_ext/427700826/mac_events_pic32.o
                0x9d048fc8                PIC32MACEventSetNotifyEvents

.text.SSLTxServerHelloDone
                0x9d0490f8      0x130
 .text.SSLTxServerHelloDone
                0x9d0490f8      0x130 build/default/debug/_ext/427700826/ssl.o

.text.SSLHashSync
                0x9d049228      0x130
 .text.SSLHashSync
                0x9d049228      0x130 build/default/debug/_ext/427700826/ssl.o

.text.SSLSessionSync
                0x9d049358      0x130
 .text.SSLSessionSync
                0x9d049358      0x130 build/default/debug/_ext/427700826/ssl.o

.text.HSGet     0x9d049488      0x130
 .text.HSGet    0x9d049488      0x130 build/default/debug/_ext/427700826/ssl.o

.rodata         0x9d0495b8      0x130
 .rodata        0x9d0495b8      0x130 build/default/debug/_ext/427700826/telnet.o

.text.UDPSetBcastIPV4Address
                0x9d0496e8      0x130
 .text.UDPSetBcastIPV4Address
                0x9d0496e8      0x130 build/default/debug/_ext/427700826/udp.o
                0x9d0496e8                UDPSetBcastIPV4Address

.text.EthDescriptorsPoolAdd
                0x9d049818      0x130
 .text.EthDescriptorsPoolAdd
                0x9d049818      0x130 c:/program files/microchip/xc32/v1.21/bin/../lib/gcc/pic32mx/4.5.2/../../../../pic32mx/lib/size\libmchp_peripheral_32MX795F512L.a(eth_descriptors_add_lib.o)
                0x9d049818                EthDescriptorsPoolAdd

.text.realloc   0x9d049948      0x130
 .text.realloc  0x9d049948      0x130 c:/program files/microchip/xc32/v1.21/bin/../lib/gcc/pic32mx/4.5.2/../../../../pic32mx/lib/size\libc.a(malloc.o)
                0x9d049948                realloc

.text.PIC32MACEventAck
                0x9d049a78      0x12c
 .text.PIC32MACEventAck
                0x9d049a78      0x12c build/default/debug/_ext/427700826/mac_events_pic32.o
                0x9d049a78                PIC32MACEventAck

.text.HTTPPrint_btn
                0x9d049ba4      0x12c
 .text.HTTPPrint_btn
                0x9d049ba4      0x12c build/default/debug/_ext/1472/custom_http_app.o
                0x9d049ba4                HTTPPrint_btn

.text.DNSBeginUsage
                0x9d049cd0      0x128
 .text.DNSBeginUsage
                0x9d049cd0      0x128 build/default/debug/_ext/427700826/dns.o
                0x9d049cd0                DNSBeginUsage

.text.SSLMACCalc
                0x9d049df8      0x128
 .text.SSLMACCalc
                0x9d049df8      0x128 build/default/debug/_ext/427700826/ssl.o
                0x9d049df8                SSLMACCalc

.text.fputc     0x9d049f20      0x128
 .text.fputc    0x9d049f20      0x128 c:/program files/microchip/xc32/v1.21/bin/../lib/gcc/pic32mx/4.5.2/../../../../pic32mx/lib/size\libc.a(_fputc_simple.o)
                0x9d049f20                fputc

.text.SYS_USERIO_Initialize
                0x9d04a048      0x124
 .text.SYS_USERIO_Initialize
                0x9d04a048      0x124 build/default/debug/_ext/365611741/system_userio.o
                0x9d04a048                SYS_USERIO_Initialize

.text.HTTPDeInit
                0x9d04a16c      0x124
 .text.HTTPDeInit
                0x9d04a16c      0x124 build/default/debug/_ext/427700826/http2.o
                0x9d04a16c                HTTPDeInit

.text.ARCFOURInitialize
                0x9d04a290      0x124
 .text.ARCFOURInitialize
                0x9d04a290      0x124 build/default/debug/_ext/427700826/arcfour.o
                0x9d04a290                ARCFOURInitialize

.text._TCPSendWinIncUpdate
                0x9d04a3b4      0x124
 .text._TCPSendWinIncUpdate
                0x9d04a3b4      0x124 build/default/debug/_ext/427700826/tcp.o

.text.mDNSTieBreaker
                0x9d04a4d8      0x124
 .text.mDNSTieBreaker
                0x9d04a4d8      0x124 build/default/debug/_ext/427700826/zero_conf_multicast_dns.o

.text.WaitForMgmtResponse
                0x9d04a5fc      0x124
 .text.WaitForMgmtResponse
                0x9d04a5fc      0x124 build/default/debug/_ext/334706090/wf_mgmt_msg_24g.o
                0x9d04a5fc                WaitForMgmtResponse

.text.TCPIP_IPV4_QueuePacket
                0x9d04a720      0x120
 .text.TCPIP_IPV4_QueuePacket
                0x9d04a720      0x120 build/default/debug/_ext/427700826/ipv4.o

.text.TCPOpenServer
                0x9d04a840      0x120
 .text.TCPOpenServer
                0x9d04a840      0x120 build/default/debug/_ext/427700826/tcp.o
                0x9d04a840                TCPOpenServer

.text.UDPOpenServer
                0x9d04a960      0x120
 .text.UDPOpenServer
                0x9d04a960      0x120 build/default/debug/_ext/427700826/udp.o
                0x9d04a960                UDPOpenServer

.text.strcmp_local_ignore_case
                0x9d04aa80      0x120
 .text.strcmp_local_ignore_case
                0x9d04aa80      0x120 build/default/debug/_ext/427700826/zero_conf_multicast_dns.o

.text.WF_ConfigDataLoad
                0x9d04aba0      0x120
 .text.WF_ConfigDataLoad
                0x9d04aba0      0x120 build/default/debug/_ext/334706090/wf_init.o
                0x9d04aba0                WF_ConfigDataLoad

.text           0x9d04acc0      0x120
 .text          0x9d04acc0      0x120 c:/program files/microchip/xc32/v1.21/bin/../lib/gcc/pic32mx/4.5.2/../../../../pic32mx/lib/size\libpic32.a(strcmp.o)
                0x9d04acc0                strcmp

.text.fround    0x9d04ade0      0x120
 .text.fround   0x9d04ade0      0x120 c:/program files/microchip/xc32/v1.21/bin/../lib/gcc/pic32mx/4.5.2/../../../../pic32mx/lib/size\libc.a(doprnt.o)

.text.SHA1AddData
                0x9d04af00      0x11c
 .text.SHA1AddData
                0x9d04af00      0x11c build/default/debug/_ext/101875047/hashes.o
                0x9d04af00                SHA1AddData

.text.RSABeginUsage
                0x9d04b01c      0x11c
 .text.RSABeginUsage
                0x9d04b01c      0x11c build/default/debug/_ext/427700826/rsa.o
                0x9d04b01c                RSABeginUsage

.text.SSLBufferSync
                0x9d04b138      0x11c
 .text.SSLBufferSync
                0x9d04b138      0x11c build/default/debug/_ext/427700826/ssl.o

.text.TCPIP_IPV4_Initialize
                0x9d04b254      0x118
 .text.TCPIP_IPV4_Initialize
                0x9d04b254      0x118 build/default/debug/_ext/427700826/ipv4.o
                0x9d04b254                TCPIP_IPV4_Initialize

.text.RSASetE   0x9d04b36c      0x118
 .text.RSASetE  0x9d04b36c      0x118 build/default/debug/_ext/427700826/rsa.o
                0x9d04b36c                RSASetE

.text.SSLKeysSync
                0x9d04b484      0x118
 .text.SSLKeysSync
                0x9d04b484      0x118 build/default/debug/_ext/427700826/ssl.o

.text.mDNSSetAddresses
                0x9d04b59c      0x118
 .text.mDNSSetAddresses
                0x9d04b59c      0x118 build/default/debug/_ext/427700826/zero_conf_multicast_dns.o

.text.SYS_FS_FSFromAbsPath
                0x9d04b6b4      0x114
 .text.SYS_FS_FSFromAbsPath
                0x9d04b6b4      0x114 build/default/debug/_ext/97638081/sys_fs.o

.text.ARPResolve
                0x9d04b7c8      0x114
 .text.ARPResolve
                0x9d04b7c8      0x114 build/default/debug/_ext/427700826/arp.o
                0x9d04b7c8                ARPResolve

.text.TCPIP_IPV4_PutHeader
                0x9d04b8dc      0x114
 .text.TCPIP_IPV4_PutHeader
                0x9d04b8dc      0x114 build/default/debug/_ext/427700826/ipv4.o
                0x9d04b8dc                TCPIP_IPV4_PutHeader

.text.MD5AddData
                0x9d04b9f0      0x110
 .text.MD5AddData
                0x9d04b9f0      0x110 build/default/debug/_ext/101875047/hashes.o
                0x9d04b9f0                MD5AddData

.text.WF_PsPollEnable
                0x9d04bb00      0x110
 .text.WF_PsPollEnable
                0x9d04bb00      0x110 build/default/debug/_ext/334706090/wf_power_save.o
                0x9d04bb00                WF_PsPollEnable

.text._flsbuf   0x9d04bc10      0x110
 .text._flsbuf  0x9d04bc10      0x110 c:/program files/microchip/xc32/v1.21/bin/../lib/gcc/pic32mx/4.5.2/../../../../pic32mx/lib/size\libc.a(_flsbuf_simple.o)
                0x9d04bc10                _flsbuf

.text.strncpy_m
                0x9d04bd20      0x10c
 .text.strncpy_m
                0x9d04bd20      0x10c build/default/debug/_ext/101875047/helpers.o
                0x9d04bd20                strncpy_m

.text._TcpSwapHeader
                0x9d04be2c      0x10c
 .text._TcpSwapHeader
                0x9d04be2c      0x10c build/default/debug/_ext/427700826/tcp.o

.text.TCPIP_STACK_NetConfigGet
                0x9d04bf38      0x10c
 .text.TCPIP_STACK_NetConfigGet
                0x9d04bf38      0x10c build/default/debug/_ext/427700826/tcpip_manager.o
                0x9d04bf38                TCPIP_STACK_NetConfigGet

.text.TCPIP_STACK_BringNetDown
                0x9d04c044      0x108
 .text.TCPIP_STACK_BringNetDown
                0x9d04c044      0x108 build/default/debug/_ext/427700826/tcpip_manager.o

.text.OutputNetworkType
                0x9d04c14c      0x108
 .text.OutputNetworkType
                0x9d04c14c      0x108 build/default/debug/_ext/334706090/wf_debug_output.o

.text._DHCPClose
                0x9d04c254      0x104
 .text._DHCPClose
                0x9d04c254      0x104 build/default/debug/_ext/427700826/dhcp.o

.text.EthPhyReset
                0x9d04c358      0x104
 .text.EthPhyReset
                0x9d04c358      0x104 build/default/debug/_ext/427700826/eth_pic32_ext_phy.o
                0x9d04c358                EthPhyReset

.text.TelnetCheckMessageLine
                0x9d04c45c      0x104
 .text.TelnetCheckMessageLine
                0x9d04c45c      0x104 build/default/debug/_ext/427700826/telnet.o

.text.ResetIperfCounters
                0x9d04c560      0x104
 .text.ResetIperfCounters
                0x9d04c560      0x104 build/default/debug/_ext/427700826/iperf.o

.text.WF_ScanContextGet
                0x9d04c664      0x104
 .text.WF_ScanContextGet
                0x9d04c664      0x104 build/default/debug/_ext/334706090/wf_connection_algorithm.o
                0x9d04c664                WF_ScanContextGet

.text.iwconfigSetSsid
                0x9d04c768      0x104
 .text.iwconfigSetSsid
                0x9d04c768      0x104 build/default/debug/_ext/334706090/wf_commands.o

.rodata         0x9d04c86c      0x208
 .rodata        0x9d04c86c      0x104 build/default/debug/_ext/1472/wf_config.o
 .rodata        0x9d04c970      0x104 c:/program files/microchip/xc32/v1.21/bin/../lib/gcc/pic32mx/4.5.2/../../../../pic32mx/lib/size\libc.a(ctype.o)
                0x9d04c970                _ctype

.text.hexatob   0x9d04ca74      0x100
 .text.hexatob  0x9d04ca74      0x100 build/default/debug/_ext/101875047/helpers.o
                0x9d04ca74                hexatob

.text.UDPGetSocketInfo
                0x9d04cb74      0x100
 .text.UDPGetSocketInfo
                0x9d04cb74      0x100 build/default/debug/_ext/427700826/udp.o
                0x9d04cb74                UDPGetSocketInfo

.text.DisplayIPValue
                0x9d04cc74      0x100
 .text.DisplayIPValue
                0x9d04cc74      0x100 build/default/debug/_ext/1472/main_demo.o
                0x9d04cc74                DisplayIPValue

.text.TCPGetSocketInfo
                0x9d04cd74       0xfc
 .text.TCPGetSocketInfo
                0x9d04cd74       0xfc build/default/debug/_ext/427700826/tcp.o
                0x9d04cd74                TCPGetSocketInfo

.text.WaitForMgmtResponseAndReadData
                0x9d04ce70       0xfc
 .text.WaitForMgmtResponseAndReadData
                0x9d04ce70       0xfc build/default/debug/_ext/334706090/wf_mgmt_msg_24g.o
                0x9d04ce70                WaitForMgmtResponseAndReadData

.text.SYS_FS_IsAbsolutePath
                0x9d04cf6c       0xf8
 .text.SYS_FS_IsAbsolutePath
                0x9d04cf6c       0xf8 build/default/debug/_ext/97638081/sys_fs.o

.text.PIC32MACEventDeInit
                0x9d04d064       0xf8
 .text.PIC32MACEventDeInit
                0x9d04d064       0xf8 build/default/debug/_ext/427700826/mac_events_pic32.o
                0x9d04d064                PIC32MACEventDeInit

.text.TCPSSLGetPendingTxSize
                0x9d04d15c       0xf8
 .text.TCPSSLGetPendingTxSize
                0x9d04d15c       0xf8 build/default/debug/_ext/427700826/tcp.o
                0x9d04d15c                TCPSSLGetPendingTxSize

.text._TCPIPStackAddressServiceEvent
                0x9d04d254       0xf8
 .text._TCPIPStackAddressServiceEvent
                0x9d04d254       0xf8 build/default/debug/_ext/427700826/tcpip_manager.o
                0x9d04d254                _TCPIPStackAddressServiceEvent

.text.SingleListRemoveNode
                0x9d04d34c       0xf8
 .text.SingleListRemoveNode
                0x9d04d34c       0xf8 build/default/debug/_ext/427700826/tcpip_helpers.o
                0x9d04d34c                SingleListRemoveNode

.text.ZeroconfLLInitialize
                0x9d04d444       0xf8
 .text.ZeroconfLLInitialize
                0x9d04d444       0xf8 build/default/debug/_ext/427700826/zero_conf_link_local.o
                0x9d04d444                ZeroconfLLInitialize

.text.mDNSHostRegister
                0x9d04d53c       0xf8
 .text.mDNSHostRegister
                0x9d04d53c       0xf8 build/default/debug/_ext/427700826/zero_conf_multicast_dns.o

.text.HTTPExecutePost
                0x9d04d634       0xf8
 .text.HTTPExecutePost
                0x9d04d634       0xf8 build/default/debug/_ext/1472/custom_http_app.o
                0x9d04d634                HTTPExecutePost

.text.SYS_USERIO_DeviceDebounce
                0x9d04d72c       0xf4
 .text.SYS_USERIO_DeviceDebounce
                0x9d04d72c       0xf4 build/default/debug/_ext/365611741/system_userio.o
                0x9d04d72c                SYS_USERIO_DeviceDebounce

.text.MPFSGetFilename
                0x9d04d820       0xf4
 .text.MPFSGetFilename
                0x9d04d820       0xf4 build/default/debug/_ext/97638081/mpfs2.o
                0x9d04d820                MPFSGetFilename

.text.PIC32MACEventSetNotifyHandler
                0x9d04d914       0xf4
 .text.PIC32MACEventSetNotifyHandler
                0x9d04d914       0xf4 build/default/debug/_ext/427700826/mac_events_pic32.o
                0x9d04d914                PIC32MACEventSetNotifyHandler

.text.SSLSessionMatchIP
                0x9d04da08       0xf4
 .text.SSLSessionMatchIP
                0x9d04da08       0xf4 build/default/debug/_ext/427700826/ssl.o

.text.TcpSSLMessageTransmit
                0x9d04dafc       0xf4
 .text.TcpSSLMessageTransmit
                0x9d04dafc       0xf4 build/default/debug/_ext/427700826/tcp.o
                0x9d04dafc                TcpSSLMessageTransmit

.text.UDPSetSourceIPAddress
                0x9d04dbf0       0xf4
 .text.UDPSetSourceIPAddress
                0x9d04dbf0       0xf4 build/default/debug/_ext/427700826/udp.o
                0x9d04dbf0                UDPSetSourceIPAddress

.text.UDPSetDestinationIPAddress
                0x9d04dce4       0xf4
 .text.UDPSetDestinationIPAddress
                0x9d04dce4       0xf4 build/default/debug/_ext/427700826/udp.o
                0x9d04dce4                UDPSetDestinationIPAddress

.text.TCPIP_HELPER_MACAddressToString
                0x9d04ddd8       0xf4
 .text.TCPIP_HELPER_MACAddressToString
                0x9d04ddd8       0xf4 build/default/debug/_ext/427700826/tcpip_helpers.o
                0x9d04ddd8                TCPIP_HELPER_MACAddressToString

.text.CommandIperfStop
                0x9d04decc       0xf4
 .text.CommandIperfStop
                0x9d04decc       0xf4 build/default/debug/_ext/427700826/iperf.o

.text.WF_SecurityGet
                0x9d04dfc0       0xf4
 .text.WF_SecurityGet
                0x9d04dfc0       0xf4 build/default/debug/_ext/334706090/wf_connection_profile.o
                0x9d04dfc0                WF_SecurityGet

.text.MRF24W_MACInitialize
                0x9d04e0b4       0xf4
 .text.MRF24W_MACInitialize
                0x9d04e0b4       0xf4 build/default/debug/_ext/334706090/mrf24w_mac_pic32.o
                0x9d04e0b4                MRF24W_MACInitialize

.text._ARPAddCompleteEntry
                0x9d04e1a8       0xf0
 .text._ARPAddCompleteEntry
                0x9d04e1a8       0xf0 build/default/debug/_ext/427700826/arp.o

.text.UDPDiscard
                0x9d04e298       0xf0
 .text.UDPDiscard
                0x9d04e298       0xf0 build/default/debug/_ext/427700826/udp.o
                0x9d04e298                UDPDiscard

.text.NetConfigStringToBuffer
                0x9d04e388       0xf0
 .text.NetConfigStringToBuffer
                0x9d04e388       0xf0 build/default/debug/_ext/427700826/tcpip_manager.o

.text.WF_ScanContextSet
                0x9d04e478       0xf0
 .text.WF_ScanContextSet
                0x9d04e478       0xf0 build/default/debug/_ext/334706090/wf_connection_algorithm.o
                0x9d04e478                WF_ScanContextSet

.text.WF_Init   0x9d04e568       0xf0
 .text.WF_Init  0x9d04e568       0xf0 build/default/debug/_ext/334706090/wf_init.o
                0x9d04e568                WF_Init

.text.iwconfigUpdateCb
                0x9d04e658       0xf0
 .text.iwconfigUpdateCb
                0x9d04e658       0xf0 build/default/debug/_ext/334706090/wf_commands.o

.text.NBNSPutName
                0x9d04e748       0xec
 .text.NBNSPutName
                0x9d04e748       0xec build/default/debug/_ext/427700826/nbns.o

.text.TCPIsPutReady
                0x9d04e834       0xec
 .text.TCPIsPutReady
                0x9d04e834       0xec build/default/debug/_ext/427700826/tcp.o
                0x9d04e834                TCPIsPutReady

.text._TCPIP_HEAP_CallocDebug
                0x9d04e920       0xec
 .text._TCPIP_HEAP_CallocDebug
                0x9d04e920       0xec build/default/debug/_ext/427700826/tcpip_heap_alloc.o
                0x9d04e920                _TCPIP_HEAP_CallocDebug

.text.TCPIP_HELPER_IPAddressToString
                0x9d04ea0c       0xec
 .text.TCPIP_HELPER_IPAddressToString
                0x9d04ea0c       0xec build/default/debug/_ext/427700826/tcpip_helpers.o
                0x9d04ea0c                TCPIP_HELPER_IPAddressToString

.text.TcpTxFillSegment
                0x9d04eaf8       0xec
 .text.TcpTxFillSegment
                0x9d04eaf8       0xec build/default/debug/_ext/427700826/iperf.o

.text.UdpTxFillDatagram
                0x9d04ebe4       0xec
 .text.UdpTxFillDatagram
                0x9d04ebe4       0xec build/default/debug/_ext/427700826/iperf.o

.text.AllocateDataTxBuffer
                0x9d04ecd0       0xec
 .text.AllocateDataTxBuffer
                0x9d04ecd0       0xec build/default/debug/_ext/334706090/wf_driver_raw_24g.o
                0x9d04ecd0                AllocateDataTxBuffer

.text.setvbuf   0x9d04edbc       0xec
 .text.setvbuf  0x9d04edbc       0xec c:/program files/microchip/xc32/v1.21/bin/../lib/gcc/pic32mx/4.5.2/../../../../pic32mx/lib/size\libc.a(setbuf.o)
                0x9d04edbc                setvbuf

.text.HTTPReadPostValue
                0x9d04eea8       0xe8
 .text.HTTPReadPostValue
                0x9d04eea8       0xe8 build/default/debug/_ext/427700826/http2.o
                0x9d04eea8                HTTPReadPostValue

.text.DNSIsResolved
                0x9d04ef90       0xe8
 .text.DNSIsResolved
                0x9d04ef90       0xe8 build/default/debug/_ext/427700826/dns.o
                0x9d04ef90                DNSIsResolved

.text.TCPIP_IPV4_PutUpperLayerHeader
                0x9d04f078       0xe8
 .text.TCPIP_IPV4_PutUpperLayerHeader
                0x9d04f078       0xe8 build/default/debug/_ext/427700826/ipv4.o
                0x9d04f078                TCPIP_IPV4_PutUpperLayerHeader

.text.SSLHashFree
                0x9d04f160       0xe8
 .text.SSLHashFree
                0x9d04f160       0xe8 build/default/debug/_ext/427700826/ssl.o

.text.SSLBufferFree
                0x9d04f248       0xe8
 .text.SSLBufferFree
                0x9d04f248       0xe8 build/default/debug/_ext/427700826/ssl.o

.text.HSPut     0x9d04f330       0xe8
 .text.HSPut    0x9d04f330       0xe8 build/default/debug/_ext/427700826/ssl.o

.text.UDPSetRxOffset
                0x9d04f418       0xe8
 .text.UDPSetRxOffset
                0x9d04f418       0xe8 build/default/debug/_ext/427700826/udp.o
                0x9d04f418                UDPSetRxOffset

.text.ProcessTCPIPTickEvent
                0x9d04f500       0xe8
 .text.ProcessTCPIPTickEvent
                0x9d04f500       0xe8 build/default/debug/_ext/427700826/tcpip_manager.o

.text.WF_GetDeviceInfo
                0x9d04f5e8       0xe8
 .text.WF_GetDeviceInfo
                0x9d04f5e8       0xe8 build/default/debug/_ext/334706090/wf_param_msg_24g.o
                0x9d04f5e8                WF_GetDeviceInfo

.rodata         0x9d04f6d0      0x1cc
 .rodata        0x9d04f6d0       0xe8 c:/program files/microchip/xc32/v1.21/bin/../lib/gcc/pic32mx/4.5.2/../../../../pic32mx/lib/size\libc.a(doprnt.o)
 .rodata        0x9d04f7b8       0xe4 build/default/debug/_ext/1472/generic_tcp_client.o

.text.TCPIP_IPV4_ResetTransmitPacketState
                0x9d04f89c       0xe4
 .text.TCPIP_IPV4_ResetTransmitPacketState
                0x9d04f89c       0xe4 build/default/debug/_ext/427700826/ipv4.o
                0x9d04f89c                TCPIP_IPV4_ResetTransmitPacketState

.text.TCPIP_IPV4_AllocateDataSegmentHeader
                0x9d04f980       0xe4
 .text.TCPIP_IPV4_AllocateDataSegmentHeader
                0x9d04f980       0xe4 build/default/debug/_ext/427700826/ipv4.o
                0x9d04f980                TCPIP_IPV4_AllocateDataSegmentHeader

.text.TCPDeInit
                0x9d04fa64       0xe4
 .text.TCPDeInit
                0x9d04fa64       0xe4 build/default/debug/_ext/427700826/tcp.o
                0x9d04fa64                TCPDeInit

.text.TCPIP_HEAP_Delete
                0x9d04fb48       0xe4
 .text.TCPIP_HEAP_Delete
                0x9d04fb48       0xe4 build/default/debug/_ext/427700826/tcpip_heap_alloc.o
                0x9d04fb48                TCPIP_HEAP_Delete

.text.SYS_TICK_TimerCreate
                0x9d04fc2c       0xe0
 .text.SYS_TICK_TimerCreate
                0x9d04fc2c       0xe0 build/default/debug/_ext/365611741/system_services.o
                0x9d04fc2c                SYS_TICK_TimerCreate

.text._SYS_CMDIO_ADD
                0x9d04fd0c       0xe0
 .text._SYS_CMDIO_ADD
                0x9d04fd0c       0xe0 build/default/debug/_ext/365611741/system_command.o
                0x9d04fd0c                _SYS_CMDIO_ADD

.text._ARPSetEntry
                0x9d04fdec       0xe0
 .text._ARPSetEntry
                0x9d04fdec       0xe0 build/default/debug/_ext/427700826/arp.o

.text.UDPPutArray
                0x9d04fecc       0xe0
 .text.UDPPutArray
                0x9d04fecc       0xe0 build/default/debug/_ext/427700826/udp.o
                0x9d04fecc                UDPPutArray

.text.TCPIPMacEventCB
                0x9d04ffac       0xe0
 .text.TCPIPMacEventCB
                0x9d04ffac       0xe0 build/default/debug/_ext/427700826/tcpip_manager.o

.text.WiFiAsyncTask
                0x9d05008c       0xe0
 .text.WiFiAsyncTask
                0x9d05008c       0xe0 build/default/debug/_ext/334706090/wf_event_handler.o
                0x9d05008c                WiFiAsyncTask

.text._SYS_ERROR_PRINT
                0x9d05016c       0xdc
 .text._SYS_ERROR_PRINT
                0x9d05016c       0xdc build/default/debug/_ext/365611741/system_debug.o
                0x9d05016c                _SYS_ERROR_PRINT

.text.HTTPHeaderParseContentLength
                0x9d050248       0xdc
 .text.HTTPHeaderParseContentLength
                0x9d050248       0xdc build/default/debug/_ext/427700826/http2.o

.text.ARPHashDeleteEntry
                0x9d050324       0xdc
 .text.ARPHashDeleteEntry
                0x9d050324       0xdc build/default/debug/_ext/427700826/arp.o
                0x9d050324                ARPHashDeleteEntry

.text.DHCPConnectionHandler
                0x9d050400       0xdc
 .text.DHCPConnectionHandler
                0x9d050400       0xdc build/default/debug/_ext/427700826/dhcp.o
                0x9d050400                DHCPConnectionHandler

.text._TcpCleanup
                0x9d0504dc       0xdc
 .text._TcpCleanup
                0x9d0504dc       0xdc build/default/debug/_ext/427700826/tcp.o

.text.TCPOpenClient
                0x9d0505b8       0xdc
 .text.TCPOpenClient
                0x9d0505b8       0xdc build/default/debug/_ext/427700826/tcp.o
                0x9d0505b8                TCPOpenClient

.text._TcpSocketInitialize
                0x9d050694       0xdc
 .text._TcpSocketInitialize
                0x9d050694       0xdc build/default/debug/_ext/427700826/tcp.o

.text.TcpAllocateEphemeralPort
                0x9d050770       0xdc
 .text.TcpAllocateEphemeralPort
                0x9d050770       0xdc build/default/debug/_ext/427700826/tcp.o

.text.UDPOpenClient
                0x9d05084c       0xdc
 .text.UDPOpenClient
                0x9d05084c       0xdc build/default/debug/_ext/427700826/udp.o
                0x9d05084c                UDPOpenClient

.text.UdpAllocateEphemeralPort
                0x9d050928       0xdc
 .text.UdpAllocateEphemeralPort
                0x9d050928       0xdc build/default/debug/_ext/427700826/udp.o

.text.OutputTxMode
                0x9d050a04       0xdc
 .text.OutputTxMode
                0x9d050a04       0xdc build/default/debug/_ext/334706090/wf_debug_output.o

.text.MACIFService
                0x9d050ae0       0xdc
 .text.MACIFService
                0x9d050ae0       0xdc build/default/debug/_ext/334706090/wf_mac_24g.o

.text.DHCPEnable
                0x9d050bbc       0xd8
 .text.DHCPEnable
                0x9d050bbc       0xd8 build/default/debug/_ext/427700826/dhcp.o
                0x9d050bbc                DHCPEnable

.text.TCPIP_IPV4_GetPseudoHeaderChecksum
                0x9d050c94       0xd8
 .text.TCPIP_IPV4_GetPseudoHeaderChecksum
                0x9d050c94       0xd8 build/default/debug/_ext/427700826/ipv4.o
                0x9d050c94                TCPIP_IPV4_GetPseudoHeaderChecksum

.text._TCPIP_HEAP_MallocDebug
                0x9d050d6c       0xd8
 .text._TCPIP_HEAP_MallocDebug
                0x9d050d6c       0xd8 build/default/debug/_ext/427700826/tcpip_heap_alloc.o
                0x9d050d6c                _TCPIP_HEAP_MallocDebug

.text.TCPIP_IPERF_Initialize
                0x9d050e44       0xd8
 .text.TCPIP_IPERF_Initialize
                0x9d050e44       0xd8 build/default/debug/_ext/427700826/iperf.o
                0x9d050e44                TCPIP_IPERF_Initialize

.text.StateMachineTcpListen
                0x9d050f1c       0xd8
 .text.StateMachineTcpListen
                0x9d050f1c       0xd8 build/default/debug/_ext/427700826/iperf.o

.rodata         0x9d050ff4       0xd8
 .rodata        0x9d050ff4       0xd8 build/default/debug/_ext/427700826/zero_conf_link_local.o

.text._SYS_RANDOM_INIT
                0x9d0510cc       0xd4
 .text._SYS_RANDOM_INIT
                0x9d0510cc       0xd4 build/default/debug/_ext/365611741/system_random.o
                0x9d0510cc                _SYS_RANDOM_INIT

.text.TCPIP_ANNOUNCE_Init
                0x9d0511a0       0xd4
 .text.TCPIP_ANNOUNCE_Init
                0x9d0511a0       0xd4 build/default/debug/_ext/427700826/tcpip_announce.o
                0x9d0511a0                TCPIP_ANNOUNCE_Init

.text.SSLStubFree
                0x9d051274       0xd4
 .text.SSLStubFree
                0x9d051274       0xd4 build/default/debug/_ext/427700826/ssl.o

.text._TcpAbort
                0x9d051348       0xd4
 .text._TcpAbort
                0x9d051348       0xd4 build/default/debug/_ext/427700826/tcp.o

.text.TCPClose  0x9d05141c       0xd4
 .text.TCPClose
                0x9d05141c       0xd4 build/default/debug/_ext/427700826/tcp.o
                0x9d05141c                TCPClose

.text.GenericTxDone
                0x9d0514f0       0xd4
 .text.GenericTxDone
                0x9d0514f0       0xd4 build/default/debug/_ext/427700826/iperf.o

.text.OutputDomain
                0x9d0515c4       0xd4
 .text.OutputDomain
                0x9d0515c4       0xd4 build/default/debug/_ext/334706090/wf_debug_output.o

.text.AllocateMgmtTxBuffer
                0x9d051698       0xd4
 .text.AllocateMgmtTxBuffer
                0x9d051698       0xd4 build/default/debug/_ext/334706090/wf_driver_raw_24g.o
                0x9d051698                AllocateMgmtTxBuffer

.text           0x9d05176c       0xd4
 .text          0x9d05176c       0xd4 c:/program files/microchip/xc32/v1.21/bin/../lib/gcc/pic32mx/4.5.2/size\libgcc.a(_floatundisf.o)
                0x9d05176c                __floatundisf

.text.HTTPGetArg
                0x9d051840       0xd0
 .text.HTTPGetArg
                0x9d051840       0xd0 build/default/debug/_ext/427700826/http2.o
                0x9d051840                HTTPGetArg

.text._ARPDeleteResources
                0x9d051910       0xd0
 .text._ARPDeleteResources
                0x9d051910       0xd0 build/default/debug/_ext/427700826/arp.o

.text._LinkReconfigure
                0x9d0519e0       0xd0
 .text._LinkReconfigure
                0x9d0519e0       0xd0 build/default/debug/_ext/427700826/eth_pic32_int_mac.o

.text.fnv_32_hash
                0x9d051ab0       0xd0
 .text.fnv_32_hash
                0x9d051ab0       0xd0 build/default/debug/_ext/427700826/hash_fnv.o
                0x9d051ab0                fnv_32_hash

.text.UDPSetOptions
                0x9d051b80       0xd0
 .text.UDPSetOptions
                0x9d051b80       0xd0 build/default/debug/_ext/427700826/udp.o
                0x9d051b80                UDPSetOptions

.text.TCPIP_STACK_RegisterHandler
                0x9d051c50       0xd0
 .text.TCPIP_STACK_RegisterHandler
                0x9d051c50       0xd0 build/default/debug/_ext/427700826/tcpip_manager.o
                0x9d051c50                TCPIP_STACK_RegisterHandler

.text.DhcpConfigTask
                0x9d051d20       0xd0
 .text.DhcpConfigTask
                0x9d051d20       0xd0 build/default/debug/_ext/334706090/wf_connection_profile.o
                0x9d051d20                DhcpConfigTask

.text.OutputDeviceInfo
                0x9d051df0       0xd0
 .text.OutputDeviceInfo
                0x9d051df0       0xd0 build/default/debug/_ext/334706090/wf_debug_output.o

.text.MRF24W_MACPutHeader
                0x9d051ec0       0xd0
 .text.MRF24W_MACPutHeader
                0x9d051ec0       0xd0 build/default/debug/_ext/334706090/wf_mac_24g.o
                0x9d051ec0                MRF24W_MACPutHeader

.text.general_exception
                0x9d051f90       0xd0
 .text.general_exception
                0x9d051f90       0xd0 c:/program files/microchip/xc32/v1.21/bin/../lib/gcc/pic32mx/4.5.2/../../../../pic32mx/lib/size\libpic32.a(general-exception.o)
                0x9d051f90                _general_exception_context

.rodata         0x9d052060       0xd0
 .rodata        0x9d052060       0xd0 c:/program files/microchip/xc32/v1.21/bin/../lib/gcc/pic32mx/4.5.2/../../../../pic32mx/lib/size\libc.a(doprnt_cdnopsuxX.eo)

.text.EthPhyConfigureMdix
                0x9d052130       0xcc
 .text.EthPhyConfigureMdix
                0x9d052130       0xcc build/default/debug/_ext/427700826/eth_pic32_ext_phy_dp83848.o
                0x9d052130                EthPhyConfigureMdix

.text.TCPIP_IPV4_SetPayload
                0x9d0521fc       0xcc
 .text.TCPIP_IPV4_SetPayload
                0x9d0521fc       0xcc build/default/debug/_ext/427700826/ipv4.o
                0x9d0521fc                TCPIP_IPV4_SetPayload

.text.HSGetWord
                0x9d0522c8       0xcc
 .text.HSGetWord
                0x9d0522c8       0xcc build/default/debug/_ext/427700826/ssl.o

.text._ZCLLEnable
                0x9d052394       0xcc
 .text._ZCLLEnable
                0x9d052394       0xcc build/default/debug/_ext/427700826/zero_conf_link_local.o

.text.DNSRetry  0x9d052460       0xc8
 .text.DNSRetry
                0x9d052460       0xc8 build/default/debug/_ext/427700826/dns.o

.text.DNSDiscardName
                0x9d052528       0xc8
 .text.DNSDiscardName
                0x9d052528       0xc8 build/default/debug/_ext/427700826/dns.o

.text._XtlEventsTcp2Eth
                0x9d0525f0       0xc8
 .text._XtlEventsTcp2Eth
                0x9d0525f0       0xc8 build/default/debug/_ext/427700826/mac_events_pic32.o

.text._XtlEventsEth2Tcp
                0x9d0526b8       0xc8
 .text._XtlEventsEth2Tcp
                0x9d0526b8       0xc8 build/default/debug/_ext/427700826/mac_events_pic32.o

.text.TelnetSkipCommands
                0x9d052780       0xc8
 .text.TelnetSkipCommands
                0x9d052780       0xc8 build/default/debug/_ext/427700826/telnet.o

.text.UDPClose  0x9d052848       0xc8
 .text.UDPClose
                0x9d052848       0xc8 build/default/debug/_ext/427700826/udp.o
                0x9d052848                UDPClose

.text.UDPSetTxOffset
                0x9d052910       0xc8
 .text.UDPSetTxOffset
                0x9d052910       0xc8 build/default/debug/_ext/427700826/udp.o
                0x9d052910                UDPSetTxOffset

.text.InitNetConfig
                0x9d0529d8       0xc8
 .text.InitNetConfig
                0x9d0529d8       0xc8 build/default/debug/_ext/427700826/tcpip_manager.o

.text.TCPIP_Helper_FormatNetBIOSName
                0x9d052aa0       0xc8
 .text.TCPIP_Helper_FormatNetBIOSName
                0x9d052aa0       0xc8 build/default/debug/_ext/427700826/tcpip_helpers.o
                0x9d052aa0                TCPIP_Helper_FormatNetBIOSName

.text.WF_ConnectionStateGet
                0x9d052b68       0xc8
 .text.WF_ConnectionStateGet
                0x9d052b68       0xc8 build/default/debug/_ext/334706090/wf_connection_manager.o
                0x9d052b68                WF_ConnectionStateGet

.text.OutputDemoHeader
                0x9d052c30       0xc8
 .text.OutputDemoHeader
                0x9d052c30       0xc8 build/default/debug/_ext/334706090/wf_debug_output.o
                0x9d052c30                OutputDemoHeader

.text.HostInterruptRegInit
                0x9d052cf8       0xc8
 .text.HostInterruptRegInit
                0x9d052cf8       0xc8 build/default/debug/_ext/334706090/wf_driver_com_24g.o

.text.HTTPPrintIP
                0x9d052dc0       0xc8
 .text.HTTPPrintIP
                0x9d052dc0       0xc8 build/default/debug/_ext/1472/custom_http_app.o
                0x9d052dc0                HTTPPrintIP

.text.CmdAddHead
                0x9d052e88       0xc4
 .text.CmdAddHead
                0x9d052e88       0xc4 build/default/debug/_ext/365611741/system_command.o

.text.MPFSInit  0x9d052f4c       0xc4
 .text.MPFSInit
                0x9d052f4c       0xc4 build/default/debug/_ext/97638081/mpfs2.o
                0x9d052f4c                MPFSInit

.text._LoadFATRecord
                0x9d053010       0xc4
 .text._LoadFATRecord
                0x9d053010       0xc4 build/default/debug/_ext/97638081/mpfs2.o

.text._DHCPEnable
                0x9d0530d4       0xc4
 .text._DHCPEnable
                0x9d0530d4       0xc4 build/default/debug/_ext/427700826/dhcp.o

.text.iwconfigSetRTS
                0x9d053198       0xc4
 .text.iwconfigSetRTS
                0x9d053198       0xc4 build/default/debug/_ext/334706090/wf_commands.o

.text.MRF24W_MACGetArray
                0x9d05325c       0xc4
 .text.MRF24W_MACGetArray
                0x9d05325c       0xc4 build/default/debug/_ext/334706090/wf_mac_24g.o
                0x9d05325c                MRF24W_MACGetArray

.text.SYS_TICK_Initialize
                0x9d053320       0xc0
 .text.SYS_TICK_Initialize
                0x9d053320       0xc0 build/default/debug/_ext/365611741/system_services.o
                0x9d053320                SYS_TICK_Initialize

.text.ARPRegisterCallbacks
                0x9d0533e0       0xc0
 .text.ARPRegisterCallbacks
                0x9d0533e0       0xc0 build/default/debug/_ext/427700826/arp.o
                0x9d0533e0                ARPRegisterCallbacks

.text.PIC32MACCheckLink
                0x9d0534a0       0xc0
 .text.PIC32MACCheckLink
                0x9d0534a0       0xc0 build/default/debug/_ext/427700826/eth_pic32_int_mac.o

.text.SMTPEndUsage
                0x9d053560       0xc0
 .text.SMTPEndUsage
                0x9d053560       0xc0 build/default/debug/_ext/427700826/smtp.o
                0x9d053560                SMTPEndUsage

.text.SSLStartPartialRecord
                0x9d053620       0xc0
 .text.SSLStartPartialRecord
                0x9d053620       0xc0 build/default/debug/_ext/427700826/ssl.o
                0x9d053620                SSLStartPartialRecord

.text.mDNSFillHostRecord
                0x9d0536e0       0xc0
 .text.mDNSFillHostRecord
                0x9d0536e0       0xc0 build/default/debug/_ext/427700826/zero_conf_multicast_dns.o

.text.LowLevel_CPGetElement
                0x9d0537a0       0xc0
 .text.LowLevel_CPGetElement
                0x9d0537a0       0xc0 build/default/debug/_ext/334706090/wf_connection_profile.o

.text.ProcessMgmtRxMsg
                0x9d053860       0xc0
 .text.ProcessMgmtRxMsg
                0x9d053860       0xc0 build/default/debug/_ext/334706090/wf_driver_com_24g.o

.text.SYS_INT_DynamicRegister
                0x9d053920       0xbc
 .text.SYS_INT_DynamicRegister
                0x9d053920       0xbc build/default/debug/_ext/365611741/system_services.o
                0x9d053920                SYS_INT_DynamicRegister

.text._SYS_COMMAND_INIT
                0x9d0539dc       0xbc
 .text._SYS_COMMAND_INIT
                0x9d0539dc       0xbc build/default/debug/_ext/365611741/system_command.o
                0x9d0539dc                _SYS_COMMAND_INIT

.text._ARPRemoveEntry
                0x9d053a98       0xbc
 .text._ARPRemoveEntry
                0x9d053a98       0xbc build/default/debug/_ext/427700826/arp.o

.text.OAHashRemoveAll
                0x9d053b54       0xbc
 .text.OAHashRemoveAll
                0x9d053b54       0xbc build/default/debug/_ext/427700826/hash_tbl.o
                0x9d053b54                OAHashRemoveAll

.text.UDPDiscardNet
                0x9d053c10       0xbc
 .text.UDPDiscardNet
                0x9d053c10       0xbc build/default/debug/_ext/427700826/udp.o
                0x9d053c10                UDPDiscardNet

.text.TCPIP_Helper_StringToPowerMode
                0x9d053ccc       0xbc
 .text.TCPIP_Helper_StringToPowerMode
                0x9d053ccc       0xbc build/default/debug/_ext/427700826/tcpip_helpers.o
                0x9d053ccc                TCPIP_Helper_StringToPowerMode

.text.FindARPPktType
                0x9d053d88       0xbc
 .text.FindARPPktType
                0x9d053d88       0xbc build/default/debug/_ext/427700826/zero_conf_link_local.o

.text.LowLevel_CAGetElement
                0x9d053e44       0xbc
 .text.LowLevel_CAGetElement
                0x9d053e44       0xbc build/default/debug/_ext/334706090/wf_connection_algorithm.o

.text.MRF24W_MACEventSetNotifyHandler
                0x9d053f00       0xbc
 .text.MRF24W_MACEventSetNotifyHandler
                0x9d053f00       0xbc build/default/debug/_ext/334706090/mrf24w_events.o
                0x9d053f00                MRF24W_MACEventSetNotifyHandler

.text.OutputMacAddress
                0x9d053fbc       0xbc
 .text.OutputMacAddress
                0x9d053fbc       0xbc build/default/debug/_ext/334706090/wf_debug_output.o

.text._SYS_DEBUG_INIT
                0x9d054078       0xb8
 .text._SYS_DEBUG_INIT
                0x9d054078       0xb8 build/default/debug/_ext/365611741/system_debug.o
                0x9d054078                _SYS_DEBUG_INIT

.text._SYS_CONSOLE_INIT
                0x9d054130       0xb8
 .text._SYS_CONSOLE_INIT
                0x9d054130       0xb8 build/default/debug/_ext/365611741/system_debug.o
                0x9d054130                _SYS_CONSOLE_INIT

.text.TCPv4AllocateTxPacketStruct
                0x9d0541e8       0xb8
 .text.TCPv4AllocateTxPacketStruct
                0x9d0541e8       0xb8 build/default/debug/_ext/427700826/tcp.o

.text._TCPIsGetReady
                0x9d0542a0       0xb8
 .text._TCPIsGetReady
                0x9d0542a0       0xb8 build/default/debug/_ext/427700826/tcp.o

.text.UDPGetTxCount
                0x9d054358       0xb8
 .text.UDPGetTxCount
                0x9d054358       0xb8 build/default/debug/_ext/427700826/udp.o
                0x9d054358                UDPGetTxCount

.text.OutputScanType
                0x9d054410       0xb8
 .text.OutputScanType
                0x9d054410       0xb8 build/default/debug/_ext/334706090/wf_debug_output.o

.text.RawGetByte
                0x9d0544c8       0xb8
 .text.RawGetByte
                0x9d0544c8       0xb8 build/default/debug/_ext/334706090/wf_driver_raw_24g.o
                0x9d0544c8                RawGetByte

.text.RawSetByte
                0x9d054580       0xb8
 .text.RawSetByte
                0x9d054580       0xb8 build/default/debug/_ext/334706090/wf_driver_raw_24g.o
                0x9d054580                RawSetByte

.text.EthMACOpen
                0x9d054638       0xb8
 .text.EthMACOpen
                0x9d054638       0xb8 c:/program files/microchip/xc32/v1.21/bin/../lib/gcc/pic32mx/4.5.2/../../../../pic32mx/lib/size\libmchp_peripheral_32MX795F512L.a(eth_mac_open_lib.o)
                0x9d054638                EthMACOpen

.text.StarterKitIO
                0x9d0546f0       0xb8
 .text.StarterKitIO
                0x9d0546f0       0xb8 c:/program files/microchip/xc32/v1.21/bin/../lib/gcc/pic32mx/4.5.2/../../../../pic32mx/lib/size\libdebug.a(db_utils.o)
                0x9d0546f0                _pic32mxsk_init
                0x9d054728                db_puts
                0x9d054738                db_gets
                0x9d054748                _mon_write
                0x9d054760                _mon_putc
                0x9d054784                _mon_getc

.text.MPFSGetEndAddr
                0x9d0547a8       0xb4
 .text.MPFSGetEndAddr
                0x9d0547a8       0xb4 build/default/debug/_ext/97638081/mpfs2.o
                0x9d0547a8                MPFSGetEndAddr

.text._TcpMac2RamCopy
                0x9d05485c       0xb4
 .text._TcpMac2RamCopy
                0x9d05485c       0xb4 build/default/debug/_ext/427700826/tcp.o

.text.UDPv4AllocateTxPacketStruct
                0x9d054910       0xb4
 .text.UDPv4AllocateTxPacketStruct
                0x9d054910       0xb4 build/default/debug/_ext/427700826/udp.o

.text.UDPIsTxPutReady
                0x9d0549c4       0xb4
 .text.UDPIsTxPutReady
                0x9d0549c4       0xb4 build/default/debug/_ext/427700826/udp.o
                0x9d0549c4                UDPIsTxPutReady

.text.WF_SsidSet
                0x9d054a78       0xb4
 .text.WF_SsidSet
                0x9d054a78       0xb4 build/default/debug/_ext/334706090/wf_connection_profile.o
                0x9d054a78                WF_SsidSet

.text.MRF24W_MACEventInit
                0x9d054b2c       0xb4
 .text.MRF24W_MACEventInit
                0x9d054b2c       0xb4 build/default/debug/_ext/334706090/mrf24w_events.o
                0x9d054b2c                MRF24W_MACEventInit

.text.CommandQuit
                0x9d054be0       0xb0
 .text.CommandQuit
                0x9d054be0       0xb0 build/default/debug/_ext/365611741/system_command.o

.text.CmdRemoveTail
                0x9d054c90       0xb0
 .text.CmdRemoveTail
                0x9d054c90       0xb0 build/default/debug/_ext/365611741/system_command.o

.text.TCPIP_ANNOUNCE_DeInit
                0x9d054d40       0xb0
 .text.TCPIP_ANNOUNCE_DeInit
                0x9d054d40       0xb0 build/default/debug/_ext/427700826/tcpip_announce.o
                0x9d054d40                TCPIP_ANNOUNCE_DeInit

.text._ARPRemoveCacheEntries
                0x9d054df0       0xb0
 .text._ARPRemoveCacheEntries
                0x9d054df0       0xb0 build/default/debug/_ext/427700826/arp.o

.text._ARPNotifyClients
                0x9d054ea0       0xb0
 .text._ARPNotifyClients
                0x9d054ea0       0xb0 build/default/debug/_ext/427700826/arp.o

.text.PIC32MACOpen
                0x9d054f50       0xb0
 .text.PIC32MACOpen
                0x9d054f50       0xb0 build/default/debug/_ext/427700826/eth_pic32_int_mac.o
                0x9d054f50                PIC32MACOpen

.text._Tcpv4AckFnc
                0x9d055000       0xb0
 .text._Tcpv4AckFnc
                0x9d055000       0xb0 build/default/debug/_ext/427700826/tcp.o

.text.TCPIP_HEAP_MaxSize
                0x9d0550b0       0xb0
 .text.TCPIP_HEAP_MaxSize
                0x9d0550b0       0xb0 build/default/debug/_ext/427700826/tcpip_heap_alloc.o
                0x9d0550b0                TCPIP_HEAP_MaxSize

.text._TCPIPStackSetNetAddress
                0x9d055160       0xb0
 .text._TCPIPStackSetNetAddress
                0x9d055160       0xb0 build/default/debug/_ext/427700826/tcpip_manager.o
                0x9d055160                _TCPIPStackSetNetAddress

.text._TCPIPStackIsBcastAddress
                0x9d055210       0xb0
 .text._TCPIPStackIsBcastAddress
                0x9d055210       0xb0 build/default/debug/_ext/427700826/tcpip_manager.o
                0x9d055210                _TCPIPStackIsBcastAddress

.text.HostInterrupt2RegInit
                0x9d0552c0       0xb0
 .text.HostInterrupt2RegInit
                0x9d0552c0       0xb0 build/default/debug/_ext/334706090/wf_driver_com_24g.o

.text.EthTxSendBuffer
                0x9d055370       0xb0
 .text.EthTxSendBuffer
                0x9d055370       0xb0 c:/program files/microchip/xc32/v1.21/bin/../lib/gcc/pic32mx/4.5.2/../../../../pic32mx/lib/size\libmchp_peripheral_32MX795F512L.a(eth_tx_packet_lib.o)
                0x9d055370                EthTxSendBuffer

.text.BigIntMSB
                0x9d055420       0xac
 .text.BigIntMSB
                0x9d055420       0xac build/default/debug/_ext/101875047/big_int.o

.text.MPFSGetFlags
                0x9d0554cc       0xac
 .text.MPFSGetFlags
                0x9d0554cc       0xac build/default/debug/_ext/97638081/mpfs2.o
                0x9d0554cc                MPFSGetFlags

.text.MPFSGetSize
                0x9d055578       0xac
 .text.MPFSGetSize
                0x9d055578       0xac build/default/debug/_ext/97638081/mpfs2.o
                0x9d055578                MPFSGetSize

.text.MPFSGetStartAddr
                0x9d055624       0xac
 .text.MPFSGetStartAddr
                0x9d055624       0xac build/default/debug/_ext/97638081/mpfs2.o
                0x9d055624                MPFSGetStartAddr

.text.EthPhyConfigureMII
                0x9d0556d0       0xac
 .text.EthPhyConfigureMII
                0x9d0556d0       0xac build/default/debug/_ext/427700826/eth_pic32_ext_phy_dp83848.o
                0x9d0556d0                EthPhyConfigureMII

.text.SSLTask   0x9d05577c       0xac
 .text.SSLTask  0x9d05577c       0xac build/default/debug/_ext/427700826/ssl.o
                0x9d05577c                SSLTask

.rodata         0x9d055828       0xac
 .rodata        0x9d055828       0xac build/default/debug/_ext/427700826/tcp.o

.text.TCPIsConnected
                0x9d0558d4       0xac
 .text.TCPIsConnected
                0x9d0558d4       0xac build/default/debug/_ext/427700826/tcp.o
                0x9d0558d4                TCPIsConnected

.text.TelnetDeInit
                0x9d055980       0xac
 .text.TelnetDeInit
                0x9d055980       0xac build/default/debug/_ext/427700826/telnet.o
                0x9d055980                TelnetDeInit

.text._TCPIPStackStringToMACId
                0x9d055a2c       0xac
 .text._TCPIPStackStringToMACId
                0x9d055a2c       0xac build/default/debug/_ext/427700826/tcpip_manager.o
                0x9d055a2c                _TCPIPStackStringToMACId

.text._TCPIPStackAddressServiceSelect
                0x9d055ad8       0xac
 .text._TCPIPStackAddressServiceSelect
                0x9d055ad8       0xac build/default/debug/_ext/427700826/tcpip_manager.o
                0x9d055ad8                _TCPIPStackAddressServiceSelect

.text.zgzc_wait_for
                0x9d055b84       0xac
 .text.zgzc_wait_for
                0x9d055b84       0xac build/default/debug/_ext/427700826/zero_conf_helper.o
                0x9d055b84                zgzc_wait_for

.text.HTTPPrint_cookiename
                0x9d055c30       0xac
 .text.HTTPPrint_cookiename
                0x9d055c30       0xac build/default/debug/_ext/1472/custom_http_app.o
                0x9d055c30                HTTPPrint_cookiename

.text.EthInit   0x9d055cdc       0xac
 .text.EthInit  0x9d055cdc       0xac c:/program files/microchip/xc32/v1.21/bin/../lib/gcc/pic32mx/4.5.2/../../../../pic32mx/lib/size\libmchp_peripheral_32MX795F512L.a(eth_init_lib.o)
                0x9d055cdc                EthInit

.text._SYS_ERROR
                0x9d055d88       0xa8
 .text._SYS_ERROR
                0x9d055d88       0xa8 build/default/debug/_ext/365611741/system_debug.o
                0x9d055d88                _SYS_ERROR

.text.ARPDeinitialize
                0x9d055e30       0xa8
 .text.ARPDeinitialize
                0x9d055e30       0xa8 build/default/debug/_ext/427700826/arp.o
                0x9d055e30                ARPDeinitialize

.text._TCPGetRxFIFOFree
                0x9d055ed8       0xa8
 .text._TCPGetRxFIFOFree
                0x9d055ed8       0xa8 build/default/debug/_ext/427700826/tcp.o

.text.StateMachineTcpTxSegment
                0x9d055f80       0xa8
 .text.StateMachineTcpTxSegment
                0x9d055f80       0xa8 build/default/debug/_ext/427700826/iperf.o

.text.StateMachineUdpTxDatagram
                0x9d056028       0xa8
 .text.StateMachineUdpTxDatagram
                0x9d056028       0xa8 build/default/debug/_ext/427700826/iperf.o

.text.ZCLLEnable
                0x9d0560d0       0xa8
 .text.ZCLLEnable
                0x9d0560d0       0xa8 build/default/debug/_ext/427700826/zero_conf_link_local.o
                0x9d0560d0                ZCLLEnable

.text.WFConfigureLowPowerMode
                0x9d056178       0xa8
 .text.WFConfigureLowPowerMode
                0x9d056178       0xa8 build/default/debug/_ext/334706090/wf_power_save.o
                0x9d056178                WFConfigureLowPowerMode

.text.WF_OutputConnectionDebugMsg
                0x9d056220       0xa8
 .text.WF_OutputConnectionDebugMsg
                0x9d056220       0xa8 build/default/debug/_ext/334706090/wf_debug_output.o
                0x9d056220                WF_OutputConnectionDebugMsg

.text.EthClose  0x9d0562c8       0xa8
 .text.EthClose
                0x9d0562c8       0xa8 c:/program files/microchip/xc32/v1.21/bin/../lib/gcc/pic32mx/4.5.2/../../../../pic32mx/lib/size\libmchp_peripheral_32MX795F512L.a(eth_close_lib.o)
                0x9d0562c8                EthClose

.text           0x9d056370       0xa8
 .text          0x9d056370       0xa8 c:/program files/microchip/xc32/v1.21/bin/../lib/gcc/pic32mx/4.5.2/../../../../pic32mx/lib/size\libpic32.a(memset.o)
                0x9d056370                memset

.text._Validate
                0x9d056418       0xa4
 .text._Validate
                0x9d056418       0xa4 build/default/debug/_ext/97638081/mpfs2.o

.text.DNSResolve
                0x9d0564bc       0xa4
 .text.DNSResolve
                0x9d0564bc       0xa4 build/default/debug/_ext/427700826/dns.o
                0x9d0564bc                DNSResolve

.text._ICMPAllocateTxPacketStruct
                0x9d056560       0xa4
 .text._ICMPAllocateTxPacketStruct
                0x9d056560       0xa4 build/default/debug/_ext/427700826/icmp.o

.text.TCPIP_IPV4_DeInitialize
                0x9d056604       0xa4
 .text.TCPIP_IPV4_DeInitialize
                0x9d056604       0xa4 build/default/debug/_ext/427700826/ipv4.o
                0x9d056604                TCPIP_IPV4_DeInitialize

.text.RSADeInit
                0x9d0566a8       0xa4
 .text.RSADeInit
                0x9d0566a8       0xa4 build/default/debug/_ext/427700826/rsa.o
                0x9d0566a8                RSADeInit

.text.TCPRequestSSLMessage
                0x9d05674c       0xa4
 .text.TCPRequestSSLMessage
                0x9d05674c       0xa4 build/default/debug/_ext/427700826/tcp.o
                0x9d05674c                TCPRequestSSLMessage

.text._TCPIPStackNetByAddress
                0x9d0567f0       0xa4
 .text._TCPIPStackNetByAddress
                0x9d0567f0       0xa4 build/default/debug/_ext/427700826/tcpip_manager.o
                0x9d0567f0                _TCPIPStackNetByAddress

.text.StateMachineUdpRxDrain
                0x9d056894       0xa4
 .text.StateMachineUdpRxDrain
                0x9d056894       0xa4 build/default/debug/_ext/427700826/iperf.o

.text.WF_ReconnectModeSet
                0x9d056938       0xa4
 .text.WF_ReconnectModeSet
                0x9d056938       0xa4 build/default/debug/_ext/334706090/wf_connection_algorithm.o
                0x9d056938                WF_ReconnectModeSet

.text.WF_LibInitialize
                0x9d0569dc       0xa4
 .text.WF_LibInitialize
                0x9d0569dc       0xa4 build/default/debug/_ext/334706090/wf_init.o
                0x9d0569dc                WF_LibInitialize

.text.HTTPPrint_hellomsg
                0x9d056a80       0xa4
 .text.HTTPPrint_hellomsg
                0x9d056a80       0xa4 build/default/debug/_ext/1472/custom_http_app.o
                0x9d056a80                HTTPPrint_hellomsg

.text.strtok    0x9d056b24       0xa4
 .text.strtok   0x9d056b24       0xa4 c:/program files/microchip/xc32/v1.21/bin/../lib/gcc/pic32mx/4.5.2/../../../../pic32mx/lib/size\libc.a(strtok.o)
                0x9d056b24                strtok

.text._sbrk     0x9d056bc8       0xa4
 .text._sbrk    0x9d056bc8       0xa4 c:/program files/microchip/xc32/v1.21/bin/../lib/gcc/pic32mx/4.5.2/../../../../pic32mx/lib/size\libpic32.a(sbrk.o)
                0x9d056bc8                _sbrk

.text.USART_GETS
                0x9d056c6c       0xa0
 .text.USART_GETS
                0x9d056c6c       0xa0 build/default/debug/_ext/792872985/usart.o
                0x9d056c6c                USART_GETS

.text._DHCPDiscard
                0x9d056d0c       0xa0
 .text._DHCPDiscard
                0x9d056d0c       0xa0 build/default/debug/_ext/427700826/dhcp.o

.text._DHCPNotifyClients
                0x9d056dac       0xa0
 .text._DHCPNotifyClients
                0x9d056dac       0xa0 build/default/debug/_ext/427700826/dhcp.o

.text.PIC32MACDeinitialize
                0x9d056e4c       0xa0
 .text.PIC32MACDeinitialize
                0x9d056e4c       0xa0 build/default/debug/_ext/427700826/eth_pic32_int_mac.o
                0x9d056e4c                PIC32MACDeinitialize

.text._UdpSocketDcpt
                0x9d056eec       0xa0
 .text._UdpSocketDcpt
                0x9d056eec       0xa0 build/default/debug/_ext/427700826/udp.o

.text.HTTPPrint_builddate
                0x9d056f8c       0xa0
 .text.HTTPPrint_builddate
                0x9d056f8c       0xa0 build/default/debug/_ext/1472/custom_http_app.o
                0x9d056f8c                HTTPPrint_builddate

.text._EthTxSchedBuffer
                0x9d05702c       0xa0
 .text._EthTxSchedBuffer
                0x9d05702c       0xa0 c:/program files/microchip/xc32/v1.21/bin/../lib/gcc/pic32mx/4.5.2/../../../../pic32mx/lib/size\libmchp_peripheral_32MX795F512L.a(eth_tx_packet_lib.o)

.rodata         0x9d0570cc       0xa0
 .rodata        0x9d0570cc       0xa0 c:/program files/microchip/xc32/v1.21/bin/../lib/gcc/pic32mx/4.5.2/../../../../pic32mx/lib/size\libmchp_peripheral_32MX795F512L.a(spi_io_tbl_libp.o)
                0x9d0570cc                _SpiIoTbl

.text.BigIntSwapEndianness
                0x9d05716c       0x9c
 .text.BigIntSwapEndianness
                0x9d05716c       0x9c build/default/debug/_ext/101875047/big_int.o
                0x9d05716c                BigIntSwapEndianness

.text.strupr    0x9d057208       0x9c
 .text.strupr   0x9d057208       0x9c build/default/debug/_ext/101875047/helpers.o
                0x9d057208                strupr

.text.ANNOUNCE_Notify
                0x9d0572a4       0x9c
 .text.ANNOUNCE_Notify
                0x9d0572a4       0x9c build/default/debug/_ext/427700826/tcpip_announce.o

.text.DHCPRegisterHandler
                0x9d057340       0x9c
 .text.DHCPRegisterHandler
                0x9d057340       0x9c build/default/debug/_ext/427700826/dhcp.o
                0x9d057340                DHCPRegisterHandler

.text._MacCallocCallback
                0x9d0573dc       0x9c
 .text._MacCallocCallback
                0x9d0573dc       0x9c build/default/debug/_ext/427700826/eth_pic32_int_mac.o

.text.SMTPPutString
                0x9d057478       0x9c
 .text.SMTPPutString
                0x9d057478       0x9c build/default/debug/_ext/427700826/smtp.o
                0x9d057478                SMTPPutString

.text._TcpSocketKill
                0x9d057514       0x9c
 .text._TcpSocketKill
                0x9d057514       0x9c build/default/debug/_ext/427700826/tcp.o

.text.TCPIsAvailablePort
                0x9d0575b0       0x9c
 .text.TCPIsAvailablePort
                0x9d0575b0       0x9c build/default/debug/_ext/427700826/tcp.o

.text.UdpIsAvailablePort
                0x9d05764c       0x9c
 .text.UdpIsAvailablePort
                0x9d05764c       0x9c build/default/debug/_ext/427700826/udp.o

.text._TCPIPStackMacIdToNet
                0x9d0576e8       0x9c
 .text._TCPIPStackMacIdToNet
                0x9d0576e8       0x9c build/default/debug/_ext/427700826/tcpip_manager.o
                0x9d0576e8                _TCPIPStackMacIdToNet

.text.SingleListRemoveHead
                0x9d057784       0x9c
 .text.SingleListRemoveHead
                0x9d057784       0x9c build/default/debug/_ext/427700826/tcpip_helpers.o
                0x9d057784                SingleListRemoveHead

.text.SetWpsSecurity
                0x9d057820       0x9c
 .text.SetWpsSecurity
                0x9d057820       0x9c build/default/debug/_ext/334706090/wf_connect.o

.text.WF_SpiTxRx
                0x9d0578bc       0x9c
 .text.WF_SpiTxRx
                0x9d0578bc       0x9c build/default/debug/_ext/334706090/wf_spi.o
                0x9d0578bc                WF_SpiTxRx

.text.OutputIpAddress
                0x9d057958       0x9c
 .text.OutputIpAddress
                0x9d057958       0x9c build/default/debug/_ext/334706090/wf_debug_output.o

.text.GetSpiPortWithBitBang
                0x9d0579f4       0x9c
 .text.GetSpiPortWithBitBang
                0x9d0579f4       0x9c build/default/debug/_ext/334706090/wf_driver_com_24g.o

.text.HTTPPrint_ddns_status_msg
                0x9d057a90       0x9c
 .text.HTTPPrint_ddns_status_msg
                0x9d057a90       0x9c build/default/debug/_ext/1472/custom_http_app.o
                0x9d057a90                HTTPPrint_ddns_status_msg

.text._SYS_DEBUG_OPEN
                0x9d057b2c       0x98
 .text._SYS_DEBUG_OPEN
                0x9d057b2c       0x98 build/default/debug/_ext/365611741/system_debug.o
                0x9d057b2c                _SYS_DEBUG_OPEN

.text._SYS_ASSERT
                0x9d057bc4       0x98
 .text._SYS_ASSERT
                0x9d057bc4       0x98 build/default/debug/_ext/365611741/system_debug.o
                0x9d057bc4                _SYS_ASSERT

.text._SYS_CONSOLE_OPEN
                0x9d057c5c       0x98
 .text._SYS_CONSOLE_OPEN
                0x9d057c5c       0x98 build/default/debug/_ext/365611741/system_debug.o
                0x9d057c5c                _SYS_CONSOLE_OPEN

.text.PIC32MACFlush
                0x9d057cf4       0x98
 .text.PIC32MACFlush
                0x9d057cf4       0x98 build/default/debug/_ext/427700826/eth_pic32_int_mac.o

.rodata         0x9d057d8c       0x98
 .rodata        0x9d057d8c       0x98 build/default/debug/_ext/427700826/smtp.o

.text.TCPAddSSLListener
                0x9d057e24       0x98
 .text.TCPAddSSLListener
                0x9d057e24       0x98 build/default/debug/_ext/427700826/tcp.o
                0x9d057e24                TCPAddSSLListener

.text.TCPIP_STACK_VerifyPktIf
                0x9d057ebc       0x98
 .text.TCPIP_STACK_VerifyPktIf
                0x9d057ebc       0x98 build/default/debug/_ext/427700826/tcpip_manager.o

.text.WF_ReconnectModeGet
                0x9d057f54       0x98
 .text.WF_ReconnectModeGet
                0x9d057f54       0x98 build/default/debug/_ext/334706090/wf_connection_algorithm.o
                0x9d057f54                WF_ReconnectModeGet

.text.WF_ChannelListGet
                0x9d057fec       0x98
 .text.WF_ChannelListGet
                0x9d057fec       0x98 build/default/debug/_ext/334706090/wf_connection_algorithm.o
                0x9d057fec                WF_ChannelListGet

.text.WF_SsidGet
                0x9d058084       0x98
 .text.WF_SsidGet
                0x9d058084       0x98 build/default/debug/_ext/334706090/wf_connection_profile.o
                0x9d058084                WF_SsidGet

.text           0x9d05811c       0x98
 .text          0x9d05811c       0x98 c:/program files/microchip/xc32/v1.21/bin/../lib/gcc/pic32mx/4.5.2/../../../../pic32mx/lib/size\libpic32.a(memcmp.o)
                0x9d05811c                memcmp

.text.HashAddData
                0x9d0581b4       0x94
 .text.HashAddData
                0x9d0581b4       0x94 build/default/debug/_ext/101875047/hashes.o
                0x9d0581b4                HashAddData

.text.BigIntMultiply
                0x9d058248       0x94
 .text.BigIntMultiply
                0x9d058248       0x94 build/default/debug/_ext/101875047/big_int.o
                0x9d058248                BigIntMultiply

.text.HTTPHeaderParseLookup
                0x9d0582dc       0x94
 .text.HTTPHeaderParseLookup
                0x9d0582dc       0x94 build/default/debug/_ext/427700826/http2.o

.text.TCPWasReset
                0x9d058370       0x94
 .text.TCPWasReset
                0x9d058370       0x94 build/default/debug/_ext/427700826/tcp.o
                0x9d058370                TCPWasReset

.text.TCP_PutArray
                0x9d058404       0x94
 .text.TCP_PutArray
                0x9d058404       0x94 build/default/debug/_ext/427700826/tcp.o

.text.TelnetInit
                0x9d058498       0x94
 .text.TelnetInit
                0x9d058498       0x94 build/default/debug/_ext/427700826/telnet.o
                0x9d058498                TelnetInit

.text.SingleListAddTail
                0x9d05852c       0x94
 .text.SingleListAddTail
                0x9d05852c       0x94 build/default/debug/_ext/427700826/tcpip_helpers.o
                0x9d05852c                SingleListAddTail

.rodata         0x9d0585c0       0x94
 .rodata        0x9d0585c0       0x94 build/default/debug/_ext/427700826/zero_conf_multicast_dns.o

.text.LowLevel_CPSetElement
                0x9d058654       0x94
 .text.LowLevel_CPSetElement
                0x9d058654       0x94 build/default/debug/_ext/334706090/wf_connection_profile.o

.text.MRF24W_SetUserEvents
                0x9d0586e8       0x94
 .text.MRF24W_SetUserEvents
                0x9d0586e8       0x94 build/default/debug/_ext/334706090/mrf24w_events.o
                0x9d0586e8                MRF24W_SetUserEvents

.text.RawMountRxBuffer
                0x9d05877c       0x94
 .text.RawMountRxBuffer
                0x9d05877c       0x94 build/default/debug/_ext/334706090/wf_driver_raw_24g.o
                0x9d05877c                RawMountRxBuffer

.text.MRF24W_MACCalcRxChecksum
                0x9d058810       0x94
 .text.MRF24W_MACCalcRxChecksum
                0x9d058810       0x94 build/default/debug/_ext/334706090/wf_mac_24g.o
                0x9d058810                MRF24W_MACCalcRxChecksum

.text.EthDescriptorsPoolCleanUp
                0x9d0588a4       0x94
 .text.EthDescriptorsPoolCleanUp
                0x9d0588a4       0x94 c:/program files/microchip/xc32/v1.21/bin/../lib/gcc/pic32mx/4.5.2/../../../../pic32mx/lib/size\libmchp_peripheral_32MX795F512L.a(eth_descriptors_remove_lib.o)
                0x9d0588a4                EthDescriptorsPoolCleanUp

.text.USART_PRINT
                0x9d058938       0x90
 .text.USART_PRINT
                0x9d058938       0x90 build/default/debug/_ext/792872985/usart.o
                0x9d058938                USART_PRINT

.text._HttpCleanup
                0x9d0589c8       0x90
 .text._HttpCleanup
                0x9d0589c8       0x90 build/default/debug/_ext/427700826/http2.o

.text.TCPIP_IPV4_FreePacketData
                0x9d058a58       0x90
 .text.TCPIP_IPV4_FreePacketData
                0x9d058a58       0x90 build/default/debug/_ext/427700826/ipv4.o
                0x9d058a58                TCPIP_IPV4_FreePacketData

.text.NBNSDeInit
                0x9d058ae8       0x90
 .text.NBNSDeInit
                0x9d058ae8       0x90 build/default/debug/_ext/427700826/nbns.o
                0x9d058ae8                NBNSDeInit

.text.TCPDiscard
                0x9d058b78       0x90
 .text.TCPDiscard
                0x9d058b78       0x90 build/default/debug/_ext/427700826/tcp.o
                0x9d058b78                TCPDiscard

.text.TCP_SetPayload
                0x9d058c08       0x90
 .text.TCP_SetPayload
                0x9d058c08       0x90 build/default/debug/_ext/427700826/tcp.o

.text._TCPIPStackIsNetBcastAddress
                0x9d058c98       0x90
 .text._TCPIPStackIsNetBcastAddress
                0x9d058c98       0x90 build/default/debug/_ext/427700826/tcpip_manager.o
                0x9d058c98                _TCPIPStackIsNetBcastAddress

.text.ARPAction
                0x9d058d28       0x90
 .text.ARPAction
                0x9d058d28       0x90 build/default/debug/_ext/427700826/zero_conf_link_local.o
                0x9d058d28                ARPAction

.text.ZCLLDisable
                0x9d058db8       0x90
 .text.ZCLLDisable
                0x9d058db8       0x90 build/default/debug/_ext/427700826/zero_conf_link_local.o
                0x9d058db8                ZCLLDisable

.text.WF_EintInit
                0x9d058e48       0x90
 .text.WF_EintInit
                0x9d058e48       0x90 build/default/debug/_ext/334706090/wf_eint.o
                0x9d058e48                WF_EintInit

.text.OutputSsid
                0x9d058ed8       0x90
 .text.OutputSsid
                0x9d058ed8       0x90 build/default/debug/_ext/334706090/wf_debug_output.o

.text.ReadWFArray
                0x9d058f68       0x90
 .text.ReadWFArray
                0x9d058f68       0x90 build/default/debug/_ext/334706090/wf_driver_com_24g.o
                0x9d058f68                ReadWFArray

.text.SendGetParamMsg
                0x9d058ff8       0x90
 .text.SendGetParamMsg
                0x9d058ff8       0x90 build/default/debug/_ext/334706090/wf_param_msg_24g.o
                0x9d058ff8                SendGetParamMsg

.text.atol      0x9d059088       0x90
 .text.atol     0x9d059088       0x90 c:/program files/microchip/xc32/v1.21/bin/../lib/gcc/pic32mx/4.5.2/../../../../pic32mx/lib/size\libc.a(atol.o)
                0x9d059088                atol

.text.HTTPReadPostName
                0x9d059118       0x8c
 .text.HTTPReadPostName
                0x9d059118       0x8c build/default/debug/_ext/427700826/http2.o
                0x9d059118                HTTPReadPostName

.text.SwapARPPacket
                0x9d0591a4       0x8c
 .text.SwapARPPacket
                0x9d0591a4       0x8c build/default/debug/_ext/427700826/arp.o

.text.DHCPDisable
                0x9d059230       0x8c
 .text.DHCPDisable
                0x9d059230       0x8c build/default/debug/_ext/427700826/dhcp.o
                0x9d059230                DHCPDisable

.text.DNSClientInit
                0x9d0592bc       0x8c
 .text.DNSClientInit
                0x9d0592bc       0x8c build/default/debug/_ext/427700826/dns.o
                0x9d0592bc                DNSClientInit

.text.PIC32MACDiscardRx
                0x9d059348       0x8c
 .text.PIC32MACDiscardRx
                0x9d059348       0x8c build/default/debug/_ext/427700826/eth_pic32_int_mac.o

.text.SwapIPV4Header
                0x9d0593d4       0x8c
 .text.SwapIPV4Header
                0x9d0593d4       0x8c build/default/debug/_ext/427700826/ipv4.o

.text.SMTPBeginUsage
                0x9d059460       0x8c
 .text.SMTPBeginUsage
                0x9d059460       0x8c build/default/debug/_ext/427700826/smtp.o
                0x9d059460                SMTPBeginUsage

.text.SSLDeInit
                0x9d0594ec       0x8c
 .text.SSLDeInit
                0x9d0594ec       0x8c build/default/debug/_ext/427700826/ssl.o
                0x9d0594ec                SSLDeInit

.text.HSPutWord
                0x9d059578       0x8c
 .text.HSPutWord
                0x9d059578       0x8c build/default/debug/_ext/427700826/ssl.o

.text.UDPFlush  0x9d059604       0x8c
 .text.UDPFlush
                0x9d059604       0x8c build/default/debug/_ext/427700826/udp.o
                0x9d059604                UDPFlush

.text.UDPRemoteBind
                0x9d059690       0x8c
 .text.UDPRemoteBind
                0x9d059690       0x8c build/default/debug/_ext/427700826/udp.o
                0x9d059690                UDPRemoteBind

.text.TCPIP_STACK_SetNetBIOSName
                0x9d05971c       0x8c
 .text.TCPIP_STACK_SetNetBIOSName
                0x9d05971c       0x8c build/default/debug/_ext/427700826/tcpip_manager.o
                0x9d05971c                TCPIP_STACK_SetNetBIOSName

.text._TCPIPStackMACIdToString
                0x9d0597a8       0x8c
 .text._TCPIPStackMACIdToString
                0x9d0597a8       0x8c build/default/debug/_ext/427700826/tcpip_manager.o
                0x9d0597a8                _TCPIPStackMACIdToString

.text.mDNSFetch
                0x9d059834       0x8c
 .text.mDNSFetch
                0x9d059834       0x8c build/default/debug/_ext/427700826/zero_conf_multicast_dns.o

.text.LowLevel_CASetElement
                0x9d0598c0       0x8c
 .text.LowLevel_CASetElement
                0x9d0598c0       0x8c build/default/debug/_ext/334706090/wf_connection_algorithm.o

.text.WF_Disconnect
                0x9d05994c       0x8c
 .text.WF_Disconnect
                0x9d05994c       0x8c build/default/debug/_ext/334706090/wf_connection_manager.o
                0x9d05994c                WF_Disconnect

.text.HTTPNeedsAuth
                0x9d0599d8       0x8c
 .text.HTTPNeedsAuth
                0x9d0599d8       0x8c build/default/debug/_ext/1472/custom_http_app.o
                0x9d0599d8                HTTPNeedsAuth

.text.HTTPPrint_status_ok
                0x9d059a64       0x8c
 .text.HTTPPrint_status_ok
                0x9d059a64       0x8c build/default/debug/_ext/1472/custom_http_app.o
                0x9d059a64                HTTPPrint_status_ok

.text.HTTPPrint_status_fail
                0x9d059af0       0x8c
 .text.HTTPPrint_status_fail
                0x9d059af0       0x8c build/default/debug/_ext/1472/custom_http_app.o
                0x9d059af0                HTTPPrint_status_fail

.text.write     0x9d059b7c       0x8c
 .text.write    0x9d059b7c       0x8c c:/program files/microchip/xc32/v1.21/bin/../lib/gcc/pic32mx/4.5.2/../../../../pic32mx/lib/size\libpic32.a(write.o)
                0x9d059b7c                write

.text.SHA1Initialize
                0x9d059c08       0x88
 .text.SHA1Initialize
                0x9d059c08       0x88 build/default/debug/_ext/101875047/hashes.o
                0x9d059c08                SHA1Initialize

.text._SysGetCDevEntry
                0x9d059c90       0x88
 .text._SysGetCDevEntry
                0x9d059c90       0x88 build/default/debug/_ext/365611741/system_debug.o

.text.DHCPDeInit
                0x9d059d18       0x88
 .text.DHCPDeInit
                0x9d059d18       0x88 build/default/debug/_ext/427700826/dhcp.o
                0x9d059d18                DHCPDeInit

.text.PIC32MACGetArray
                0x9d059da0       0x88
 .text.PIC32MACGetArray
                0x9d059da0       0x88 build/default/debug/_ext/427700826/eth_pic32_int_mac.o

.text._MacFreeCallback
                0x9d059e28       0x88
 .text._MacFreeCallback
                0x9d059e28       0x88 build/default/debug/_ext/427700826/eth_pic32_int_mac.o

.text.TCP_IsTxPutReady
                0x9d059eb0       0x88
 .text.TCP_IsTxPutReady
                0x9d059eb0       0x88 build/default/debug/_ext/427700826/tcp.o

.text.TCP_PutHeader
                0x9d059f38       0x88
 .text.TCP_PutHeader
                0x9d059f38       0x88 build/default/debug/_ext/427700826/tcp.o

.text._TCPIPStackIpAddToNet
                0x9d059fc0       0x88
 .text._TCPIPStackIpAddToNet
                0x9d059fc0       0x88 build/default/debug/_ext/427700826/tcpip_manager.o
                0x9d059fc0                _TCPIPStackIpAddToNet

.text._TCPIPStackMacToNet
                0x9d05a048       0x88
 .text._TCPIPStackMacToNet
                0x9d05a048       0x88 build/default/debug/_ext/427700826/tcpip_manager.o
                0x9d05a048                _TCPIPStackMacToNet

.text.TCPIP_STACK_NetBcastAddress
                0x9d05a0d0       0x88
 .text.TCPIP_STACK_NetBcastAddress
                0x9d05a0d0       0x88 build/default/debug/_ext/427700826/tcpip_manager.o
                0x9d05a0d0                TCPIP_STACK_NetBcastAddress

.text.TcpipStackFindMacModule
                0x9d05a158       0x88
 .text.TcpipStackFindMacModule
                0x9d05a158       0x88 build/default/debug/_ext/427700826/tcpip_manager.o

.text.mDNSDeinitialize
                0x9d05a1e0       0x88
 .text.mDNSDeinitialize
                0x9d05a1e0       0x88 build/default/debug/_ext/427700826/zero_conf_multicast_dns.o
                0x9d05a1e0                mDNSDeinitialize

.text.Read16BitWFRegister
                0x9d05a268       0x88
 .text.Read16BitWFRegister
                0x9d05a268       0x88 build/default/debug/_ext/334706090/wf_driver_com_24g.o
                0x9d05a268                Read16BitWFRegister

.text.Write16BitWFRegister
                0x9d05a2f0       0x88
 .text.Write16BitWFRegister
                0x9d05a2f0       0x88 build/default/debug/_ext/334706090/wf_driver_com_24g.o
                0x9d05a2f0                Write16BitWFRegister

.text.WriteWFArray
                0x9d05a378       0x88
 .text.WriteWFArray
                0x9d05a378       0x88 build/default/debug/_ext/334706090/wf_driver_com_24g.o
                0x9d05a378                WriteWFArray

.text.WF_RtsThresholdSet
                0x9d05a400       0x88
 .text.WF_RtsThresholdSet
                0x9d05a400       0x88 build/default/debug/_ext/334706090/wf_param_msg_24g.o
                0x9d05a400                WF_RtsThresholdSet

.text.SendSetParamMsg
                0x9d05a488       0x88
 .text.SendSetParamMsg
                0x9d05a488       0x88 build/default/debug/_ext/334706090/wf_param_msg_24g.o
                0x9d05a488                SendSetParamMsg

.text.LFSRSeedRand
                0x9d05a510       0x84
 .text.LFSRSeedRand
                0x9d05a510       0x84 build/default/debug/_ext/101875047/lfsr.o
                0x9d05a510                LFSRSeedRand

.text._SYS_CONSOLE_PRINT
                0x9d05a594       0x84
 .text._SYS_CONSOLE_PRINT
                0x9d05a594       0x84 build/default/debug/_ext/365611741/system_debug.o
                0x9d05a594                _SYS_CONSOLE_PRINT

.text.SYS_RANDOM_GET
                0x9d05a618       0x84
 .text.SYS_RANDOM_GET
                0x9d05a618       0x84 build/default/debug/_ext/365611741/system_random.o
                0x9d05a618                SYS_RANDOM_GET

.text.DRV_MEDIA_ReadSetOffset
                0x9d05a69c       0x84
 .text.DRV_MEDIA_ReadSetOffset
                0x9d05a69c       0x84 build/default/debug/_ext/792872985/drv_media.o
                0x9d05a69c                DRV_MEDIA_ReadSetOffset

.text.EthPhyGetLinkStatus
                0x9d05a720       0x84
 .text.EthPhyGetLinkStatus
                0x9d05a720       0x84 build/default/debug/_ext/427700826/eth_pic32_ext_phy.o
                0x9d05a720                EthPhyGetLinkStatus

.text.OAHashInit
                0x9d05a7a4       0x84
 .text.OAHashInit
                0x9d05a7a4       0x84 build/default/debug/_ext/427700826/hash_tbl.o
                0x9d05a7a4                OAHashInit

.text.SSLMACAdd
                0x9d05a828       0x84
 .text.SSLMACAdd
                0x9d05a828       0x84 build/default/debug/_ext/427700826/ssl.o
                0x9d05a828                SSLMACAdd

.text._TCPIP_HEAP_Calloc
                0x9d05a8ac       0x84
 .text._TCPIP_HEAP_Calloc
                0x9d05a8ac       0x84 build/default/debug/_ext/427700826/tcpip_heap_alloc.o
                0x9d05a8ac                _TCPIP_HEAP_Calloc

.text.TcpipStackFindModuleData
                0x9d05a930       0x84
 .text.TcpipStackFindModuleData
                0x9d05a930       0x84 build/default/debug/_ext/427700826/tcpip_manager.o

.text.ZeroconfLLDeinitialize
                0x9d05a9b4       0x84
 .text.ZeroconfLLDeinitialize
                0x9d05a9b4       0x84 build/default/debug/_ext/427700826/zero_conf_link_local.o
                0x9d05a9b4                ZeroconfLLDeinitialize

.text.WF_AdhocContextSet
                0x9d05aa38       0x84
 .text.WF_AdhocContextSet
                0x9d05aa38       0x84 build/default/debug/_ext/334706090/wf_connection_algorithm.o
                0x9d05aa38                WF_AdhocContextSet

.text.mrf24w_MACPowerMode
                0x9d05aabc       0x84
 .text.mrf24w_MACPowerMode
                0x9d05aabc       0x84 build/default/debug/_ext/334706090/mrf24w_mac_pic32.o

.text.MRF24W_ISR
                0x9d05ab40       0x84
 .text.MRF24W_ISR
                0x9d05ab40       0x84 build/default/debug/_ext/334706090/mrf24w_events.o
                0x9d05ab40                MRF24W_ISR

.rodata         0x9d05abc4       0x84
 .rodata        0x9d05abc4       0x84 build/default/debug/_ext/334706090/wf_driver_raw_24g.o
                0x9d05ac04                g_RawAccessOutOfBoundsMask

.text.HTTPCheckAuth
                0x9d05ac48       0x84
 .text.HTTPCheckAuth
                0x9d05ac48       0x84 build/default/debug/_ext/1472/custom_http_app.o
                0x9d05ac48                HTTPCheckAuth

.text._EthTxSchedList
                0x9d05accc       0x84
 .text._EthTxSchedList
                0x9d05accc       0x84 c:/program files/microchip/xc32/v1.21/bin/../lib/gcc/pic32mx/4.5.2/../../../../pic32mx/lib/size\libmchp_peripheral_32MX795F512L.a(eth_tx_packet_lib.o)

.text.atoi      0x9d05ad50       0x84
 .text.atoi     0x9d05ad50       0x84 c:/program files/microchip/xc32/v1.21/bin/../lib/gcc/pic32mx/4.5.2/../../../../pic32mx/lib/size\libc.a(atoi.o)
                0x9d05ad50                atoi

.text.EthPhyRestartNegotiation
                0x9d05add4       0x80
 .text.EthPhyRestartNegotiation
                0x9d05add4       0x80 build/default/debug/_ext/427700826/eth_pic32_ext_phy.o
                0x9d05add4                EthPhyRestartNegotiation

.text.TCPIP_IPV4_FlushDataSegments
                0x9d05ae54       0x80
 .text.TCPIP_IPV4_FlushDataSegments
                0x9d05ae54       0x80 build/default/debug/_ext/427700826/ipv4.o
                0x9d05ae54                TCPIP_IPV4_FlushDataSegments

.text.TCPDisconnect
                0x9d05aed4       0x80
 .text.TCPDisconnect
                0x9d05aed4       0x80 build/default/debug/_ext/427700826/tcp.o
                0x9d05aed4                TCPDisconnect

.text.TCPSocketSetNet
                0x9d05af54       0x80
 .text.TCPSocketSetNet
                0x9d05af54       0x80 build/default/debug/_ext/427700826/tcp.o
                0x9d05af54                TCPSocketSetNet

.text.TCP_IsTxReady
                0x9d05afd4       0x80
 .text.TCP_IsTxReady
                0x9d05afd4       0x80 build/default/debug/_ext/427700826/tcp.o

.text.TCP_CopyTxPacketStruct
                0x9d05b054       0x80
 .text.TCP_CopyTxPacketStruct
                0x9d05b054       0x80 build/default/debug/_ext/427700826/tcp.o

.text._Udpv4AckFnc
                0x9d05b0d4       0x80
 .text._Udpv4AckFnc
                0x9d05b0d4       0x80 build/default/debug/_ext/427700826/udp.o

.text.TCPIP_STACK_SetNetAddress
                0x9d05b154       0x80
 .text.TCPIP_STACK_SetNetAddress
                0x9d05b154       0x80 build/default/debug/_ext/427700826/tcpip_manager.o
                0x9d05b154                TCPIP_STACK_SetNetAddress

.text.SetWpaSecurity
                0x9d05b1d4       0x80
 .text.SetWpaSecurity
                0x9d05b1d4       0x80 build/default/debug/_ext/334706090/wf_connect.o

.text.ValidateConfig
                0x9d05b254       0x80
 .text.ValidateConfig
                0x9d05b254       0x80 build/default/debug/_ext/334706090/wf_debug_output.o
                0x9d05b254                ValidateConfig

.text.ScratchMount
                0x9d05b2d4       0x80
 .text.ScratchMount
                0x9d05b2d4       0x80 build/default/debug/_ext/334706090/wf_driver_raw_24g.o
                0x9d05b2d4                ScratchMount

.text.ProcessNotification
                0x9d05b354       0x80
 .text.ProcessNotification
                0x9d05b354       0x80 build/default/debug/_ext/1472/main_demo.o

.text._SYS_CMDIO_GET_HANDLE
                0x9d05b3d4       0x7c
 .text._SYS_CMDIO_GET_HANDLE
                0x9d05b3d4       0x7c build/default/debug/_ext/365611741/system_command.o
                0x9d05b3d4                _SYS_CMDIO_GET_HANDLE

.text.SYS_FS_setdefdir
                0x9d05b450       0x7c
 .text.SYS_FS_setdefdir
                0x9d05b450       0x7c build/default/debug/_ext/97638081/sys_fs.o
                0x9d05b450                SYS_FS_setdefdir

.text.RSASetN   0x9d05b4cc       0x7c
 .text.RSASetN  0x9d05b4cc       0x7c build/default/debug/_ext/427700826/rsa.o
                0x9d05b4cc                RSASetN

.text.SSLRSAOperation
                0x9d05b548       0x7c
 .text.SSLRSAOperation
                0x9d05b548       0x7c build/default/debug/_ext/427700826/ssl.o

.text.TCPFind   0x9d05b5c4       0x7c
 .text.TCPFind  0x9d05b5c4       0x7c build/default/debug/_ext/427700826/tcp.o
                0x9d05b5c4                TCPFind

.text.TCP_Flush
                0x9d05b640       0x7c
 .text.TCP_Flush
                0x9d05b640       0x7c build/default/debug/_ext/427700826/tcp.o

.text.TCPIP_STACK_SetNetMacAddress
                0x9d05b6bc       0x7c
 .text.TCPIP_STACK_SetNetMacAddress
                0x9d05b6bc       0x7c build/default/debug/_ext/427700826/tcpip_manager.o
                0x9d05b6bc                TCPIP_STACK_SetNetMacAddress

.text.TCPIPCommandsDeInit
                0x9d05b738       0x7c
 .text.TCPIPCommandsDeInit
                0x9d05b738       0x7c build/default/debug/_ext/427700826/tcpip_commands.o
                0x9d05b738                TCPIPCommandsDeInit

.text._ZCLLDisable
                0x9d05b7b4       0x7c
 .text._ZCLLDisable
                0x9d05b7b4       0x7c build/default/debug/_ext/427700826/zero_conf_link_local.o

.text.MRF24W_MACGetConfig
                0x9d05b830       0x7c
 .text.MRF24W_MACGetConfig
                0x9d05b830       0x7c build/default/debug/_ext/334706090/mrf24w_mac_pic32.o
                0x9d05b830                MRF24W_MACGetConfig

.text.CommandIw_saveConfig
                0x9d05b8ac       0x7c
 .text.CommandIw_saveConfig
                0x9d05b8ac       0x7c build/default/debug/_ext/334706090/wf_commands.o

.text.DeallocateDataRxBuffer
                0x9d05b928       0x7c
 .text.DeallocateDataRxBuffer
                0x9d05b928       0x7c build/default/debug/_ext/334706090/wf_driver_raw_24g.o
                0x9d05b928                DeallocateDataRxBuffer

.text.HTTPPrint_config_dhcpchecked
                0x9d05b9a4       0x7c
 .text.HTTPPrint_config_dhcpchecked
                0x9d05b9a4       0x7c build/default/debug/_ext/1472/custom_http_app.o
                0x9d05b9a4                HTTPPrint_config_dhcpchecked

.text.LFSRRand  0x9d05ba20       0x78
 .text.LFSRRand
                0x9d05ba20       0x78 build/default/debug/_ext/101875047/lfsr.o
                0x9d05ba20                LFSRRand

.text.SYS_TICK_TimerSetRate
                0x9d05ba98       0x78
 .text.SYS_TICK_TimerSetRate
                0x9d05ba98       0x78 build/default/debug/_ext/365611741/system_services.o
                0x9d05ba98                SYS_TICK_TimerSetRate

.text.DHCPDeRegisterHandler
                0x9d05bb10       0x78
 .text.DHCPDeRegisterHandler
                0x9d05bb10       0x78 build/default/debug/_ext/427700826/dhcp.o
                0x9d05bb10                DHCPDeRegisterHandler

.text.DNSClientDeInit
                0x9d05bb88       0x78
 .text.DNSClientDeInit
                0x9d05bb88       0x78 build/default/debug/_ext/427700826/dns.o
                0x9d05bb88                DNSClientDeInit

.rodata         0x9d05bc00       0x78
 .rodata        0x9d05bc00       0x78 build/default/debug/_ext/427700826/eth_pic32_int_mac.o

.text.PIC32MACPutArray
                0x9d05bc78       0x78
 .text.PIC32MACPutArray
                0x9d05bc78       0x78 build/default/debug/_ext/427700826/eth_pic32_int_mac.o

.text.TelnetGETC
                0x9d05bcf0       0x78
 .text.TelnetGETC
                0x9d05bcf0       0x78 build/default/debug/_ext/427700826/telnet.o

.text.SetWepSecurity
                0x9d05bd68       0x78
 .text.SetWepSecurity
                0x9d05bd68       0x78 build/default/debug/_ext/334706090/wf_connect.o

.text.ResetPll  0x9d05bde0       0x78
 .text.ResetPll
                0x9d05bde0       0x78 build/default/debug/_ext/334706090/wf_driver_com_24g.o

.text.SendRAWDataFrame
                0x9d05be58       0x78
 .text.SendRAWDataFrame
                0x9d05be58       0x78 build/default/debug/_ext/334706090/wf_driver_raw_24g.o
                0x9d05be58                SendRAWDataFrame

.text.MRF24W_MACFlush
                0x9d05bed0       0x78
 .text.MRF24W_MACFlush
                0x9d05bed0       0x78 build/default/debug/_ext/334706090/wf_mac_24g.o
                0x9d05bed0                MRF24W_MACFlush

.text.SoftReset
                0x9d05bf48       0x78
 .text.SoftReset
                0x9d05bf48       0x78 c:/program files/microchip/xc32/v1.21/bin/../lib/gcc/pic32mx/4.5.2/../../../../pic32mx/lib/size\libmchp_peripheral_32MX795F512L.a(soft_reset_lib.o)
                0x9d05bf48                SoftReset

.text.rand      0x9d05bfc0       0x78
 .text.rand     0x9d05bfc0       0x78 c:/program files/microchip/xc32/v1.21/bin/../lib/gcc/pic32mx/4.5.2/../../../../pic32mx/lib/size\libc.a(rand.o)
                0x9d05bfc0                rand

.text.strstr    0x9d05c038       0x78
 .text.strstr   0x9d05c038       0x78 c:/program files/microchip/xc32/v1.21/bin/../lib/gcc/pic32mx/4.5.2/../../../../pic32mx/lib/size\libc.a(strstr.o)
                0x9d05c038                strstr

.text.MD5Initialize
                0x9d05c0b0       0x74
 .text.MD5Initialize
                0x9d05c0b0       0x74 build/default/debug/_ext/101875047/hashes.o
                0x9d05c0b0                MD5Initialize

.text.BigIntSquare
                0x9d05c124       0x74
 .text.BigIntSquare
                0x9d05c124       0x74 build/default/debug/_ext/101875047/big_int.o
                0x9d05c124                BigIntSquare

.text.BigIntAdd
                0x9d05c198       0x74
 .text.BigIntAdd
                0x9d05c198       0x74 build/default/debug/_ext/101875047/big_int.o
                0x9d05c198                BigIntAdd

.text.BigIntSubtract
                0x9d05c20c       0x74
 .text.BigIntSubtract
                0x9d05c20c       0x74 build/default/debug/_ext/101875047/big_int.o
                0x9d05c20c                BigIntSubtract

.text.SYS_RANDOM_ADD
                0x9d05c280       0x74
 .text.SYS_RANDOM_ADD
                0x9d05c280       0x74 build/default/debug/_ext/365611741/system_random.o
                0x9d05c280                SYS_RANDOM_ADD

.text.CommandCleanup
                0x9d05c2f4       0x74
 .text.CommandCleanup
                0x9d05c2f4       0x74 build/default/debug/_ext/365611741/system_command.o

.text.SYS_FS_IsLegalDirChar
                0x9d05c368       0x74
 .text.SYS_FS_IsLegalDirChar
                0x9d05c368       0x74 build/default/debug/_ext/97638081/sys_fs.o
                0x9d05c368                SYS_FS_IsLegalDirChar

.text.TCPIP_IPV4_SetTxBuffer
                0x9d05c3dc       0x74
 .text.TCPIP_IPV4_SetTxBuffer
                0x9d05c3dc       0x74 build/default/debug/_ext/427700826/ipv4.o
                0x9d05c3dc                TCPIP_IPV4_SetTxBuffer

.text.HSStart   0x9d05c450       0x74
 .text.HSStart  0x9d05c450       0x74 build/default/debug/_ext/427700826/ssl.o

.text.TCPSSLIsHandshaking
                0x9d05c4c4       0x74
 .text.TCPSSLIsHandshaking
                0x9d05c4c4       0x74 build/default/debug/_ext/427700826/tcp.o
                0x9d05c4c4                TCPSSLIsHandshaking

.text.TCPIsSSL  0x9d05c538       0x74
 .text.TCPIsSSL
                0x9d05c538       0x74 build/default/debug/_ext/427700826/tcp.o
                0x9d05c538                TCPIsSSL

.text.TCP_GetUpperLayerHeaderPtr
                0x9d05c5ac       0x74
 .text.TCP_GetUpperLayerHeaderPtr
                0x9d05c5ac       0x74 build/default/debug/_ext/427700826/tcp.o

.text.TCP_IsPacketQueued
                0x9d05c620       0x74
 .text.TCP_IsPacketQueued
                0x9d05c620       0x74 build/default/debug/_ext/427700826/tcp.o

.text.TCP_ResetTransmitPacketState
                0x9d05c694       0x74
 .text.TCP_ResetTransmitPacketState
                0x9d05c694       0x74 build/default/debug/_ext/427700826/tcp.o

.text._TCPIP_HEAP_FreeDebug
                0x9d05c708       0x74
 .text._TCPIP_HEAP_FreeDebug
                0x9d05c708       0x74 build/default/debug/_ext/427700826/tcpip_heap_alloc.o
                0x9d05c708                _TCPIP_HEAP_FreeDebug

.text.TelnetClose
                0x9d05c77c       0x74
 .text.TelnetClose
                0x9d05c77c       0x74 build/default/debug/_ext/427700826/telnet.o

.text.TelnetPUTC
                0x9d05c7f0       0x74
 .text.TelnetPUTC
                0x9d05c7f0       0x74 build/default/debug/_ext/427700826/telnet.o

.text.TelnetPRINT
                0x9d05c864       0x74
 .text.TelnetPRINT
                0x9d05c864       0x74 build/default/debug/_ext/427700826/telnet.o

.text.UDPIsConnected
                0x9d05c8d8       0x74
 .text.UDPIsConnected
                0x9d05c8d8       0x74 build/default/debug/_ext/427700826/udp.o
                0x9d05c8d8                UDPIsConnected

.text._TCPIPStackIsAddressOfNet
                0x9d05c94c       0x74
 .text._TCPIPStackIsAddressOfNet
                0x9d05c94c       0x74 build/default/debug/_ext/427700826/tcpip_manager.o
                0x9d05c94c                _TCPIPStackIsAddressOfNet

.text.WF_PsPollDisable
                0x9d05c9c0       0x74
 .text.WF_PsPollDisable
                0x9d05c9c0       0x74 build/default/debug/_ext/334706090/wf_power_save.o
                0x9d05c9c0                WF_PsPollDisable

.text.EnsureWFisAwake
                0x9d05ca34       0x74
 .text.EnsureWFisAwake
                0x9d05ca34       0x74 build/default/debug/_ext/334706090/wf_power_save.o
                0x9d05ca34                EnsureWFisAwake

.text.RawRead   0x9d05caa8       0x74
 .text.RawRead  0x9d05caa8       0x74 build/default/debug/_ext/334706090/wf_driver_raw_24g.o
                0x9d05caa8                RawRead

.text.RawWrite  0x9d05cb1c       0x74
 .text.RawWrite
                0x9d05cb1c       0x74 build/default/debug/_ext/334706090/wf_driver_raw_24g.o
                0x9d05cb1c                RawWrite

.text.RawInit   0x9d05cb90       0x74
 .text.RawInit  0x9d05cb90       0x74 build/default/debug/_ext/334706090/wf_mac_24g.o
                0x9d05cb90                RawInit

.text.HTTPPrint_pot
                0x9d05cc04       0x74
 .text.HTTPPrint_pot
                0x9d05cc04       0x74 build/default/debug/_ext/1472/custom_http_app.o
                0x9d05cc04                HTTPPrint_pot

.text.HTTPPrint_config_hostname
                0x9d05cc78       0x74
 .text.HTTPPrint_config_hostname
                0x9d05cc78       0x74 build/default/debug/_ext/1472/custom_http_app.o
                0x9d05cc78                HTTPPrint_config_hostname

.text.BigInt    0x9d05ccec       0x70
 .text.BigInt   0x9d05ccec       0x70 build/default/debug/_ext/101875047/big_int.o
                0x9d05ccec                BigInt

.text.BigIntCopy
                0x9d05cd5c       0x70
 .text.BigIntCopy
                0x9d05cd5c       0x70 build/default/debug/_ext/101875047/big_int.o
                0x9d05cd5c                BigIntCopy

.text.SYS_INT_SourceRestore
                0x9d05cdcc       0x70
 .text.SYS_INT_SourceRestore
                0x9d05cdcc       0x70 build/default/debug/_ext/365611741/system_services.o
                0x9d05cdcc                SYS_INT_SourceRestore

.text._sys_CONSOLE_PRINT
                0x9d05ce3c       0x70
 .text._sys_CONSOLE_PRINT
                0x9d05ce3c       0x70 build/default/debug/_ext/365611741/system_command.o

.text._ARPDeleteCache
                0x9d05ceac       0x70
 .text._ARPDeleteCache
                0x9d05ceac       0x70 build/default/debug/_ext/427700826/arp.o

.text.EthPhyGetHwConfigFlags
                0x9d05cf1c       0x70
 .text.EthPhyGetHwConfigFlags
                0x9d05cf1c       0x70 build/default/debug/_ext/427700826/eth_pic32_ext_phy.o
                0x9d05cf1c                EthPhyGetHwConfigFlags

.text.PIC32MACCalcRxChecksum
                0x9d05cf8c       0x70
 .text.PIC32MACCalcRxChecksum
                0x9d05cf8c       0x70 build/default/debug/_ext/427700826/eth_pic32_int_mac.o

.text.ICMPInitialize
                0x9d05cffc       0x70
 .text.ICMPInitialize
                0x9d05cffc       0x70 build/default/debug/_ext/427700826/icmp.o
                0x9d05cffc                ICMPInitialize

.text.TCPIP_IPV4_SingleListFree
                0x9d05d06c       0x70
 .text.TCPIP_IPV4_SingleListFree
                0x9d05d06c       0x70 build/default/debug/_ext/427700826/ipv4.o
                0x9d05d06c                TCPIP_IPV4_SingleListFree

.text.NBNSInit  0x9d05d0dc       0x70
 .text.NBNSInit
                0x9d05d0dc       0x70 build/default/debug/_ext/427700826/nbns.o
                0x9d05d0dc                NBNSInit

.text.RSAEndUsage
                0x9d05d14c       0x70
 .text.RSAEndUsage
                0x9d05d14c       0x70 build/default/debug/_ext/427700826/rsa.o
                0x9d05d14c                RSAEndUsage

.text.TCPPutString
                0x9d05d1bc       0x70
 .text.TCPPutString
                0x9d05d1bc       0x70 build/default/debug/_ext/427700826/tcp.o
                0x9d05d1bc                TCPPutString

.text.TelnetMSG
                0x9d05d22c       0x70
 .text.TelnetMSG
                0x9d05d22c       0x70 build/default/debug/_ext/427700826/telnet.o

.text.TCPIP_STACK_SetDefaultNet
                0x9d05d29c       0x70
 .text.TCPIP_STACK_SetDefaultNet
                0x9d05d29c       0x70 build/default/debug/_ext/427700826/tcpip_manager.o
                0x9d05d29c                TCPIP_STACK_SetDefaultNet

.text.WF_Connect
                0x9d05d30c       0x70
 .text.WF_Connect
                0x9d05d30c       0x70 build/default/debug/_ext/334706090/wf_connection_manager.o
                0x9d05d30c                WF_Connect

.text.MRF24W_MACOpen
                0x9d05d37c       0x70
 .text.MRF24W_MACOpen
                0x9d05d37c       0x70 build/default/debug/_ext/334706090/mrf24w_mac_pic32.o
                0x9d05d37c                MRF24W_MACOpen

.text.Write8BitWFRegister
                0x9d05d3ec       0x70
 .text.Write8BitWFRegister
                0x9d05d3ec       0x70 build/default/debug/_ext/334706090/wf_driver_com_24g.o
                0x9d05d3ec                Write8BitWFRegister

.text.HTTPPrint_config_ip
                0x9d05d45c       0x70
 .text.HTTPPrint_config_ip
                0x9d05d45c       0x70 build/default/debug/_ext/1472/custom_http_app.o
                0x9d05d45c                HTTPPrint_config_ip

.text.HTTPPrint_config_gw
                0x9d05d4cc       0x70
 .text.HTTPPrint_config_gw
                0x9d05d4cc       0x70 build/default/debug/_ext/1472/custom_http_app.o
                0x9d05d4cc                HTTPPrint_config_gw

.text.HTTPPrint_config_subnet
                0x9d05d53c       0x70
 .text.HTTPPrint_config_subnet
                0x9d05d53c       0x70 build/default/debug/_ext/1472/custom_http_app.o
                0x9d05d53c                HTTPPrint_config_subnet

.text.HTTPPrint_config_dns1
                0x9d05d5ac       0x70
 .text.HTTPPrint_config_dns1
                0x9d05d5ac       0x70 build/default/debug/_ext/1472/custom_http_app.o
                0x9d05d5ac                HTTPPrint_config_dns1

.text.HTTPPrint_config_dns2
                0x9d05d61c       0x70
 .text.HTTPPrint_config_dns2
                0x9d05d61c       0x70 build/default/debug/_ext/1472/custom_http_app.o
                0x9d05d61c                HTTPPrint_config_dns2

.text.CommandReset
                0x9d05d68c       0x6c
 .text.CommandReset
                0x9d05d68c       0x6c build/default/debug/_ext/365611741/system_command.o

.text._ARPRefreshEntry
                0x9d05d6f8       0x6c
 .text._ARPRefreshEntry
                0x9d05d6f8       0x6c build/default/debug/_ext/427700826/arp.o

.text.ARPDeRegisterCallbacks
                0x9d05d764       0x6c
 .text.ARPDeRegisterCallbacks
                0x9d05d764       0x6c build/default/debug/_ext/427700826/arp.o
                0x9d05d764                ARPDeRegisterCallbacks

.text.TCPSSLHandshakeComplete
                0x9d05d7d0       0x6c
 .text.TCPSSLHandshakeComplete
                0x9d05d7d0       0x6c build/default/debug/_ext/427700826/tcp.o
                0x9d05d7d0                TCPSSLHandshakeComplete

.text.TcpClientIpv4RemoteHash
                0x9d05d83c       0x6c
 .text.TcpClientIpv4RemoteHash
                0x9d05d83c       0x6c build/default/debug/_ext/427700826/tcp.o

.text.TCPIP_HEAP_FreeSize
                0x9d05d8a8       0x6c
 .text.TCPIP_HEAP_FreeSize
                0x9d05d8a8       0x6c build/default/debug/_ext/427700826/tcpip_heap_alloc.o
                0x9d05d8a8                TCPIP_HEAP_FreeSize

.text.TCPIP_HEAP_LastError
                0x9d05d914       0x6c
 .text.TCPIP_HEAP_LastError
                0x9d05d914       0x6c build/default/debug/_ext/427700826/tcpip_heap_alloc.o
                0x9d05d914                TCPIP_HEAP_LastError

.rodata         0x9d05d980       0x6c
 .rodata        0x9d05d980       0x6c build/default/debug/_ext/427700826/udp.o

.text.ProcessTCPIPMacGeneric
                0x9d05d9ec       0x6c
 .text.ProcessTCPIPMacGeneric
                0x9d05d9ec       0x6c build/default/debug/_ext/427700826/tcpip_manager.o

.text.TCPIP_STACK_NetGatewayAddress
                0x9d05da58       0x6c
 .text.TCPIP_STACK_NetGatewayAddress
                0x9d05da58       0x6c build/default/debug/_ext/427700826/tcpip_manager.o
                0x9d05da58                TCPIP_STACK_NetGatewayAddress

.text.TCPIP_STACK_NetPriDNSAddress
                0x9d05dac4       0x6c
 .text.TCPIP_STACK_NetPriDNSAddress
                0x9d05dac4       0x6c build/default/debug/_ext/427700826/tcpip_manager.o
                0x9d05dac4                TCPIP_STACK_NetPriDNSAddress

.text.TCPIP_STACK_NetSecondDNSAddress
                0x9d05db30       0x6c
 .text.TCPIP_STACK_NetSecondDNSAddress
                0x9d05db30       0x6c build/default/debug/_ext/427700826/tcpip_manager.o
                0x9d05db30                TCPIP_STACK_NetSecondDNSAddress

.text.TCPIP_STACK_NetBIOSName
                0x9d05db9c       0x6c
 .text.TCPIP_STACK_NetBIOSName
                0x9d05db9c       0x6c build/default/debug/_ext/427700826/tcpip_manager.o
                0x9d05db9c                TCPIP_STACK_NetBIOSName

.text.TCPIP_STACK_FilterRxPkt
                0x9d05dc08       0x6c
 .text.TCPIP_STACK_FilterRxPkt
                0x9d05dc08       0x6c build/default/debug/_ext/427700826/tcpip_manager.o

.text.StateMachineTxStart
                0x9d05dc74       0x6c
 .text.StateMachineTxStart
                0x9d05dc74       0x6c build/default/debug/_ext/427700826/iperf.o

.text.TCPIP_NotificationRemove
                0x9d05dce0       0x6c
 .text.TCPIP_NotificationRemove
                0x9d05dce0       0x6c build/default/debug/_ext/427700826/tcpip_notify.o
                0x9d05dce0                TCPIP_NotificationRemove

.text.SendPowerModeMsg
                0x9d05dd4c       0x6c
 .text.SendPowerModeMsg
                0x9d05dd4c       0x6c build/default/debug/_ext/334706090/wf_power_save.o

.text.WIFICommandsInit
                0x9d05ddb8       0x6c
 .text.WIFICommandsInit
                0x9d05ddb8       0x6c build/default/debug/_ext/334706090/wf_commands.o
                0x9d05ddb8                WIFICommandsInit

.text.Read8BitWFRegister
                0x9d05de24       0x6c
 .text.Read8BitWFRegister
                0x9d05de24       0x6c build/default/debug/_ext/334706090/wf_driver_com_24g.o
                0x9d05de24                Read8BitWFRegister

.text.MRF24W_MACInit
                0x9d05de90       0x6c
 .text.MRF24W_MACInit
                0x9d05de90       0x6c build/default/debug/_ext/334706090/wf_mac_24g.o
                0x9d05de90                MRF24W_MACInit

.text._EthPoolFreeDcptList
                0x9d05defc       0x6c
 .text._EthPoolFreeDcptList
                0x9d05defc       0x6c c:/program files/microchip/xc32/v1.21/bin/../lib/gcc/pic32mx/4.5.2/../../../../pic32mx/lib/size\libmchp_peripheral_32MX795F512L.a(eth_descriptors_remove_lib.o)
                0x9d05defc                _EthPoolFreeDcptList

.text.BigIntZero
                0x9d05df68       0x68
 .text.BigIntZero
                0x9d05df68       0x68 build/default/debug/_ext/101875047/big_int.o
                0x9d05df68                BigIntZero

.text.SYS_USERIO_ButtonGetBitMap
                0x9d05dfd0       0x68
 .text.SYS_USERIO_ButtonGetBitMap
                0x9d05dfd0       0x68 build/default/debug/_ext/365611741/system_userio.o
                0x9d05dfd0                SYS_USERIO_ButtonGetBitMap

.text.MPFSGetPosition
                0x9d05e038       0x68
 .text.MPFSGetPosition
                0x9d05e038       0x68 build/default/debug/_ext/97638081/mpfs2.o
                0x9d05e038                MPFSGetPosition

.text.OAHashGetEntry
                0x9d05e0a0       0x68
 .text.OAHashGetEntry
                0x9d05e0a0       0x68 build/default/debug/_ext/427700826/hash_tbl.o
                0x9d05e0a0                OAHashGetEntry

.text.TCPIP_IPV4_FreePacket
                0x9d05e108       0x68
 .text.TCPIP_IPV4_FreePacket
                0x9d05e108       0x68 build/default/debug/_ext/427700826/ipv4.o
                0x9d05e108                TCPIP_IPV4_FreePacket

.text.RSASetResult
                0x9d05e170       0x68
 .text.RSASetResult
                0x9d05e170       0x68 build/default/debug/_ext/427700826/rsa.o
                0x9d05e170                RSASetResult

.text._TcpSocketBind
                0x9d05e1d8       0x68
 .text._TcpSocketBind
                0x9d05e1d8       0x68 build/default/debug/_ext/427700826/tcp.o

.text._TcpSocketChk
                0x9d05e240       0x68
 .text._TcpSocketChk
                0x9d05e240       0x68 build/default/debug/_ext/427700826/tcp.o

.text._TcpFlush
                0x9d05e2a8       0x68
 .text._TcpFlush
                0x9d05e2a8       0x68 build/default/debug/_ext/427700826/tcp.o

.text.TCPIsGetReady
                0x9d05e310       0x68
 .text.TCPIsGetReady
                0x9d05e310       0x68 build/default/debug/_ext/427700826/tcp.o
                0x9d05e310                TCPIsGetReady

.text.TCPGetRxFIFOFree
                0x9d05e378       0x68
 .text.TCPGetRxFIFOFree
                0x9d05e378       0x68 build/default/debug/_ext/427700826/tcp.o
                0x9d05e378                TCPGetRxFIFOFree

.text.TelnetDATA_RDY
                0x9d05e3e0       0x68
 .text.TelnetDATA_RDY
                0x9d05e3e0       0x68 build/default/debug/_ext/427700826/telnet.o

.text._UdpSocketBind
                0x9d05e448       0x68
 .text._UdpSocketBind
                0x9d05e448       0x68 build/default/debug/_ext/427700826/udp.o

.text.UDPSocketGetNet
                0x9d05e4b0       0x68
 .text.UDPSocketGetNet
                0x9d05e4b0       0x68 build/default/debug/_ext/427700826/udp.o
                0x9d05e4b0                UDPSocketGetNet

.text.MACPutHeader
                0x9d05e518       0x68
 .text.MACPutHeader
                0x9d05e518       0x68 build/default/debug/_ext/427700826/tcpip_mac_object.o
                0x9d05e518                MACPutHeader

.text.TCPIP_STACK_NetName
                0x9d05e580       0x68
 .text.TCPIP_STACK_NetName
                0x9d05e580       0x68 build/default/debug/_ext/427700826/tcpip_manager.o
                0x9d05e580                TCPIP_STACK_NetName

.text.StateMachineTcpRxDone
                0x9d05e5e8       0x68
 .text.StateMachineTcpRxDone
                0x9d05e5e8       0x68 build/default/debug/_ext/427700826/iperf.o

.text.TCPIP_NotificationAdd
                0x9d05e650       0x68
 .text.TCPIP_NotificationAdd
                0x9d05e650       0x68 build/default/debug/_ext/427700826/tcpip_notify.o
                0x9d05e650                TCPIP_NotificationAdd

.text.isDisconnectAllowed
                0x9d05e6b8       0x68
 .text.isDisconnectAllowed
                0x9d05e6b8       0x68 build/default/debug/_ext/334706090/wf_connection_manager.o

.rodata         0x9d05e720       0x68
 .rodata        0x9d05e720       0x68 build/default/debug/_ext/334706090/mrf24w_mac_pic32.o

.text.MRF24W_MACEventDeInit
                0x9d05e788       0x68
 .text.MRF24W_MACEventDeInit
                0x9d05e788       0x68 build/default/debug/_ext/334706090/mrf24w_events.o
                0x9d05e788                MRF24W_MACEventDeInit

.text.CommandIw_eraseConfig
                0x9d05e7f0       0x68
 .text.CommandIw_eraseConfig
                0x9d05e7f0       0x68 build/default/debug/_ext/334706090/wf_commands.o

.text.CommandIw_readConfig
                0x9d05e858       0x68
 .text.CommandIw_readConfig
                0x9d05e858       0x68 build/default/debug/_ext/334706090/wf_commands.o

.text.RawCalculateChecksum
                0x9d05e8c0       0x68
 .text.RawCalculateChecksum
                0x9d05e8c0       0x68 build/default/debug/_ext/334706090/wf_driver_raw_24g.o
                0x9d05e8c0                RawCalculateChecksum

.text.MRF24W_MACPutArray
                0x9d05e928       0x68
 .text.MRF24W_MACPutArray
                0x9d05e928       0x68 build/default/debug/_ext/334706090/wf_mac_24g.o
                0x9d05e928                MRF24W_MACPutArray

.rodata         0x9d05e990       0x68
 .rodata        0x9d05e990       0x68 c:/program files/microchip/xc32/v1.21/bin/../lib/gcc/pic32mx/4.5.2/../../../../pic32mx/lib/size\libc.a(powersf.o)
                0x9d05e990                _powers_f
                0x9d05e9c4                _npowers_f

.text.btohexa_high
                0x9d05e9f8       0x64
 .text.btohexa_high
                0x9d05e9f8       0x64 build/default/debug/_ext/101875047/helpers.o
                0x9d05e9f8                btohexa_high

.text.btohexa_low
                0x9d05ea5c       0x64
 .text.btohexa_low
                0x9d05ea5c       0x64 build/default/debug/_ext/101875047/helpers.o
                0x9d05ea5c                btohexa_low

.text.MPFSClose
                0x9d05eac0       0x64
 .text.MPFSClose
                0x9d05eac0       0x64 build/default/debug/_ext/97638081/mpfs2.o
                0x9d05eac0                MPFSClose

.text.DRV_MEDIA_ReadByte
                0x9d05eb24       0x64
 .text.DRV_MEDIA_ReadByte
                0x9d05eb24       0x64 build/default/debug/_ext/792872985/drv_media.o
                0x9d05eb24                DRV_MEDIA_ReadByte

.text.DHCPIsEnabled
                0x9d05eb88       0x64
 .text.DHCPIsEnabled
                0x9d05eb88       0x64 build/default/debug/_ext/427700826/dhcp.o
                0x9d05eb88                DHCPIsEnabled

.text.TCPIP_IPV4_GetDataSegmentContentsByType
                0x9d05ebec       0x64
 .text.TCPIP_IPV4_GetDataSegmentContentsByType
                0x9d05ebec       0x64 build/default/debug/_ext/427700826/ipv4.o
                0x9d05ebec                TCPIP_IPV4_GetDataSegmentContentsByType

.text.TCPSocketGetNet
                0x9d05ec50       0x64
 .text.TCPSocketGetNet
                0x9d05ec50       0x64 build/default/debug/_ext/427700826/tcp.o
                0x9d05ec50                TCPSocketGetNet

.text._TCPIPStackIsNetLinked
                0x9d05ecb4       0x64
 .text._TCPIPStackIsNetLinked
                0x9d05ecb4       0x64 build/default/debug/_ext/427700826/tcpip_manager.o
                0x9d05ecb4                _TCPIPStackIsNetLinked

.text.TCPIP_NotificationRemoveAll
                0x9d05ed18       0x64
 .text.TCPIP_NotificationRemoveAll
                0x9d05ed18       0x64 build/default/debug/_ext/427700826/tcpip_notify.o
                0x9d05ed18                TCPIP_NotificationRemoveAll

.text.ZCLLIsEnabled
                0x9d05ed7c       0x64
 .text.ZCLLIsEnabled
                0x9d05ed7c       0x64 build/default/debug/_ext/427700826/zero_conf_link_local.o
                0x9d05ed7c                ZCLLIsEnabled

.text.WF_CPCreate
                0x9d05ede0       0x64
 .text.WF_CPCreate
                0x9d05ede0       0x64 build/default/debug/_ext/334706090/wf_connection_profile.o
                0x9d05ede0                WF_CPCreate

.text.MRF24W_MACEventSetNotifyEvents
                0x9d05ee44       0x64
 .text.MRF24W_MACEventSetNotifyEvents
                0x9d05ee44       0x64 build/default/debug/_ext/334706090/mrf24w_events.o
                0x9d05ee44                MRF24W_MACEventSetNotifyEvents

.text.WF_RtsThresholdGet
                0x9d05eea8       0x64
 .text.WF_RtsThresholdGet
                0x9d05eea8       0x64 build/default/debug/_ext/334706090/wf_param_msg_24g.o
                0x9d05eea8                WF_RtsThresholdGet

.text._sprintf_cdnopsuxX
                0x9d05ef0c       0x64
 .text._sprintf_cdnopsuxX
                0x9d05ef0c       0x64 c:/program files/microchip/xc32/v1.21/bin/../lib/gcc/pic32mx/4.5.2/../../../../pic32mx/lib/size\libc.a(sprintf_cdnopsuxX.eo)
                0x9d05ef0c                _sprintf_cdnopuxX
                0x9d05ef0c                _sprintf_cdnopsuxX

.text.SYS_DRIVERS_Initialize
                0x9d05ef70       0x60
 .text.SYS_DRIVERS_Initialize
                0x9d05ef70       0x60 build/default/debug/_ext/365611741/system_services.o
                0x9d05ef70                SYS_DRIVERS_Initialize

.text.USART_PUTC
                0x9d05efd0       0x60
 .text.USART_PUTC
                0x9d05efd0       0x60 build/default/debug/_ext/792872985/usart.o
                0x9d05efd0                USART_PUTC

.text.ICMPDeinitialize
                0x9d05f030       0x60
 .text.ICMPDeinitialize
                0x9d05f030       0x60 build/default/debug/_ext/427700826/icmp.o
                0x9d05f030                ICMPDeinitialize

.text.TCPIP_IPV4_SetRxBuffer
                0x9d05f090       0x60
 .text.TCPIP_IPV4_SetRxBuffer
                0x9d05f090       0x60 build/default/debug/_ext/427700826/ipv4.o
                0x9d05f090                TCPIP_IPV4_SetRxBuffer

.text.TcpSocketGetSSLId
                0x9d05f0f0       0x60
 .text.TcpSocketGetSSLId
                0x9d05f0f0       0x60 build/default/debug/_ext/427700826/tcp.o
                0x9d05f0f0                TcpSocketGetSSLId

.text.TCP_FreePacket
                0x9d05f150       0x60
 .text.TCP_FreePacket
                0x9d05f150       0x60 build/default/debug/_ext/427700826/tcp.o

.text.TCPIP_HEAP_Size
                0x9d05f1b0       0x60
 .text.TCPIP_HEAP_Size
                0x9d05f1b0       0x60 build/default/debug/_ext/427700826/tcpip_heap_alloc.o
                0x9d05f1b0                TCPIP_HEAP_Size

.text.MACCalcRxChecksum
                0x9d05f210       0x60
 .text.MACCalcRxChecksum
                0x9d05f210       0x60 build/default/debug/_ext/427700826/tcpip_mac_object.o
                0x9d05f210                MACCalcRxChecksum

.rodata         0x9d05f270       0x60
 .rodata        0x9d05f270       0x60 build/default/debug/_ext/427700826/tcpip_helpers.o

.text.mDNSResetCounters
                0x9d05f2d0       0x60
 .text.mDNSResetCounters
                0x9d05f2d0       0x60 build/default/debug/_ext/427700826/zero_conf_multicast_dns.o

.text.mDNSAnnounce
                0x9d05f330       0x60
 .text.mDNSAnnounce
                0x9d05f330       0x60 build/default/debug/_ext/427700826/zero_conf_multicast_dns.o

.text.ConfigureSpiMRF24W
                0x9d05f390       0x60
 .text.ConfigureSpiMRF24W
                0x9d05f390       0x60 build/default/debug/_ext/334706090/wf_spi.o

.text.MRF24W_MACDeinitialize
                0x9d05f3f0       0x60
 .text.MRF24W_MACDeinitialize
                0x9d05f3f0       0x60 build/default/debug/_ext/334706090/mrf24w_mac_pic32.o
                0x9d05f3f0                MRF24W_MACDeinitialize

.text.mrf24w_MACSetRXHashTableEntry
                0x9d05f450       0x60
 .text.mrf24w_MACSetRXHashTableEntry
                0x9d05f450       0x60 build/default/debug/_ext/334706090/mrf24w_mac_pic32.o

.text.WiFi_EintTask
                0x9d05f4b0       0x60
 .text.WiFi_EintTask
                0x9d05f4b0       0x60 build/default/debug/_ext/334706090/wf_driver_com_24g.o
                0x9d05f4b0                WiFi_EintTask

.text.HTTPPrint_rebootaddr
                0x9d05f510       0x60
 .text.HTTPPrint_rebootaddr
                0x9d05f510       0x60 build/default/debug/_ext/1472/custom_http_app.o
                0x9d05f510                HTTPPrint_rebootaddr

.text.EthMIIMConfig
                0x9d05f570       0x60
 .text.EthMIIMConfig
                0x9d05f570       0x60 c:/program files/microchip/xc32/v1.21/bin/../lib/gcc/pic32mx/4.5.2/../../../../pic32mx/lib/size\libmchp_peripheral_32MX795F512L.a(eth_miim_access.o)
                0x9d05f570                EthMIIMConfig

.text.strcspn   0x9d05f5d0       0x60
 .text.strcspn  0x9d05f5d0       0x60 c:/program files/microchip/xc32/v1.21/bin/../lib/gcc/pic32mx/4.5.2/../../../../pic32mx/lib/size\libc.a(strcspn.o)
                0x9d05f5d0                strcspn

.text.strspn    0x9d05f630       0x60
 .text.strspn   0x9d05f630       0x60 c:/program files/microchip/xc32/v1.21/bin/../lib/gcc/pic32mx/4.5.2/../../../../pic32mx/lib/size\libc.a(strspn.o)
                0x9d05f630                strspn

.text.SYS_INT_SourceDisable
                0x9d05f690       0x5c
 .text.SYS_INT_SourceDisable
                0x9d05f690       0x5c build/default/debug/_ext/365611741/system_services.o
                0x9d05f690                SYS_INT_SourceDisable

.text.SYS_INT_PrioritySet
                0x9d05f6ec       0x5c
 .text.SYS_INT_PrioritySet
                0x9d05f6ec       0x5c build/default/debug/_ext/365611741/system_services.o
                0x9d05f6ec                SYS_INT_PrioritySet

.text.SYS_INT_SubprioritySet
                0x9d05f748       0x5c
 .text.SYS_INT_SubprioritySet
                0x9d05f748       0x5c build/default/debug/_ext/365611741/system_services.o
                0x9d05f748                SYS_INT_SubprioritySet

.text.MPFSGetLong
                0x9d05f7a4       0x5c
 .text.MPFSGetLong
                0x9d05f7a4       0x5c build/default/debug/_ext/97638081/mpfs2.o
                0x9d05f7a4                MPFSGetLong

.text.ARPProbe  0x9d05f800       0x5c
 .text.ARPProbe
                0x9d05f800       0x5c build/default/debug/_ext/427700826/arp.o
                0x9d05f800                ARPProbe

.text._DHCPCleanup
                0x9d05f85c       0x5c
 .text._DHCPCleanup
                0x9d05f85c       0x5c build/default/debug/_ext/427700826/dhcp.o

.text.PIC32MACCalcIPBufferChecksum
                0x9d05f8b8       0x5c
 .text.PIC32MACCalcIPBufferChecksum
                0x9d05f8b8       0x5c build/default/debug/_ext/427700826/eth_pic32_int_mac.o

.text.OAHashRemoveEntry
                0x9d05f914       0x5c
 .text.OAHashRemoveEntry
                0x9d05f914       0x5c build/default/debug/_ext/427700826/hash_tbl.o
                0x9d05f914                OAHashRemoveEntry

.text.TCPFlush  0x9d05f970       0x5c
 .text.TCPFlush
                0x9d05f970       0x5c build/default/debug/_ext/427700826/tcp.o
                0x9d05f970                TCPFlush

.text.MACGetArray
                0x9d05f9cc       0x5c
 .text.MACGetArray
                0x9d05f9cc       0x5c build/default/debug/_ext/427700826/tcpip_mac_object.o
                0x9d05f9cc                MACGetArray

.text.MACPutArray
                0x9d05fa28       0x5c
 .text.MACPutArray
                0x9d05fa28       0x5c build/default/debug/_ext/427700826/tcpip_mac_object.o
                0x9d05fa28                MACPutArray

.text.MACEventSetNotifyHandler
                0x9d05fa84       0x5c
 .text.MACEventSetNotifyHandler
                0x9d05fa84       0x5c build/default/debug/_ext/427700826/tcpip_mac_object.o
                0x9d05fa84                MACEventSetNotifyHandler

.text.TCPIP_STACK_SetNetGatewayAddress
                0x9d05fae0       0x5c
 .text.TCPIP_STACK_SetNetGatewayAddress
                0x9d05fae0       0x5c build/default/debug/_ext/427700826/tcpip_manager.o
                0x9d05fae0                TCPIP_STACK_SetNetGatewayAddress

.text.TCPIP_STACK_SetNetPriDNSAddress
                0x9d05fb3c       0x5c
 .text.TCPIP_STACK_SetNetPriDNSAddress
                0x9d05fb3c       0x5c build/default/debug/_ext/427700826/tcpip_manager.o
                0x9d05fb3c                TCPIP_STACK_SetNetPriDNSAddress

.text._TCPIPStackNetAddress
                0x9d05fb98       0x5c
 .text._TCPIPStackNetAddress
                0x9d05fb98       0x5c build/default/debug/_ext/427700826/tcpip_manager.o
                0x9d05fb98                _TCPIPStackNetAddress

.text._TCPIPStackNetMask
                0x9d05fbf4       0x5c
 .text._TCPIPStackNetMask
                0x9d05fbf4       0x5c build/default/debug/_ext/427700826/tcpip_manager.o
                0x9d05fbf4                _TCPIPStackNetMask

.text._TCPIPStackNetMacAddress
                0x9d05fc50       0x5c
 .text._TCPIPStackNetMacAddress
                0x9d05fc50       0x5c build/default/debug/_ext/427700826/tcpip_manager.o
                0x9d05fc50                _TCPIPStackNetMacAddress

.text.SetListenInterval
                0x9d05fcac       0x5c
 .text.SetListenInterval
                0x9d05fcac       0x5c build/default/debug/_ext/334706090/wf_connection_algorithm.o
                0x9d05fcac                SetListenInterval

.text.SetDtimInterval
                0x9d05fd08       0x5c
 .text.SetDtimInterval
                0x9d05fd08       0x5c build/default/debug/_ext/334706090/wf_connection_algorithm.o
                0x9d05fd08                SetDtimInterval

.text.WF_SecurityWepSet
                0x9d05fd64       0x5c
 .text.WF_SecurityWepSet
                0x9d05fd64       0x5c build/default/debug/_ext/334706090/wf_connection_profile.o
                0x9d05fd64                WF_SecurityWepSet

.text.WF_SecurityWpaSet
                0x9d05fdc0       0x5c
 .text.WF_SecurityWpaSet
                0x9d05fdc0       0x5c build/default/debug/_ext/334706090/wf_connection_profile.o
                0x9d05fdc0                WF_SecurityWpaSet

.text.WF_SecurityWpsSet
                0x9d05fe1c       0x5c
 .text.WF_SecurityWpsSet
                0x9d05fe1c       0x5c build/default/debug/_ext/334706090/wf_connection_profile.o
                0x9d05fe1c                WF_SecurityWpsSet

.text.WF_EintIsPending
                0x9d05fe78       0x5c
 .text.WF_EintIsPending
                0x9d05fe78       0x5c build/default/debug/_ext/334706090/wf_eint.o
                0x9d05fe78                WF_EintIsPending

.text.mrf24w_MACPutHeader
                0x9d05fed4       0x5c
 .text.mrf24w_MACPutHeader
                0x9d05fed4       0x5c build/default/debug/_ext/334706090/mrf24w_mac_pic32.o

.text.SignalWiFiConnectionChanged
                0x9d05ff30       0x5c
 .text.SignalWiFiConnectionChanged
                0x9d05ff30       0x5c build/default/debug/_ext/334706090/wf_driver_com_24g.o
                0x9d05ff30                SignalWiFiConnectionChanged

.text.MRF24W_MACIsTxReady
                0x9d05ff8c       0x5c
 .text.MRF24W_MACIsTxReady
                0x9d05ff8c       0x5c build/default/debug/_ext/334706090/wf_mac_24g.o
                0x9d05ff8c                MRF24W_MACIsTxReady

.text.BigIntMagnitudeDifference
                0x9d05ffe8       0x58
 .text.BigIntMagnitudeDifference
                0x9d05ffe8       0x58 build/default/debug/_ext/101875047/big_int.o
                0x9d05ffe8                BigIntMagnitudeDifference

.text.SYS_INT_SourceEnable
                0x9d060040       0x58
 .text.SYS_INT_SourceEnable
                0x9d060040       0x58 build/default/debug/_ext/365611741/system_services.o
                0x9d060040                SYS_INT_SourceEnable

.text.USART_OPEN
                0x9d060098       0x58
 .text.USART_OPEN
                0x9d060098       0x58 build/default/debug/_ext/792872985/usart.o
                0x9d060098                USART_OPEN

.text.USART_GETC
                0x9d0600f0       0x58
 .text.USART_GETC
                0x9d0600f0       0x58 build/default/debug/_ext/792872985/usart.o
                0x9d0600f0                USART_GETC

.text.WaitForDataByte
                0x9d060148       0x58
 .text.WaitForDataByte
                0x9d060148       0x58 build/default/debug/_ext/792872985/drv_spi.o

.text.DB_APPIO_PRINT
                0x9d0601a0       0x58
 .text.DB_APPIO_PRINT
                0x9d0601a0       0x58 build/default/debug/_ext/792872985/db_appio.o
                0x9d0601a0                DB_APPIO_PRINT

.text.ARPHashKeyHash
                0x9d0601f8       0x58
 .text.ARPHashKeyHash
                0x9d0601f8       0x58 build/default/debug/_ext/427700826/arp.o
                0x9d0601f8                ARPHashKeyHash

.text._MACDeinit
                0x9d060250       0x58
 .text._MACDeinit
                0x9d060250       0x58 build/default/debug/_ext/427700826/eth_pic32_int_mac.o

.text._TcpipHeapHandleToDcpt
                0x9d0602a8       0x58
 .text._TcpipHeapHandleToDcpt
                0x9d0602a8       0x58 build/default/debug/_ext/427700826/tcpip_heap_alloc.o

.text.TelnetDeregister
                0x9d060300       0x58
 .text.TelnetDeregister
                0x9d060300       0x58 build/default/debug/_ext/427700826/telnet.o

.text.TCPIP_STACK_IxToNet
                0x9d060358       0x58
 .text.TCPIP_STACK_IxToNet
                0x9d060358       0x58 build/default/debug/_ext/427700826/tcpip_manager.o
                0x9d060358                TCPIP_STACK_IxToNet

.text._TCPIPStackIsNetUp
                0x9d0603b0       0x58
 .text._TCPIPStackIsNetUp
                0x9d0603b0       0x58 build/default/debug/_ext/427700826/tcpip_manager.o
                0x9d0603b0                _TCPIPStackIsNetUp

.text.TCPIP_HELPER_PowerModeToString
                0x9d060408       0x58
 .text.TCPIP_HELPER_PowerModeToString
                0x9d060408       0x58 build/default/debug/_ext/427700826/tcpip_helpers.o
                0x9d060408                TCPIP_HELPER_PowerModeToString

.text.StateMachineTcpTxDone
                0x9d060460       0x58
 .text.StateMachineTcpTxDone
                0x9d060460       0x58 build/default/debug/_ext/427700826/iperf.o

.text.WF_NetworkTypeSet
                0x9d0604b8       0x58
 .text.WF_NetworkTypeSet
                0x9d0604b8       0x58 build/default/debug/_ext/334706090/wf_connection_profile.o
                0x9d0604b8                WF_NetworkTypeSet

.text.mrf24w_MACCalcRxChecksum
                0x9d060510       0x58
 .text.mrf24w_MACCalcRxChecksum
                0x9d060510       0x58 build/default/debug/_ext/334706090/mrf24w_mac_pic32.o

.text.MRF24W_MACCalcIPBufferChecksum
                0x9d060568       0x58
 .text.MRF24W_MACCalcIPBufferChecksum
                0x9d060568       0x58 build/default/debug/_ext/334706090/wf_mac_24g.o
                0x9d060568                MRF24W_MACCalcIPBufferChecksum

.text.WF_ConfigDataErase
                0x9d0605c0       0x58
 .text.WF_ConfigDataErase
                0x9d0605c0       0x58 build/default/debug/_ext/334706090/wf_configData.o
                0x9d0605c0                WF_ConfigDataErase

.text.HTTPPrint_ddns_status
                0x9d060618       0x58
 .text.HTTPPrint_ddns_status
                0x9d060618       0x58 build/default/debug/_ext/1472/custom_http_app.o
                0x9d060618                HTTPPrint_ddns_status

.text.HTTPPrint_smtps_en
                0x9d060670       0x58
 .text.HTTPPrint_smtps_en
                0x9d060670       0x58 build/default/debug/_ext/1472/custom_http_app.o
                0x9d060670                HTTPPrint_smtps_en

.text.HTTPPrint_snmp_en
                0x9d0606c8       0x58
 .text.HTTPPrint_snmp_en
                0x9d0606c8       0x58 build/default/debug/_ext/1472/custom_http_app.o
                0x9d0606c8                HTTPPrint_snmp_en

.text.SYS_INT_SourceStatusClear
                0x9d060720       0x54
 .text.SYS_INT_SourceStatusClear
                0x9d060720       0x54 build/default/debug/_ext/365611741/system_services.o
                0x9d060720                SYS_INT_SourceStatusClear

.text._SYS_CONSOLE_PUTC
                0x9d060774       0x54
 .text._SYS_CONSOLE_PUTC
                0x9d060774       0x54 build/default/debug/_ext/365611741/system_debug.o
                0x9d060774                _SYS_CONSOLE_PUTC

.text.DB_APPIO_INIT
                0x9d0607c8       0x54
 .text.DB_APPIO_INIT
                0x9d0607c8       0x54 build/default/debug/_ext/792872985/db_appio.o
                0x9d0607c8                DB_APPIO_INIT

.text._Phy2LinkStat
                0x9d06081c       0x54
 .text._Phy2LinkStat
                0x9d06081c       0x54 build/default/debug/_ext/427700826/eth_pic32_ext_phy.o

.text.PIC32MACGetTxBaseAddr
                0x9d060870       0x54
 .text.PIC32MACGetTxBaseAddr
                0x9d060870       0x54 build/default/debug/_ext/427700826/eth_pic32_int_mac.o

.text._ICMPAckPacket
                0x9d0608c4       0x54
 .text._ICMPAckPacket
                0x9d0608c4       0x54 build/default/debug/_ext/427700826/icmp.o

.text.SMTPIsPutReady
                0x9d060918       0x54
 .text.SMTPIsPutReady
                0x9d060918       0x54 build/default/debug/_ext/427700826/smtp.o
                0x9d060918                SMTPIsPutReady

.text._TcpDiscardTx
                0x9d06096c       0x54
 .text._TcpDiscardTx
                0x9d06096c       0x54 build/default/debug/_ext/427700826/tcp.o

.text.TCPPut    0x9d0609c0       0x54
 .text.TCPPut   0x9d0609c0       0x54 build/default/debug/_ext/427700826/tcp.o
                0x9d0609c0                TCPPut

.text._UdpSocketInit
                0x9d060a14       0x54
 .text._UdpSocketInit
                0x9d060a14       0x54 build/default/debug/_ext/427700826/udp.o

.text.UDPPut    0x9d060a68       0x54
 .text.UDPPut   0x9d060a68       0x54 build/default/debug/_ext/427700826/udp.o
                0x9d060a68                UDPPut

.text.MACGetHeader
                0x9d060abc       0x54
 .text.MACGetHeader
                0x9d060abc       0x54 build/default/debug/_ext/427700826/tcpip_mac_object.o
                0x9d060abc                MACGetHeader

.text.MACSetReadPtrInRx
                0x9d060b10       0x54
 .text.MACSetReadPtrInRx
                0x9d060b10       0x54 build/default/debug/_ext/427700826/tcpip_mac_object.o
                0x9d060b10                MACSetReadPtrInRx

.text.MACCalcIPBufferChecksum
                0x9d060b64       0x54
 .text.MACCalcIPBufferChecksum
                0x9d060b64       0x54 build/default/debug/_ext/427700826/tcpip_mac_object.o
                0x9d060b64                MACCalcIPBufferChecksum

.text.MACSetRXHashTableEntry
                0x9d060bb8       0x54
 .text.MACSetRXHashTableEntry
                0x9d060bb8       0x54 build/default/debug/_ext/427700826/tcpip_mac_object.o
                0x9d060bb8                MACSetRXHashTableEntry

.text.MACEventSetNotifyEvents
                0x9d060c0c       0x54
 .text.MACEventSetNotifyEvents
                0x9d060c0c       0x54 build/default/debug/_ext/427700826/tcpip_mac_object.o
                0x9d060c0c                MACEventSetNotifyEvents

.text.MACEventAck
                0x9d060c60       0x54
 .text.MACEventAck
                0x9d060c60       0x54 build/default/debug/_ext/427700826/tcpip_mac_object.o
                0x9d060c60                MACEventAck

.text._TCPIPStackAddressServiceCanStart
                0x9d060cb4       0x54
 .text._TCPIPStackAddressServiceCanStart
                0x9d060cb4       0x54 build/default/debug/_ext/427700826/tcpip_manager.o
                0x9d060cb4                _TCPIPStackAddressServiceCanStart

.text._TCPIPStackAddressServiceSetDefault
                0x9d060d08       0x54
 .text._TCPIPStackAddressServiceSetDefault
                0x9d060d08       0x54 build/default/debug/_ext/427700826/tcpip_manager.o
                0x9d060d08                _TCPIPStackAddressServiceSetDefault

.text.mrf24w_MACDeinitialize
                0x9d060d5c       0x54
 .text.mrf24w_MACDeinitialize
                0x9d060d5c       0x54 build/default/debug/_ext/334706090/mrf24w_mac_pic32.o

.text.HTTPPrint_version
                0x9d060db0       0x54
 .text.HTTPPrint_version
                0x9d060db0       0x54 build/default/debug/_ext/1472/custom_http_app.o
                0x9d060db0                HTTPPrint_version

.rodata         0x9d060e04       0x54
 .rodata        0x9d060e04       0x54 c:/program files/microchip/xc32/v1.21/bin/../lib/gcc/pic32mx/4.5.2/../../../../pic32mx/lib/size\libmchp_peripheral_32MX795F512L.a(_ports_tbl_libp.o)
                0x9d060e04                PortRegTbl

.text.calloc    0x9d060e58       0x54
 .text.calloc   0x9d060e58       0x54 c:/program files/microchip/xc32/v1.21/bin/../lib/gcc/pic32mx/4.5.2/../../../../pic32mx/lib/size\libc.a(calloc.o)
                0x9d060e58                calloc

.text._vsnprintf_cdnopsuxX
                0x9d060eac       0x54
 .text._vsnprintf_cdnopsuxX
                0x9d060eac       0x54 c:/program files/microchip/xc32/v1.21/bin/../lib/gcc/pic32mx/4.5.2/../../../../pic32mx/lib/size\libc.a(vsnprintf_cdnopsuxX.eo)
                0x9d060eac                _vsnprintf_cdnopsuxX

.text.vsnprintf
                0x9d060f00       0x54
 .text.vsnprintf
                0x9d060f00       0x54 c:/program files/microchip/xc32/v1.21/bin/../lib/gcc/pic32mx/4.5.2/../../../../pic32mx/lib/size\libc.a(vsnprintf.o)
                0x9d060f00                vsnprintf

.text.BigIntMagnitude
                0x9d060f54       0x50
 .text.BigIntMagnitude
                0x9d060f54       0x50 build/default/debug/_ext/101875047/big_int.o
                0x9d060f54                BigIntMagnitude

.rodata         0x9d060fa4       0x50
 .rodata        0x9d060fa4       0x50 build/default/debug/_ext/1472/smtp_demo.o

.text._SYS_CONSOLE_MESSAGE
                0x9d060ff4       0x50
 .text._SYS_CONSOLE_MESSAGE
                0x9d060ff4       0x50 build/default/debug/_ext/365611741/system_debug.o
                0x9d060ff4                _SYS_CONSOLE_MESSAGE

.text._FlashMediaRead
                0x9d061044       0x50
 .text._FlashMediaRead
                0x9d061044       0x50 build/default/debug/_ext/792872985/drv_media.o

.text._TCPIP_AnnounceCleanup
                0x9d061094       0x50
 .text._TCPIP_AnnounceCleanup
                0x9d061094       0x50 build/default/debug/_ext/427700826/tcpip_announce.o

.text.HTTPPrint_
                0x9d0610e4       0x50
 .text.HTTPPrint_
                0x9d0610e4       0x50 build/default/debug/_ext/427700826/http2.o
                0x9d0610e4                HTTPPrint_

.text.ARPHashKeyCompare
                0x9d061134       0x50
 .text.ARPHashKeyCompare
                0x9d061134       0x50 build/default/debug/_ext/427700826/arp.o
                0x9d061134                ARPHashKeyCompare

.text._DNSReleaseSocket
                0x9d061184       0x50
 .text._DNSReleaseSocket
                0x9d061184       0x50 build/default/debug/_ext/427700826/dns.o

.text.PIC32MACSetReadPtrInRx
                0x9d0611d4       0x50
 .text.PIC32MACSetReadPtrInRx
                0x9d0611d4       0x50 build/default/debug/_ext/427700826/eth_pic32_int_mac.o

.text.SMTPSendMail
                0x9d061224       0x50
 .text.SMTPSendMail
                0x9d061224       0x50 build/default/debug/_ext/427700826/smtp.o
                0x9d061224                SMTPSendMail

.text.SSLSave   0x9d061274       0x50
 .text.SSLSave  0x9d061274       0x50 build/default/debug/_ext/427700826/ssl.o

.text.SSLLoad   0x9d0612c4       0x50
 .text.SSLLoad  0x9d0612c4       0x50 build/default/debug/_ext/427700826/ssl.o

.text._ZCLLCleanup
                0x9d061314       0x50
 .text._ZCLLCleanup
                0x9d061314       0x50 build/default/debug/_ext/427700826/zero_conf_link_local.o

.text.WF_SpiInit
                0x9d061364       0x50
 .text.WF_SpiInit
                0x9d061364       0x50 build/default/debug/_ext/334706090/wf_spi.o
                0x9d061364                WF_SpiInit

.text.mrf24w_MACEventSetNotifyHandler
                0x9d0613b4       0x50
 .text.mrf24w_MACEventSetNotifyHandler
                0x9d0613b4       0x50 build/default/debug/_ext/334706090/mrf24w_mac_pic32.o

.text.MRF24W_GetTrafficEvents
                0x9d061404       0x50
 .text.MRF24W_GetTrafficEvents
                0x9d061404       0x50 build/default/debug/_ext/334706090/mrf24w_events.o
                0x9d061404                MRF24W_GetTrafficEvents

.text.MRF24W_GetMgmtEvents
                0x9d061454       0x50
 .text.MRF24W_GetMgmtEvents
                0x9d061454       0x50 build/default/debug/_ext/334706090/mrf24w_events.o
                0x9d061454                MRF24W_GetMgmtEvents

.text.SignalDHCPSuccessful
                0x9d0614a4       0x50
 .text.SignalDHCPSuccessful
                0x9d0614a4       0x50 build/default/debug/_ext/334706090/wf_driver_com_24g.o
                0x9d0614a4                SignalDHCPSuccessful

.text.MRF24W_MACSetWritePtr
                0x9d0614f4       0x50
 .text.MRF24W_MACSetWritePtr
                0x9d0614f4       0x50 build/default/debug/_ext/334706090/wf_mac_24g.o
                0x9d0614f4                MRF24W_MACSetWritePtr

.text.MRF24W_MACSetReadPtr
                0x9d061544       0x50
 .text.MRF24W_MACSetReadPtr
                0x9d061544       0x50 build/default/debug/_ext/334706090/wf_mac_24g.o
                0x9d061544                MRF24W_MACSetReadPtr

.text.MRF24W_MACSetBaseReadPtr
                0x9d061594       0x50
 .text.MRF24W_MACSetBaseReadPtr
                0x9d061594       0x50 build/default/debug/_ext/334706090/wf_mac_24g.o
                0x9d061594                MRF24W_MACSetBaseReadPtr

.text.StackNotification
                0x9d0615e4       0x50
 .text.StackNotification
                0x9d0615e4       0x50 build/default/debug/_ext/1472/main_demo.o

.text.strncpy   0x9d061634       0x50
 .text.strncpy  0x9d061634       0x50 c:/program files/microchip/xc32/v1.21/bin/../lib/gcc/pic32mx/4.5.2/../../../../pic32mx/lib/size\libc.a(strncpy.o)
                0x9d061634                strncpy

.text.DRV_SPI_Initialize
                0x9d061684       0x4c
 .text.DRV_SPI_Initialize
                0x9d061684       0x4c build/default/debug/_ext/792872985/drv_spi.o
                0x9d061684                DRV_SPI_Initialize

.text.DB_APPIO_GETS
                0x9d0616d0       0x4c
 .text.DB_APPIO_GETS
                0x9d0616d0       0x4c build/default/debug/_ext/792872985/db_appio.o
                0x9d0616d0                DB_APPIO_GETS

.text.PIC32MACSetWritePtr
                0x9d06171c       0x4c
 .text.PIC32MACSetWritePtr
                0x9d06171c       0x4c build/default/debug/_ext/427700826/eth_pic32_int_mac.o

.text.PIC32MACSetReadPtr
                0x9d061768       0x4c
 .text.PIC32MACSetReadPtr
                0x9d061768       0x4c build/default/debug/_ext/427700826/eth_pic32_int_mac.o

.text.PIC32MACSetBaseReadPtr
                0x9d0617b4       0x4c
 .text.PIC32MACSetBaseReadPtr
                0x9d0617b4       0x4c build/default/debug/_ext/427700826/eth_pic32_int_mac.o

.text.PIC32MACEventGetPending
                0x9d061800       0x4c
 .text.PIC32MACEventGetPending
                0x9d061800       0x4c build/default/debug/_ext/427700826/mac_events_pic32.o
                0x9d061800                PIC32MACEventGetPending

.text.TCPGet    0x9d06184c       0x4c
 .text.TCPGet   0x9d06184c       0x4c build/default/debug/_ext/427700826/tcp.o
                0x9d06184c                TCPGet

.text.UDPGet    0x9d061898       0x4c
 .text.UDPGet   0x9d061898       0x4c build/default/debug/_ext/427700826/udp.o
                0x9d061898                UDPGet

.text.MACSetWritePtr
                0x9d0618e4       0x4c
 .text.MACSetWritePtr
                0x9d0618e4       0x4c build/default/debug/_ext/427700826/tcpip_mac_object.o
                0x9d0618e4                MACSetWritePtr

.text.MACSetReadPtr
                0x9d061930       0x4c
 .text.MACSetReadPtr
                0x9d061930       0x4c build/default/debug/_ext/427700826/tcpip_mac_object.o
                0x9d061930                MACSetReadPtr

.text.MACEventGetPending
                0x9d06197c       0x4c
 .text.MACEventGetPending
                0x9d06197c       0x4c build/default/debug/_ext/427700826/tcpip_mac_object.o
                0x9d06197c                MACEventGetPending

.text.CommandDhcpOnOff
                0x9d0619c8       0x4c
 .text.CommandDhcpOnOff
                0x9d0619c8       0x4c build/default/debug/_ext/427700826/tcpip_commands.o

.text.CommandDhcpSOnOff
                0x9d061a14       0x4c
 .text.CommandDhcpSOnOff
                0x9d061a14       0x4c build/default/debug/_ext/427700826/tcpip_commands.o

.text.CommandZcllOnOff
                0x9d061a60       0x4c
 .text.CommandZcllOnOff
                0x9d061a60       0x4c build/default/debug/_ext/427700826/tcpip_commands.o

.text.WF_ChannelListSet
                0x9d061aac       0x4c
 .text.WF_ChannelListSet
                0x9d061aac       0x4c build/default/debug/_ext/334706090/wf_connection_algorithm.o
                0x9d061aac                WF_ChannelListSet

.text.WF_EintEnable
                0x9d061af8       0x4c
 .text.WF_EintEnable
                0x9d061af8       0x4c build/default/debug/_ext/334706090/wf_eint.o
                0x9d061af8                WF_EintEnable

.text.DhcpEventHandler
                0x9d061b44       0x4c
 .text.DhcpEventHandler
                0x9d061b44       0x4c build/default/debug/_ext/334706090/wf_event_handler.o
                0x9d061b44                DhcpEventHandler

.text.mrf24w_MACPutArray
                0x9d061b90       0x4c
 .text.mrf24w_MACPutArray
                0x9d061b90       0x4c build/default/debug/_ext/334706090/mrf24w_mac_pic32.o

.text.mrf24w_MACGetArray
                0x9d061bdc       0x4c
 .text.mrf24w_MACGetArray
                0x9d061bdc       0x4c build/default/debug/_ext/334706090/mrf24w_mac_pic32.o

.text.MRF24W_MACEventAck
                0x9d061c28       0x4c
 .text.MRF24W_MACEventAck
                0x9d061c28       0x4c build/default/debug/_ext/334706090/mrf24w_events.o
                0x9d061c28                MRF24W_MACEventAck

.text.SendRAWManagementFrame
                0x9d061c74       0x4c
 .text.SendRAWManagementFrame
                0x9d061c74       0x4c build/default/debug/_ext/334706090/wf_driver_raw_24g.o
                0x9d061c74                SendRAWManagementFrame

.text.ScratchUnmount
                0x9d061cc0       0x4c
 .text.ScratchUnmount
                0x9d061cc0       0x4c build/default/debug/_ext/334706090/wf_driver_raw_24g.o
                0x9d061cc0                ScratchUnmount

.text.MRF24W_MACSetReadPtrInRx
                0x9d061d0c       0x4c
 .text.MRF24W_MACSetReadPtrInRx
                0x9d061d0c       0x4c build/default/debug/_ext/334706090/wf_mac_24g.o
                0x9d061d0c                MRF24W_MACSetReadPtrInRx

.text.EthMACSetAddress
                0x9d061d58       0x4c
 .text.EthMACSetAddress
                0x9d061d58       0x4c c:/program files/microchip/xc32/v1.21/bin/../lib/gcc/pic32mx/4.5.2/../../../../pic32mx/lib/size\libmchp_peripheral_32MX795F512L.a(eth_mac_set_address_max_lib.o)
                0x9d061d58                EthMACSetAddress

.text.INTEnable
                0x9d061da4       0x4c
 .text.INTEnable
                0x9d061da4       0x4c c:/program files/microchip/xc32/v1.21/bin/../lib/gcc/pic32mx/4.5.2/../../../../pic32mx/lib/size\libmchp_peripheral_32MX795F512L.a(int_tbl_lib.o)
                0x9d061da4                INTEnable

.text           0x9d061df0       0x4c
 .text          0x9d061df0       0x4c c:/program files/microchip/xc32/v1.21/bin/../lib/gcc/pic32mx/4.5.2/size\libgcc.a(floatunsisf.o)
                0x9d061df0                __floatunsisf

.text._bufallo  0x9d061e3c       0x4c
 .text._bufallo
                0x9d061e3c       0x4c c:/program files/microchip/xc32/v1.21/bin/../lib/gcc/pic32mx/4.5.2/../../../../pic32mx/lib/size\libc.a(buf.o)
                0x9d061e3c                _bufallo

.text.SYS_CLK_PeripheralClockGet
                0x9d061e88       0x48
 .text.SYS_CLK_PeripheralClockGet
                0x9d061e88       0x48 build/default/debug/_ext/365611741/system_services.o
                0x9d061e88                SYS_CLK_PeripheralClockGet

.text._SYS_CONSOLE_DATA_RDY
                0x9d061ed0       0x48
 .text._SYS_CONSOLE_DATA_RDY
                0x9d061ed0       0x48 build/default/debug/_ext/365611741/system_debug.o
                0x9d061ed0                _SYS_CONSOLE_DATA_RDY

.text._SYS_CONSOLE_GETC
                0x9d061f18       0x48
 .text._SYS_CONSOLE_GETC
                0x9d061f18       0x48 build/default/debug/_ext/365611741/system_debug.o
                0x9d061f18                _SYS_CONSOLE_GETC

.rodata         0x9d061f60       0x48
 .rodata        0x9d061f60       0x48 build/default/debug/_ext/97638081/sys_fs.o

.text.DB_APPIO_GETC
                0x9d061fa8       0x48
 .text.DB_APPIO_GETC
                0x9d061fa8       0x48 build/default/debug/_ext/792872985/db_appio.o
                0x9d061fa8                DB_APPIO_GETC

.text.DB_APPIO_PUTC
                0x9d061ff0       0x48
 .text.DB_APPIO_PUTC
                0x9d061ff0       0x48 build/default/debug/_ext/792872985/db_appio.o
                0x9d061ff0                DB_APPIO_PUTC

.text.HTTPCurConnectionByteCountDec
                0x9d062038       0x48
 .text.HTTPCurConnectionByteCountDec
                0x9d062038       0x48 build/default/debug/_ext/427700826/http2.o
                0x9d062038                HTTPCurConnectionByteCountDec

.text.ARPHashKeyCopy
                0x9d062080       0x48
 .text.ARPHashKeyCopy
                0x9d062080       0x48 build/default/debug/_ext/427700826/arp.o
                0x9d062080                ARPHashKeyCopy

.text.DNSEndUsage
                0x9d0620c8       0x48
 .text.DNSEndUsage
                0x9d0620c8       0x48 build/default/debug/_ext/427700826/dns.o
                0x9d0620c8                DNSEndUsage

.text._PhyReadReg
                0x9d062110       0x48
 .text._PhyReadReg
                0x9d062110       0x48 build/default/debug/_ext/427700826/eth_pic32_ext_phy.o

.text.PIC32MACClose
                0x9d062158       0x48
 .text.PIC32MACClose
                0x9d062158       0x48 build/default/debug/_ext/427700826/eth_pic32_int_mac.o

.text.TCPIP_IPV4_SetSourceAddress
                0x9d0621a0       0x48
 .text.TCPIP_IPV4_SetSourceAddress
                0x9d0621a0       0x48 build/default/debug/_ext/427700826/ipv4.o
                0x9d0621a0                TCPIP_IPV4_SetSourceAddress

.text.TCPIP_STACK_NetIx
                0x9d0621e8       0x48
 .text.TCPIP_STACK_NetIx
                0x9d0621e8       0x48 build/default/debug/_ext/427700826/tcpip_manager.o
                0x9d0621e8                TCPIP_STACK_NetIx

.text.TCPIP_STACK_NetAddress
                0x9d062230       0x48
 .text.TCPIP_STACK_NetAddress
                0x9d062230       0x48 build/default/debug/_ext/427700826/tcpip_manager.o
                0x9d062230                TCPIP_STACK_NetAddress

.text.TCPIP_STACK_NetMask
                0x9d062278       0x48
 .text.TCPIP_STACK_NetMask
                0x9d062278       0x48 build/default/debug/_ext/427700826/tcpip_manager.o
                0x9d062278                TCPIP_STACK_NetMask

.text.TCPIP_STACK_NetMacAddress
                0x9d0622c0       0x48
 .text.TCPIP_STACK_NetMacAddress
                0x9d0622c0       0x48 build/default/debug/_ext/427700826/tcpip_manager.o
                0x9d0622c0                TCPIP_STACK_NetMacAddress

.text.TCPIP_STACK_IsNetUp
                0x9d062308       0x48
 .text.TCPIP_STACK_IsNetUp
                0x9d062308       0x48 build/default/debug/_ext/427700826/tcpip_manager.o
                0x9d062308                TCPIP_STACK_IsNetUp

.text.StateMachineUdpTxDone
                0x9d062350       0x48
 .text.StateMachineUdpTxDone
                0x9d062350       0x48 build/default/debug/_ext/427700826/iperf.o

.text.SetHiddenSsid
                0x9d062398       0x48
 .text.SetHiddenSsid
                0x9d062398       0x48 build/default/debug/_ext/334706090/wf_connection_profile.o
                0x9d062398                SetHiddenSsid

.text.isEventNotifyBitSet
                0x9d0623e0       0x48
 .text.isEventNotifyBitSet
                0x9d0623e0       0x48 build/default/debug/_ext/334706090/wf_event_handler.o

.text.mrf24w_MACCalcIPBufferChecksum
                0x9d062428       0x48
 .text.mrf24w_MACCalcIPBufferChecksum
                0x9d062428       0x48 build/default/debug/_ext/334706090/mrf24w_mac_pic32.o

.text.mrf24w_MACEventSetNotifyEvents
                0x9d062470       0x48
 .text.mrf24w_MACEventSetNotifyEvents
                0x9d062470       0x48 build/default/debug/_ext/334706090/mrf24w_mac_pic32.o

.text.mrf24w_MACEventClearNotifyEvents
                0x9d0624b8       0x48
 .text.mrf24w_MACEventClearNotifyEvents
                0x9d0624b8       0x48 build/default/debug/_ext/334706090/mrf24w_mac_pic32.o

.text.mrf24w_MACEventAck
                0x9d062500       0x48
 .text.mrf24w_MACEventAck
                0x9d062500       0x48 build/default/debug/_ext/334706090/mrf24w_mac_pic32.o

.text.MRF24W_MACEventClearNotifyEvents
                0x9d062548       0x48
 .text.MRF24W_MACEventClearNotifyEvents
                0x9d062548       0x48 build/default/debug/_ext/334706090/mrf24w_events.o
                0x9d062548                MRF24W_MACEventClearNotifyEvents

.text.OutputPowerSaveMode
                0x9d062590       0x48
 .text.OutputPowerSaveMode
                0x9d062590       0x48 build/default/debug/_ext/334706090/wf_debug_output.o

.text.WFEnableMRF24WMode
                0x9d0625d8       0x48
 .text.WFEnableMRF24WMode
                0x9d0625d8       0x48 build/default/debug/_ext/334706090/wf_param_msg_24g.o
                0x9d0625d8                WFEnableMRF24WMode

.text._DefaultInterrupt
                0x9d062620       0x48
 .text._DefaultInterrupt
                0x9d062620       0x48 c:/program files/microchip/xc32/v1.21/bin/../lib/gcc/pic32mx/4.5.2/../../../../pic32mx/lib/size\libpic32.a(defaultinterrupt.o)
                0x9d062620                _DefaultInterrupt

.text.sbrk      0x9d062668       0x48
 .text.sbrk     0x9d062668       0x48 c:/program files/microchip/xc32/v1.21/bin/../lib/gcc/pic32mx/4.5.2/../../../../pic32mx/lib/size\libpic32.a(sbrk.o)
                0x9d062668                sbrk

.text.SYS_CLK_ClockGet
                0x9d0626b0       0x44
 .text.SYS_CLK_ClockGet
                0x9d0626b0       0x44 build/default/debug/_ext/365611741/system_services.o
                0x9d0626b0                SYS_CLK_ClockGet

.text._sys_CONSOLE_PUTC
                0x9d0626f4       0x44
 .text._sys_CONSOLE_PUTC
                0x9d0626f4       0x44 build/default/debug/_ext/365611741/system_command.o

.text.MPFSGetID
                0x9d062738       0x44
 .text.MPFSGetID
                0x9d062738       0x44 build/default/debug/_ext/97638081/mpfs2.o
                0x9d062738                MPFSGetID

.text.USART_DATA_RDY
                0x9d06277c       0x44
 .text.USART_DATA_RDY
                0x9d06277c       0x44 build/default/debug/_ext/792872985/usart.o
                0x9d06277c                USART_DATA_RDY

.text.TCPIP_IPV4_SetPacketIPProtocol
                0x9d0627c0       0x44
 .text.TCPIP_IPV4_SetPacketIPProtocol
                0x9d0627c0       0x44 build/default/debug/_ext/427700826/ipv4.o
                0x9d0627c0                TCPIP_IPV4_SetPacketIPProtocol

.text.SSLGetBuffer
                0x9d062804       0x44
 .text.SSLGetBuffer
                0x9d062804       0x44 build/default/debug/_ext/427700826/ssl.o
                0x9d062804                SSLGetBuffer

.text.MACClose  0x9d062848       0x44
 .text.MACClose
                0x9d062848       0x44 build/default/debug/_ext/427700826/tcpip_mac_object.o
                0x9d062848                MACClose

.text.MACDiscardRx
                0x9d06288c       0x44
 .text.MACDiscardRx
                0x9d06288c       0x44 build/default/debug/_ext/427700826/tcpip_mac_object.o
                0x9d06288c                MACDiscardRx

.text.MACIsTxReady
                0x9d0628d0       0x44
 .text.MACIsTxReady
                0x9d0628d0       0x44 build/default/debug/_ext/427700826/tcpip_mac_object.o
                0x9d0628d0                MACIsTxReady

.text.MACFlush  0x9d062914       0x44
 .text.MACFlush
                0x9d062914       0x44 build/default/debug/_ext/427700826/tcpip_mac_object.o
                0x9d062914                MACFlush

.text.MACCheckLink
                0x9d062958       0x44
 .text.MACCheckLink
                0x9d062958       0x44 build/default/debug/_ext/427700826/tcpip_mac_object.o
                0x9d062958                MACCheckLink

.text.MACGetTxBaseAddr
                0x9d06299c       0x44
 .text.MACGetTxBaseAddr
                0x9d06299c       0x44 build/default/debug/_ext/427700826/tcpip_mac_object.o
                0x9d06299c                MACGetTxBaseAddr

.text.TCPIP_STACK_NetHandle
                0x9d0629e0       0x44
 .text.TCPIP_STACK_NetHandle
                0x9d0629e0       0x44 build/default/debug/_ext/427700826/tcpip_manager.o
                0x9d0629e0                TCPIP_STACK_NetHandle

.text._TCPIPStackNetIx
                0x9d062a24       0x44
 .text._TCPIPStackNetIx
                0x9d062a24       0x44 build/default/debug/_ext/427700826/tcpip_manager.o
                0x9d062a24                _TCPIPStackNetIx

.text._TCPIPStackSetGatewayAddress
                0x9d062a68       0x44
 .text._TCPIPStackSetGatewayAddress
                0x9d062a68       0x44 build/default/debug/_ext/427700826/tcpip_manager.o
                0x9d062a68                _TCPIPStackSetGatewayAddress

.text._TCPIPStackSetPriDNSAddress
                0x9d062aac       0x44
 .text._TCPIPStackSetPriDNSAddress
                0x9d062aac       0x44 build/default/debug/_ext/427700826/tcpip_manager.o
                0x9d062aac                _TCPIPStackSetPriDNSAddress

.text._TCPIPStackSetSecondDNSAddress
                0x9d062af0       0x44
 .text._TCPIPStackSetSecondDNSAddress
                0x9d062af0       0x44 build/default/debug/_ext/427700826/tcpip_manager.o
                0x9d062af0                _TCPIPStackSetSecondDNSAddress

.text._TCPIPStackNetMacId
                0x9d062b34       0x44
 .text._TCPIPStackNetMacId
                0x9d062b34       0x44 build/default/debug/_ext/427700826/tcpip_manager.o
                0x9d062b34                _TCPIPStackNetMacId

.text._TCPIPStackNetToMac
                0x9d062b78       0x44
 .text._TCPIPStackNetToMac
                0x9d062b78       0x44 build/default/debug/_ext/427700826/tcpip_manager.o
                0x9d062b78                _TCPIPStackNetToMac

.text.SingleListInit
                0x9d062bbc       0x44
 .text.SingleListInit
                0x9d062bbc       0x44 build/default/debug/_ext/427700826/tcpip_helpers.o
                0x9d062bbc                SingleListInit

.text.WF_ConnectContextGet
                0x9d062c00       0x44
 .text.WF_ConnectContextGet
                0x9d062c00       0x44 build/default/debug/_ext/334706090/wf_connection_manager.o
                0x9d062c00                WF_ConnectContextGet

.rodata         0x9d062c44       0x44
 .rodata        0x9d062c44       0x44 build/default/debug/_ext/334706090/wf_connection_profile.o

.text.WF_NetworkTypeGet
                0x9d062c88       0x44
 .text.WF_NetworkTypeGet
                0x9d062c88       0x44 build/default/debug/_ext/334706090/wf_connection_profile.o
                0x9d062c88                WF_NetworkTypeGet

.text.WF_WepKeyTypeGet
                0x9d062ccc       0x44
 .text.WF_WepKeyTypeGet
                0x9d062ccc       0x44 build/default/debug/_ext/334706090/wf_connection_profile.o
                0x9d062ccc                WF_WepKeyTypeGet

.text.SetAdHocMode
                0x9d062d10       0x44
 .text.SetAdHocMode
                0x9d062d10       0x44 build/default/debug/_ext/334706090/wf_connection_profile.o
                0x9d062d10                SetAdHocMode

.rodata         0x9d062d54       0x44
 .rodata        0x9d062d54       0x44 build/default/debug/_ext/334706090/wf_init.o

.text.mrf24w_MACGetHeader
                0x9d062d98       0x44
 .text.mrf24w_MACGetHeader
                0x9d062d98       0x44 build/default/debug/_ext/334706090/mrf24w_mac_pic32.o

.text.mrf24w_MACSetReadPtrInRx
                0x9d062ddc       0x44
 .text.mrf24w_MACSetReadPtrInRx
                0x9d062ddc       0x44 build/default/debug/_ext/334706090/mrf24w_mac_pic32.o

.text.MRF24W_MACProcess
                0x9d062e20       0x44
 .text.MRF24W_MACProcess
                0x9d062e20       0x44 build/default/debug/_ext/334706090/wf_mac_24g.o
                0x9d062e20                MRF24W_MACProcess

.text.RawGetMgmtRxBuffer
                0x9d062e64       0x44
 .text.RawGetMgmtRxBuffer
                0x9d062e64       0x44 build/default/debug/_ext/334706090/wf_mac_24g.o
                0x9d062e64                RawGetMgmtRxBuffer

.text.WF_SetWPATimeout
                0x9d062ea8       0x44
 .text.WF_SetWPATimeout
                0x9d062ea8       0x44 build/default/debug/_ext/334706090/wf_param_msg_24g.o
                0x9d062ea8                WF_SetWPATimeout

.text.WF_SetTxMode
                0x9d062eec       0x44
 .text.WF_SetTxMode
                0x9d062eec       0x44 build/default/debug/_ext/334706090/wf_param_msg_24g.o
                0x9d062eec                WF_SetTxMode

.text.WF_SetTxDataConfirm
                0x9d062f30       0x44
 .text.WF_SetTxDataConfirm
                0x9d062f30       0x44 build/default/debug/_ext/334706090/wf_param_msg_24g.o
                0x9d062f30                WF_SetTxDataConfirm

.text.EthMIIMReadStart
                0x9d062f74       0x44
 .text.EthMIIMReadStart
                0x9d062f74       0x44 c:/program files/microchip/xc32/v1.21/bin/../lib/gcc/pic32mx/4.5.2/../../../../pic32mx/lib/size\libmchp_peripheral_32MX795F512L.a(eth_miim_access.o)
                0x9d062f74                EthMIIMReadStart

.text.strncmp   0x9d062fb8       0x44
 .text.strncmp  0x9d062fb8       0x44 c:/program files/microchip/xc32/v1.21/bin/../lib/gcc/pic32mx/4.5.2/../../../../pic32mx/lib/size\libc.a(strncmp.o)
                0x9d062fb8                strncmp

.text           0x9d062ffc       0x44
 .text          0x9d062ffc       0x44 c:/program files/microchip/xc32/v1.21/bin/../lib/gcc/pic32mx/4.5.2/size\libgcc.a(_lshrdi3.o)
                0x9d062ffc                __lshrdi3

.text.DB_APPIO_OPEN
                0x9d063040       0x40
 .text.DB_APPIO_OPEN
                0x9d063040       0x40 build/default/debug/_ext/792872985/db_appio.o
                0x9d063040                DB_APPIO_OPEN

.text.HTTPCurConnectionPostSmSet
                0x9d063080       0x40
 .text.HTTPCurConnectionPostSmSet
                0x9d063080       0x40 build/default/debug/_ext/427700826/http2.o
                0x9d063080                HTTPCurConnectionPostSmSet

.text.HTTPCurConnectionHasArgsSet
                0x9d0630c0       0x40
 .text.HTTPCurConnectionHasArgsSet
                0x9d0630c0       0x40 build/default/debug/_ext/427700826/http2.o
                0x9d0630c0                HTTPCurConnectionHasArgsSet

.rodata         0x9d063100       0x40
 .rodata        0x9d063100       0x40 build/default/debug/_ext/427700826/arp.o

.text._TxAckCallback
                0x9d063140       0x40
 .text._TxAckCallback
                0x9d063140       0x40 build/default/debug/_ext/427700826/eth_pic32_int_mac.o

.text.TCPIP_IPV4_Task
                0x9d063180       0x40
 .text.TCPIP_IPV4_Task
                0x9d063180       0x40 build/default/debug/_ext/427700826/ipv4.o
                0x9d063180                TCPIP_IPV4_Task

.text.UDPResetHeader
                0x9d0631c0       0x40
 .text.UDPResetHeader
                0x9d0631c0       0x40 build/default/debug/_ext/427700826/udp.o
                0x9d0631c0                UDPResetHeader

.text.WF_CASetEventNotificationAction
                0x9d063200       0x40
 .text.WF_CASetEventNotificationAction
                0x9d063200       0x40 build/default/debug/_ext/334706090/wf_connection_algorithm.o
                0x9d063200                WF_CASetEventNotificationAction

.text.WF_SecurityOpenSet
                0x9d063240       0x40
 .text.WF_SecurityOpenSet
                0x9d063240       0x40 build/default/debug/_ext/334706090/wf_connection_profile.o
                0x9d063240                WF_SecurityOpenSet

.text.MRF24W_MACConnect
                0x9d063280       0x40
 .text.MRF24W_MACConnect
                0x9d063280       0x40 build/default/debug/_ext/334706090/mrf24w_mac_pic32.o
                0x9d063280                MRF24W_MACConnect

.text.mrf24w_MACEventGetPending
                0x9d0632c0       0x40
 .text.mrf24w_MACEventGetPending
                0x9d0632c0       0x40 build/default/debug/_ext/334706090/mrf24w_mac_pic32.o

.text.DeallocateMgmtRxBuffer
                0x9d063300       0x40
 .text.DeallocateMgmtRxBuffer
                0x9d063300       0x40 build/default/debug/_ext/334706090/wf_driver_raw_24g.o
                0x9d063300                DeallocateMgmtRxBuffer

.text.MRF24W_MACDiscardRx
                0x9d063340       0x40
 .text.MRF24W_MACDiscardRx
                0x9d063340       0x40 build/default/debug/_ext/334706090/wf_mac_24g.o
                0x9d063340                MRF24W_MACDiscardRx

.text.WF_GetTxMode
                0x9d063380       0x40
 .text.WF_GetTxMode
                0x9d063380       0x40 build/default/debug/_ext/334706090/wf_param_msg_24g.o
                0x9d063380                WF_GetTxMode

.text.WF_MacAddressSet
                0x9d0633c0       0x40
 .text.WF_MacAddressSet
                0x9d0633c0       0x40 build/default/debug/_ext/334706090/wf_param_msg_24g.o
                0x9d0633c0                WF_MacAddressSet

.text.WF_MacAddressGet
                0x9d063400       0x40
 .text.WF_MacAddressGet
                0x9d063400       0x40 build/default/debug/_ext/334706090/wf_param_msg_24g.o
                0x9d063400                WF_MacAddressGet

.text.WF_RegionalDomainGet
                0x9d063440       0x40
 .text.WF_RegionalDomainGet
                0x9d063440       0x40 build/default/debug/_ext/334706090/wf_param_msg_24g.o
                0x9d063440                WF_RegionalDomainGet

.text.SpiChnDataRdy
                0x9d063480       0x40
 .text.SpiChnDataRdy
                0x9d063480       0x40 c:/program files/microchip/xc32/v1.21/bin/../lib/gcc/pic32mx/4.5.2/../../../../pic32mx/lib/size\libmchp_peripheral_32MX795F512L.a(spi_chn_data_rdy_lib.o)
                0x9d063480                SpiChnDataRdy

.text._sys_CONSOLE_MESSAGE
                0x9d0634c0       0x3c
 .text._sys_CONSOLE_MESSAGE
                0x9d0634c0       0x3c build/default/debug/_ext/365611741/system_command.o

.text.HTTPCurConnectionCallbackPosSet
                0x9d0634fc       0x3c
 .text.HTTPCurConnectionCallbackPosSet
                0x9d0634fc       0x3c build/default/debug/_ext/427700826/http2.o
                0x9d0634fc                HTTPCurConnectionCallbackPosSet

.text.HTTPCurConnectionStatusSet
                0x9d063538       0x3c
 .text.HTTPCurConnectionStatusSet
                0x9d063538       0x3c build/default/debug/_ext/427700826/http2.o
                0x9d063538                HTTPCurConnectionStatusSet

.text._ARPDeleteClients
                0x9d063574       0x3c
 .text._ARPDeleteClients
                0x9d063574       0x3c build/default/debug/_ext/427700826/arp.o

.text.ARPTmoHandler
                0x9d0635b0       0x3c
 .text.ARPTmoHandler
                0x9d0635b0       0x3c build/default/debug/_ext/427700826/arp.o

.text.TCPIP_IPV4_GetUpperLayerHeaderPtr
                0x9d0635ec       0x3c
 .text.TCPIP_IPV4_GetUpperLayerHeaderPtr
                0x9d0635ec       0x3c build/default/debug/_ext/427700826/ipv4.o
                0x9d0635ec                TCPIP_IPV4_GetUpperLayerHeaderPtr

.text.TCPIP_IPV4_GetPayloadLength
                0x9d063628       0x3c
 .text.TCPIP_IPV4_GetPayloadLength
                0x9d063628       0x3c build/default/debug/_ext/427700826/ipv4.o
                0x9d063628                TCPIP_IPV4_GetPayloadLength

.rodata         0x9d063664       0x78
 .rodata        0x9d063664       0x3c build/default/debug/_ext/427700826/ssl.o
 .rodata        0x9d0636a0       0x3c build/default/debug/_ext/427700826/tcpip_heap_alloc.o

.text.WifiAsyncSetEventPending
                0x9d0636dc       0x3c
 .text.WifiAsyncSetEventPending
                0x9d0636dc       0x3c build/default/debug/_ext/334706090/wf_event_handler.o
                0x9d0636dc                WifiAsyncSetEventPending

.text.mrf24w_MACSetWritePtr
                0x9d063718       0x3c
 .text.mrf24w_MACSetWritePtr
                0x9d063718       0x3c build/default/debug/_ext/334706090/mrf24w_mac_pic32.o

.text.mrf24w_MACSetReadPtr
                0x9d063754       0x3c
 .text.mrf24w_MACSetReadPtr
                0x9d063754       0x3c build/default/debug/_ext/334706090/mrf24w_mac_pic32.o

.text.mrf24w_MACSetBaseReadPtr
                0x9d063790       0x3c
 .text.mrf24w_MACSetBaseReadPtr
                0x9d063790       0x3c build/default/debug/_ext/334706090/mrf24w_mac_pic32.o

.text.EthRxGetBuffer
                0x9d0637cc       0x3c
 .text.EthRxGetBuffer
                0x9d0637cc       0x3c c:/program files/microchip/xc32/v1.21/bin/../lib/gcc/pic32mx/4.5.2/../../../../pic32mx/lib/size\libmchp_peripheral_32MX795F512L.a(eth_rx_get_packet_lib.o)
                0x9d0637cc                EthRxGetBuffer

.text.EthMIIMWriteStart
                0x9d063808       0x3c
 .text.EthMIIMWriteStart
                0x9d063808       0x3c c:/program files/microchip/xc32/v1.21/bin/../lib/gcc/pic32mx/4.5.2/../../../../pic32mx/lib/size\libmchp_peripheral_32MX795F512L.a(eth_miim_access.o)
                0x9d063808                EthMIIMWriteStart

.text.PORTSetPinsDigitalIn
                0x9d063844       0x3c
 .text.PORTSetPinsDigitalIn
                0x9d063844       0x3c c:/program files/microchip/xc32/v1.21/bin/../lib/gcc/pic32mx/4.5.2/../../../../pic32mx/lib/size\libmchp_peripheral_32MX795F512L.a(port_set_pins_digital_in_lib.o)
                0x9d063844                PORTSetPinsDigitalIn

.text.PORTSetPinsDigitalOut
                0x9d063880       0x3c
 .text.PORTSetPinsDigitalOut
                0x9d063880       0x3c c:/program files/microchip/xc32/v1.21/bin/../lib/gcc/pic32mx/4.5.2/../../../../pic32mx/lib/size\libmchp_peripheral_32MX795F512L.a(port_set_pins_digital_out_lib.o)
                0x9d063880                PORTSetPinsDigitalOut

.text           0x9d0638bc       0x38
 .text          0x9d0638bc       0x38 c:/program files/microchip/xc32/v1.21/bin/../lib/gcc/pic32mx/4.5.2/../../../../pic32mx/lib/size/crt0.o
                0x9d0638e8                __crt0_exit

.text.SYS_Tasks
                0x9d0638f4       0x38
 .text.SYS_Tasks
                0x9d0638f4       0x38 build/default/debug/_ext/365611741/system_services.o
                0x9d0638f4                SYS_Tasks

.text._OAHashProbeStep
                0x9d06392c       0x38
 .text._OAHashProbeStep
                0x9d06392c       0x38 build/default/debug/_ext/427700826/hash_tbl.o

.text.SMTPFlush
                0x9d063964       0x38
 .text.SMTPFlush
                0x9d063964       0x38 build/default/debug/_ext/427700826/smtp.o
                0x9d063964                SMTPFlush

.rodata         0x9d06399c       0x38
 .rodata        0x9d06399c       0x38 build/default/debug/_ext/334706090/wf_event_handler.o

.text.RenewDhcp
                0x9d0639d4       0x38
 .text.RenewDhcp
                0x9d0639d4       0x38 build/default/debug/_ext/334706090/wf_event_handler.o

.text.mrf24w_MACClose
                0x9d063a0c       0x38
 .text.mrf24w_MACClose
                0x9d063a0c       0x38 build/default/debug/_ext/334706090/mrf24w_mac_pic32.o

.rodata         0x9d063a44       0x70
 .rodata        0x9d063a44       0x38 build/default/debug/_ext/334706090/wf_driver_com_24g.o
 .rodata        0x9d063a7c       0x38 build/default/debug/_ext/334706090/wf_param_msg_24g.o

.text.INTSetVectorPriority
                0x9d063ab4       0x38
 .text.INTSetVectorPriority
                0x9d063ab4       0x38 c:/program files/microchip/xc32/v1.21/bin/../lib/gcc/pic32mx/4.5.2/../../../../pic32mx/lib/size\libmchp_peripheral_32MX795F512L.a(int_tbl_lib.o)
                0x9d063ab4                INTSetVectorPriority

.text.INTSetVectorSubPriority
                0x9d063aec       0x38
 .text.INTSetVectorSubPriority
                0x9d063aec       0x38 c:/program files/microchip/xc32/v1.21/bin/../lib/gcc/pic32mx/4.5.2/../../../../pic32mx/lib/size\libmchp_peripheral_32MX795F512L.a(int_tbl_lib.o)
                0x9d063aec                INTSetVectorSubPriority

.text._sys_CONSOLE_DATA_RDY
                0x9d063b24       0x34
 .text._sys_CONSOLE_DATA_RDY
                0x9d063b24       0x34 build/default/debug/_ext/365611741/system_command.o

.text._sys_CONSOLE_GETC
                0x9d063b58       0x34
 .text._sys_CONSOLE_GETC
                0x9d063b58       0x34 build/default/debug/_ext/365611741/system_command.o

.text.DRV_MEDIA_ClientStatus
                0x9d063b8c       0x34
 .text.DRV_MEDIA_ClientStatus
                0x9d063b8c       0x34 build/default/debug/_ext/792872985/drv_media.o
                0x9d063b8c                DRV_MEDIA_ClientStatus

.text.HTTPCurConnectionFileGet
                0x9d063bc0       0x34
 .text.HTTPCurConnectionFileGet
                0x9d063bc0       0x34 build/default/debug/_ext/427700826/http2.o
                0x9d063bc0                HTTPCurConnectionFileGet

.text.HTTPCurConnectionPostSmGet
                0x9d063bf4       0x34
 .text.HTTPCurConnectionPostSmGet
                0x9d063bf4       0x34 build/default/debug/_ext/427700826/http2.o
                0x9d063bf4                HTTPCurConnectionPostSmGet

.text.HTTPCurConnectionDataBufferGet
                0x9d063c28       0x34
 .text.HTTPCurConnectionDataBufferGet
                0x9d063c28       0x34 build/default/debug/_ext/427700826/http2.o
                0x9d063c28                HTTPCurConnectionDataBufferGet

.text.HTTPCurConnectionByteCountGet
                0x9d063c5c       0x34
 .text.HTTPCurConnectionByteCountGet
                0x9d063c5c       0x34 build/default/debug/_ext/427700826/http2.o
                0x9d063c5c                HTTPCurConnectionByteCountGet

.text.HTTPCurConnectionSocketGet
                0x9d063c90       0x34
 .text.HTTPCurConnectionSocketGet
                0x9d063c90       0x34 build/default/debug/_ext/427700826/http2.o
                0x9d063c90                HTTPCurConnectionSocketGet

.text.PIC32MACGetReadPtrInRx
                0x9d063cc4       0x34
 .text.PIC32MACGetReadPtrInRx
                0x9d063cc4       0x34 build/default/debug/_ext/427700826/eth_pic32_int_mac.o

.text.TCPIP_IPV4_SetDestAddress
                0x9d063cf8       0x34
 .text.TCPIP_IPV4_SetDestAddress
                0x9d063cf8       0x34 build/default/debug/_ext/427700826/ipv4.o
                0x9d063cf8                TCPIP_IPV4_SetDestAddress

.text.TCPIP_IPV4_GetDestAddress
                0x9d063d2c       0x34
 .text.TCPIP_IPV4_GetDestAddress
                0x9d063d2c       0x34 build/default/debug/_ext/427700826/ipv4.o
                0x9d063d2c                TCPIP_IPV4_GetDestAddress

.text.TCPIP_IPV4_GetSourceAddress
                0x9d063d60       0x34
 .text.TCPIP_IPV4_GetSourceAddress
                0x9d063d60       0x34 build/default/debug/_ext/427700826/ipv4.o
                0x9d063d60                TCPIP_IPV4_GetSourceAddress

.text.ProcessTCPIPMacErrorEvents
                0x9d063d94       0x34
 .text.ProcessTCPIPMacErrorEvents
                0x9d063d94       0x34 build/default/debug/_ext/427700826/tcpip_manager.o

.rodata         0x9d063dc8       0x34
 .rodata        0x9d063dc8       0x34 build/default/debug/_ext/334706090/wf_connect.o

.text.WF_EintIsDisabled
                0x9d063dfc       0x34
 .text.WF_EintIsDisabled
                0x9d063dfc       0x34 build/default/debug/_ext/334706090/wf_eint.o
                0x9d063dfc                WF_EintIsDisabled

.text.WF_DeInit
                0x9d063e30       0x34
 .text.WF_DeInit
                0x9d063e30       0x34 build/default/debug/_ext/334706090/wf_init.o
                0x9d063e30                WF_DeInit

.text.WF_SpiDisableChipSelect
                0x9d063e64       0x34
 .text.WF_SpiDisableChipSelect
                0x9d063e64       0x34 build/default/debug/_ext/334706090/wf_spi.o
                0x9d063e64                WF_SpiDisableChipSelect

.text.mrf24w_MACGetReadPtrInRx
                0x9d063e98       0x34
 .text.mrf24w_MACGetReadPtrInRx
                0x9d063e98       0x34 build/default/debug/_ext/334706090/mrf24w_mac_pic32.o

.text.mrf24w_MACIsTxReady
                0x9d063ecc       0x34
 .text.mrf24w_MACIsTxReady
                0x9d063ecc       0x34 build/default/debug/_ext/334706090/mrf24w_mac_pic32.o

.text.mrf24w_MACFlush
                0x9d063f00       0x34
 .text.mrf24w_MACFlush
                0x9d063f00       0x34 build/default/debug/_ext/334706090/mrf24w_mac_pic32.o

.text.mrf24w_MACDiscardRx
                0x9d063f34       0x34
 .text.mrf24w_MACDiscardRx
                0x9d063f34       0x34 build/default/debug/_ext/334706090/mrf24w_mac_pic32.o

.text.mrf24w_MACCheckLink
                0x9d063f68       0x34
 .text.mrf24w_MACCheckLink
                0x9d063f68       0x34 build/default/debug/_ext/334706090/mrf24w_mac_pic32.o

.text.SetNetworkConfig
                0x9d063f9c       0x34
 .text.SetNetworkConfig
                0x9d063f9c       0x34 build/default/debug/_ext/334706090/wf_mac_24g.o
                0x9d063f9c                SetNetworkConfig

.rodata         0x9d063fd0       0x34
 .rodata        0x9d063fd0       0x34 build/default/debug/_ext/334706090/wf_mgmt_msg_24g.o

.text.HTTPPrint_reboot
                0x9d064004       0x34
 .text.HTTPPrint_reboot
                0x9d064004       0x34 build/default/debug/_ext/1472/custom_http_app.o
                0x9d064004                HTTPPrint_reboot

.text.INTEnableSystemMultiVectoredInt
                0x9d064038       0x34
 .text.INTEnableSystemMultiVectoredInt
                0x9d064038       0x34 c:/program files/microchip/xc32/v1.21/bin/../lib/gcc/pic32mx/4.5.2/../../../../pic32mx/lib/size\libmchp_peripheral_32MX795F512L.a(int_enable_mv_int_lib.o)
                0x9d064038                INTEnableSystemMultiVectoredInt

.text.SYS_USERIO_Tasks
                0x9d06406c       0x30
 .text.SYS_USERIO_Tasks
                0x9d06406c       0x30 build/default/debug/_ext/365611741/system_userio.o
                0x9d06406c                SYS_USERIO_Tasks

.text.SYS_FS_mpfs2fs_Init
                0x9d06409c       0x30
 .text.SYS_FS_mpfs2fs_Init
                0x9d06409c       0x30 build/default/debug/_ext/97638081/sys_fs.o
                0x9d06409c                SYS_FS_mpfs2fs_Init

.text.TCPIP_IPV4_TmoHandler
                0x9d0640cc       0x30
 .text.TCPIP_IPV4_TmoHandler
                0x9d0640cc       0x30 build/default/debug/_ext/427700826/ipv4.o
                0x9d0640cc                TCPIP_IPV4_TmoHandler

.text.SMTPPutDone
                0x9d0640fc       0x30
 .text.SMTPPutDone
                0x9d0640fc       0x30 build/default/debug/_ext/427700826/smtp.o
                0x9d0640fc                SMTPPutDone

.text._TcpTmoHandler
                0x9d06412c       0x30
 .text._TcpTmoHandler
                0x9d06412c       0x30 build/default/debug/_ext/427700826/tcp.o

.text.TCPIP_HEAP_TraceGetEntry
                0x9d06415c       0x30
 .text.TCPIP_HEAP_TraceGetEntry
                0x9d06415c       0x30 build/default/debug/_ext/427700826/tcpip_heap_alloc.o
                0x9d06415c                TCPIP_HEAP_TraceGetEntry

.text.TCPIP_HEAP_TraceGetEntriesNo
                0x9d06418c       0x30
 .text.TCPIP_HEAP_TraceGetEntriesNo
                0x9d06418c       0x30 build/default/debug/_ext/427700826/tcpip_heap_alloc.o
                0x9d06418c                TCPIP_HEAP_TraceGetEntriesNo

.text.TCPIP_STACK_TickHandler
                0x9d0641bc       0x30
 .text.TCPIP_STACK_TickHandler
                0x9d0641bc       0x30 build/default/debug/_ext/427700826/tcpip_manager.o

.text.SetEventNotificationMask
                0x9d0641ec       0x30
 .text.SetEventNotificationMask
                0x9d0641ec       0x30 build/default/debug/_ext/334706090/wf_connection_algorithm.o

.text.SetLogicalConnectionState
                0x9d06421c       0x30
 .text.SetLogicalConnectionState
                0x9d06421c       0x30 build/default/debug/_ext/334706090/wf_connection_manager.o
                0x9d06421c                SetLogicalConnectionState

.text.SetAppPowerSaveMode
                0x9d06424c       0x30
 .text.SetAppPowerSaveMode
                0x9d06424c       0x30 build/default/debug/_ext/334706090/wf_power_save.o
                0x9d06424c                SetAppPowerSaveMode

.text.WF_GetPowerSaveState
                0x9d06427c       0x30
 .text.WF_GetPowerSaveState
                0x9d06427c       0x30 build/default/debug/_ext/334706090/wf_power_save.o
                0x9d06427c                WF_GetPowerSaveState

.text.SetPowerSaveState
                0x9d0642ac       0x30
 .text.SetPowerSaveState
                0x9d0642ac       0x30 build/default/debug/_ext/334706090/wf_power_save.o

.text.WF_SpiEnableChipSelect
                0x9d0642dc       0x30
 .text.WF_SpiEnableChipSelect
                0x9d0642dc       0x30 build/default/debug/_ext/334706090/wf_spi.o
                0x9d0642dc                WF_SpiEnableChipSelect

.rodata         0x9d06430c       0x30
 .rodata        0x9d06430c       0x30 build/default/debug/_ext/334706090/wf_mac_24g.o

.text.MRF24W_MACCheckLink
                0x9d06433c       0x30
 .text.MRF24W_MACCheckLink
                0x9d06433c       0x30 build/default/debug/_ext/334706090/wf_mac_24g.o
                0x9d06433c                MRF24W_MACCheckLink

.text.EthTxAcknowledgeBuffer
                0x9d06436c       0x30
 .text.EthTxAcknowledgeBuffer
                0x9d06436c       0x30 c:/program files/microchip/xc32/v1.21/bin/../lib/gcc/pic32mx/4.5.2/../../../../pic32mx/lib/size\libmchp_peripheral_32MX795F512L.a(eth_ack_packet_lib.o)
                0x9d06436c                EthTxAcknowledgeBuffer

.text.EthRxSetBufferSize
                0x9d06439c       0x30
 .text.EthRxSetBufferSize
                0x9d06439c       0x30 c:/program files/microchip/xc32/v1.21/bin/../lib/gcc/pic32mx/4.5.2/../../../../pic32mx/lib/size\libmchp_peripheral_32MX795F512L.a(eth_rx_set_buffer_size_lib.o)
                0x9d06439c                EthRxSetBufferSize

.text.strcat    0x9d0643cc       0x30
 .text.strcat   0x9d0643cc       0x30 c:/program files/microchip/xc32/v1.21/bin/../lib/gcc/pic32mx/4.5.2/../../../../pic32mx/lib/size\libc.a(strcat.o)
                0x9d0643cc                strcat

.text.SYS_WDT_Clear
                0x9d0643fc       0x2c
 .text.SYS_WDT_Clear
                0x9d0643fc       0x2c build/default/debug/_ext/365611741/system_services.o
                0x9d0643fc                SYS_WDT_Clear

.text.TCPIP_ANNOUNCE_TaskPending
                0x9d064428       0x2c
 .text.TCPIP_ANNOUNCE_TaskPending
                0x9d064428       0x2c build/default/debug/_ext/427700826/tcpip_announce.o
                0x9d064428                TCPIP_ANNOUNCE_TaskPending

.text.ARPTaskPending
                0x9d064454       0x2c
 .text.ARPTaskPending
                0x9d064454       0x2c build/default/debug/_ext/427700826/arp.o
                0x9d064454                ARPTaskPending

.text.PIC32MACPowerMode
                0x9d064480       0x2c
 .text.PIC32MACPowerMode
                0x9d064480       0x2c build/default/debug/_ext/427700826/eth_pic32_int_mac.o

.text.TCPIP_IPV4_TaskPending
                0x9d0644ac       0x2c
 .text.TCPIP_IPV4_TaskPending
                0x9d0644ac       0x2c build/default/debug/_ext/427700826/ipv4.o
                0x9d0644ac                TCPIP_IPV4_TaskPending

.text.SMTPClientInit
                0x9d0644d8       0x2c
 .text.SMTPClientInit
                0x9d0644d8       0x2c build/default/debug/_ext/427700826/smtp.o
                0x9d0644d8                SMTPClientInit

.text.SMTPIsBusy
                0x9d064504       0x2c
 .text.SMTPIsBusy
                0x9d064504       0x2c build/default/debug/_ext/427700826/smtp.o
                0x9d064504                SMTPIsBusy

.text.SSLTaskPending
                0x9d064530       0x2c
 .text.SSLTaskPending
                0x9d064530       0x2c build/default/debug/_ext/427700826/ssl.o
                0x9d064530                SSLTaskPending

.text.TCPTaskPending
                0x9d06455c       0x2c
 .text.TCPTaskPending
                0x9d06455c       0x2c build/default/debug/_ext/427700826/tcp.o
                0x9d06455c                TCPTaskPending

.text.WF_EintDisable
                0x9d064588       0x2c
 .text.WF_EintDisable
                0x9d064588       0x2c build/default/debug/_ext/334706090/wf_eint.o
                0x9d064588                WF_EintDisable

.text.WiFiAsyncTaskPending
                0x9d0645b4       0x2c
 .text.WiFiAsyncTaskPending
                0x9d0645b4       0x2c build/default/debug/_ext/334706090/wf_event_handler.o
                0x9d0645b4                WiFiAsyncTaskPending

.rodata         0x9d0645e0       0x2c
 .rodata        0x9d0645e0       0x2c build/default/debug/_ext/334706090/wf_spi.o

.text.MRF24W_MACEventGetPending
                0x9d06460c       0x2c
 .text.MRF24W_MACEventGetPending
                0x9d06460c       0x2c build/default/debug/_ext/334706090/mrf24w_events.o
                0x9d06460c                MRF24W_MACEventGetPending

.text.HTTPPrint_read_comm
                0x9d064638       0x2c
 .text.HTTPPrint_read_comm
                0x9d064638       0x2c build/default/debug/_ext/1472/custom_http_app.o
                0x9d064638                HTTPPrint_read_comm

.text.HTTPPrint_write_comm
                0x9d064664       0x2c
 .text.HTTPPrint_write_comm
                0x9d064664       0x2c build/default/debug/_ext/1472/custom_http_app.o
                0x9d064664                HTTPPrint_write_comm

.text.HTTPPrint_ddns_service
                0x9d064690       0x2c
 .text.HTTPPrint_ddns_service
                0x9d064690       0x2c build/default/debug/_ext/1472/custom_http_app.o
                0x9d064690                HTTPPrint_ddns_service

.text.EthMIIMReadResult
                0x9d0646bc       0x2c
 .text.EthMIIMReadResult
                0x9d0646bc       0x2c c:/program files/microchip/xc32/v1.21/bin/../lib/gcc/pic32mx/4.5.2/../../../../pic32mx/lib/size\libmchp_peripheral_32MX795F512L.a(eth_miim_access.o)
                0x9d0646bc                EthMIIMReadResult

.text.strchr    0x9d0646e8       0x2c
 .text.strchr   0x9d0646e8       0x2c c:/program files/microchip/xc32/v1.21/bin/../lib/gcc/pic32mx/4.5.2/../../../../pic32mx/lib/size\libc.a(strchr.o)
                0x9d0646e8                strchr

.text._stub_sbd_memlayout
                0x9d064714       0x2c
 .text._stub_sbd_memlayout
                0x9d064714       0x2c c:/program files/microchip/xc32/v1.21/bin/../lib/gcc/pic32mx/4.5.2/../../../../pic32mx/lib/size\libpic32.a(sbrk.o)
                0x9d064714                _stub_sbd_memlayout
                0x9d064714                _sbd_memlayout

.text.SYS_FS_GenError
                0x9d064740       0x28
 .text.SYS_FS_GenError
                0x9d064740       0x28 build/default/debug/_ext/97638081/sys_fs.o

.rodata         0x9d064768       0x28
 .rodata        0x9d064768       0x28 build/default/debug/_ext/792872985/usart.o

.text.DB_APPIO_DATA_RDY
                0x9d064790       0x28
 .text.DB_APPIO_DATA_RDY
                0x9d064790       0x28 build/default/debug/_ext/792872985/db_appio.o
                0x9d064790                DB_APPIO_DATA_RDY

.text._FlashMediaInit
                0x9d0647b8       0x28
 .text._FlashMediaInit
                0x9d0647b8       0x28 build/default/debug/_ext/792872985/drv_media.o

.text.DHCPServerDisable
                0x9d0647e0       0x28
 .text.DHCPServerDisable
                0x9d0647e0       0x28 build/default/debug/_ext/427700826/dhcps.o
                0x9d0647e0                DHCPServerDisable

.text.DHCPServerEnable
                0x9d064808       0x28
 .text.DHCPServerEnable
                0x9d064808       0x28 build/default/debug/_ext/427700826/dhcps.o
                0x9d064808                DHCPServerEnable

.text.DHCPServerIsEnabled
                0x9d064830       0x28
 .text.DHCPServerIsEnabled
                0x9d064830       0x28 build/default/debug/_ext/427700826/dhcps.o
                0x9d064830                DHCPServerIsEnabled

.text.EthPhyMIIMClock
                0x9d064858       0x28
 .text.EthPhyMIIMClock
                0x9d064858       0x28 build/default/debug/_ext/427700826/eth_pic32_ext_phy_dp83848.o
                0x9d064858                EthPhyMIIMClock

.text.SetSleepNeeded
                0x9d064880       0x28
 .text.SetSleepNeeded
                0x9d064880       0x28 build/default/debug/_ext/334706090/wf_power_save.o
                0x9d064880                SetSleepNeeded

.text.mrf24w_MACGetTxBaseAddr
                0x9d0648a8       0x28
 .text.mrf24w_MACGetTxBaseAddr
                0x9d0648a8       0x28 build/default/debug/_ext/334706090/mrf24w_mac_pic32.o

.text.WF_OutputConnectionContext
                0x9d0648d0       0x28
 .text.WF_OutputConnectionContext
                0x9d0648d0       0x28 build/default/debug/_ext/334706090/wf_debug_output.o
                0x9d0648d0                WF_OutputConnectionContext

.text.SetDhcpProgressState
                0x9d0648f8       0x28
 .text.SetDhcpProgressState
                0x9d0648f8       0x28 build/default/debug/_ext/334706090/wf_driver_com_24g.o
                0x9d0648f8                SetDhcpProgressState

.text.SignalMgmtConfirmReceivedEvent
                0x9d064920       0x28
 .text.SignalMgmtConfirmReceivedEvent
                0x9d064920       0x28 build/default/debug/_ext/334706090/wf_mgmt_msg_24g.o
                0x9d064920                SignalMgmtConfirmReceivedEvent

.text.WiFiMemory_write
                0x9d064948       0x28
 .text.WiFiMemory_write
                0x9d064948       0x28 build/default/debug/_ext/334706090/wf_configData.o
                0x9d064948                WiFiMemory_write

.text.WiFiMemory_read
                0x9d064970       0x28
 .text.WiFiMemory_read
                0x9d064970       0x28 build/default/debug/_ext/334706090/wf_configData.o
                0x9d064970                WiFiMemory_read

.text.INTClearFlag
                0x9d064998       0x28
 .text.INTClearFlag
                0x9d064998       0x28 c:/program files/microchip/xc32/v1.21/bin/../lib/gcc/pic32mx/4.5.2/../../../../pic32mx/lib/size\libmchp_peripheral_32MX795F512L.a(int_tbl_lib.o)
                0x9d064998                INTClearFlag

.text.EthPhyMIIMAddress
                0x9d0649c0       0x24
 .text.EthPhyMIIMAddress
                0x9d0649c0       0x24 build/default/debug/_ext/427700826/eth_pic32_ext_phy_dp83848.o
                0x9d0649c0                EthPhyMIIMAddress

.text.SMTPClientDeInit
                0x9d0649e4       0x24
 .text.SMTPClientDeInit
                0x9d0649e4       0x24 build/default/debug/_ext/427700826/smtp.o
                0x9d0649e4                SMTPClientDeInit

.text.TCPSocketsNo
                0x9d064a08       0x24
 .text.TCPSocketsNo
                0x9d064a08       0x24 build/default/debug/_ext/427700826/tcp.o
                0x9d064a08                TCPSocketsNo

.text.TCPIP_STACK_GetDefaultNet
                0x9d064a2c       0x24
 .text.TCPIP_STACK_GetDefaultNet
                0x9d064a2c       0x24 build/default/debug/_ext/427700826/tcpip_manager.o
                0x9d064a2c                TCPIP_STACK_GetDefaultNet

.text.TCPIP_STACK_NetworksNo
                0x9d064a50       0x24
 .text.TCPIP_STACK_NetworksNo
                0x9d064a50       0x24 build/default/debug/_ext/427700826/tcpip_manager.o
                0x9d064a50                TCPIP_STACK_NetworksNo

.text.TCPIP_IPERF_Deinitialize
                0x9d064a74       0x24
 .text.TCPIP_IPERF_Deinitialize
                0x9d064a74       0x24 build/default/debug/_ext/427700826/iperf.o
                0x9d064a74                TCPIP_IPERF_Deinitialize

.text.zcll_rand
                0x9d064a98       0x24
 .text.zcll_rand
                0x9d064a98       0x24 build/default/debug/_ext/427700826/zero_conf_link_local.o

.text.GetEventNotificationMask
                0x9d064abc       0x24
 .text.GetEventNotificationMask
                0x9d064abc       0x24 build/default/debug/_ext/334706090/wf_connection_algorithm.o
                0x9d064abc                GetEventNotificationMask

.text.WFisConnected
                0x9d064ae0       0x24
 .text.WFisConnected
                0x9d064ae0       0x24 build/default/debug/_ext/334706090/wf_connection_manager.o
                0x9d064ae0                WFisConnected

.text.GetWiFiNetworkType
                0x9d064b04       0x24
 .text.GetWiFiNetworkType
                0x9d064b04       0x24 build/default/debug/_ext/334706090/wf_connection_profile.o
                0x9d064b04                GetWiFiNetworkType

.text.WifiAsyncClearAllEvents
                0x9d064b28       0x24
 .text.WifiAsyncClearAllEvents
                0x9d064b28       0x24 build/default/debug/_ext/334706090/wf_event_handler.o
                0x9d064b28                WifiAsyncClearAllEvents

.text.WF_ConfigDataSave
                0x9d064b4c       0x24
 .text.WF_ConfigDataSave
                0x9d064b4c       0x24 build/default/debug/_ext/334706090/wf_init.o
                0x9d064b4c                WF_ConfigDataSave

.text.isSleepNeeded
                0x9d064b70       0x24
 .text.isSleepNeeded
                0x9d064b70       0x24 build/default/debug/_ext/334706090/wf_power_save.o
                0x9d064b70                isSleepNeeded

.text.ClearSleepNeeded
                0x9d064b94       0x24
 .text.ClearSleepNeeded
                0x9d064b94       0x24 build/default/debug/_ext/334706090/wf_power_save.o
                0x9d064b94                ClearSleepNeeded

.text.GetAppPowerSaveMode
                0x9d064bb8       0x24
 .text.GetAppPowerSaveMode
                0x9d064bb8       0x24 build/default/debug/_ext/334706090/wf_power_save.o
                0x9d064bb8                GetAppPowerSaveMode

.text.InitPowerSaveTask
                0x9d064bdc       0x24
 .text.InitPowerSaveTask
                0x9d064bdc       0x24 build/default/debug/_ext/334706090/wf_driver_com_24g.o
                0x9d064bdc                InitPowerSaveTask

.text.isDhcpInProgress
                0x9d064c00       0x24
 .text.isDhcpInProgress
                0x9d064c00       0x24 build/default/debug/_ext/334706090/wf_driver_com_24g.o

.text.GetReadPtrRawWindow
                0x9d064c24       0x24
 .text.GetReadPtrRawWindow
                0x9d064c24       0x24 build/default/debug/_ext/334706090/wf_mac_24g.o
                0x9d064c24                GetReadPtrRawWindow

.text.GetNetworkConfig
                0x9d064c48       0x24
 .text.GetNetworkConfig
                0x9d064c48       0x24 build/default/debug/_ext/334706090/wf_mac_24g.o
                0x9d064c48                GetNetworkConfig

.text.MRF24W_MACGetReadPtrInRx
                0x9d064c6c       0x24
 .text.MRF24W_MACGetReadPtrInRx
                0x9d064c6c       0x24 build/default/debug/_ext/334706090/wf_mac_24g.o
                0x9d064c6c                MRF24W_MACGetReadPtrInRx

.text.HTTPPrint_lcdtext
                0x9d064c90       0x24
 .text.HTTPPrint_lcdtext
                0x9d064c90       0x24 build/default/debug/_ext/1472/custom_http_app.o
                0x9d064c90                HTTPPrint_lcdtext

.text.HTTPPrint_ddns_user
                0x9d064cb4       0x24
 .text.HTTPPrint_ddns_user
                0x9d064cb4       0x24 build/default/debug/_ext/1472/custom_http_app.o
                0x9d064cb4                HTTPPrint_ddns_user

.text.HTTPPrint_ddns_pass
                0x9d064cd8       0x24
 .text.HTTPPrint_ddns_pass
                0x9d064cd8       0x24 build/default/debug/_ext/1472/custom_http_app.o
                0x9d064cd8                HTTPPrint_ddns_pass

.text.HTTPPrint_ddns_host
                0x9d064cfc       0x24
 .text.HTTPPrint_ddns_host
                0x9d064cfc       0x24 build/default/debug/_ext/1472/custom_http_app.o
                0x9d064cfc                HTTPPrint_ddns_host

.text._snprintf_cdnopsuxX
                0x9d064d20       0x24
 .text._snprintf_cdnopsuxX
                0x9d064d20       0x24 c:/program files/microchip/xc32/v1.21/bin/../lib/gcc/pic32mx/4.5.2/../../../../pic32mx/lib/size\libc.a(snprintf_cdnopsuxX.eo)
                0x9d064d20                _snprintf_cdnopsuxX

.text.SetEapSecurity
                0x9d064d44       0x20
 .text.SetEapSecurity
                0x9d064d44       0x20 build/default/debug/_ext/334706090/wf_connect.o

.text.MRF24W_MACPowerDown
                0x9d064d64       0x20
 .text.MRF24W_MACPowerDown
                0x9d064d64       0x20 build/default/debug/_ext/334706090/wf_mac_24g.o
                0x9d064d64                MRF24W_MACPowerDown

.text.MRF24W_MACPowerUp
                0x9d064d84       0x20
 .text.MRF24W_MACPowerUp
                0x9d064d84       0x20 build/default/debug/_ext/334706090/wf_mac_24g.o
                0x9d064d84                MRF24W_MACPowerUp

.text.SpiChnReadC
                0x9d064da4       0x20
 .text.SpiChnReadC
                0x9d064da4       0x20 c:/program files/microchip/xc32/v1.21/bin/../lib/gcc/pic32mx/4.5.2/../../../../pic32mx/lib/size\libmchp_peripheral_32MX795F512L.a(spi_chn_getc_lib.o)
                0x9d064da4                SpiChnReadC

.text.SpiChnWriteC
                0x9d064dc4       0x20
 .text.SpiChnWriteC
                0x9d064dc4       0x20 c:/program files/microchip/xc32/v1.21/bin/../lib/gcc/pic32mx/4.5.2/../../../../pic32mx/lib/size\libmchp_peripheral_32MX795F512L.a(spi_chn_putc_lib.o)
                0x9d064dc4                SpiChnWriteC

.text.SpiChnTxBuffEmpty
                0x9d064de4       0x20
 .text.SpiChnTxBuffEmpty
                0x9d064de4       0x20 c:/program files/microchip/xc32/v1.21/bin/../lib/gcc/pic32mx/4.5.2/../../../../pic32mx/lib/size\libmchp_peripheral_32MX795F512L.a(spi_chn_tx_buff_empty_lib.o)
                0x9d064de4                SpiChnTxBuffEmpty

.text.EthRxAcknowledgeBuffer
                0x9d064e04       0x1c
 .text.EthRxAcknowledgeBuffer
                0x9d064e04       0x1c c:/program files/microchip/xc32/v1.21/bin/../lib/gcc/pic32mx/4.5.2/../../../../pic32mx/lib/size\libmchp_peripheral_32MX795F512L.a(eth_ack_packet_lib.o)
                0x9d064e04                EthRxAcknowledgeBuffer

.text.INTRestoreInterrupts
                0x9d064e20       0x1c
 .text.INTRestoreInterrupts
                0x9d064e20       0x1c c:/program files/microchip/xc32/v1.21/bin/../lib/gcc/pic32mx/4.5.2/../../../../pic32mx/lib/size\libmchp_peripheral_32MX795F512L.a(int_restore_interrupts_lib.o)
                0x9d064e20                INTRestoreInterrupts

.text.free      0x9d064e3c       0x1c
 .text.free     0x9d064e3c       0x1c c:/program files/microchip/xc32/v1.21/bin/../lib/gcc/pic32mx/4.5.2/../../../../pic32mx/lib/size\libc.a(malloc.o)
                0x9d064e3c                free

.text.srand     0x9d064e58       0x1c
 .text.srand    0x9d064e58       0x1c c:/program files/microchip/xc32/v1.21/bin/../lib/gcc/pic32mx/4.5.2/../../../../pic32mx/lib/size\libc.a(rand.o)
                0x9d064e58                srand

.text.SYS_Reboot
                0x9d064e74       0x18
 .text.SYS_Reboot
                0x9d064e74       0x18 build/default/debug/_ext/365611741/system_services.o
                0x9d064e74                SYS_Reboot

.text.EthRxFiltersHTSet
                0x9d064e8c       0x18
 .text.EthRxFiltersHTSet
                0x9d064e8c       0x18 c:/program files/microchip/xc32/v1.21/bin/../lib/gcc/pic32mx/4.5.2/../../../../pic32mx/lib/size\libmchp_peripheral_32MX795F512L.a(eth_rx_filters_lib.o)
                0x9d064e8c                EthRxFiltersHTSet

.text.CheKseg0CacheOn
                0x9d064ea4       0x18
 .text.CheKseg0CacheOn
                0x9d064ea4       0x18 c:/program files/microchip/xc32/v1.21/bin/../lib/gcc/pic32mx/4.5.2/../../../../pic32mx/lib/size\libmchp_peripheral_32MX795F512L.a(pcache.o)
                0x9d064ea4                CheKseg0CacheOn

.text           0x9d064ebc       0x18
 .text          0x9d064ebc       0x18 c:/program files/microchip/xc32/v1.21/bin/../lib/gcc/pic32mx/4.5.2/../../../../pic32mx/lib/size\libpic32.a(default-nmi-handler.o)
                0x9d064ebc                _nmi_handler

.rodata         0x9d064ed4       0x14
 .rodata        0x9d064ed4       0x14 c:/program files/microchip/xc32/v1.21/bin/../lib/gcc/pic32mx/4.5.2/../../../../pic32mx/lib/size\libmchp_peripheral_32MX795F512L.a(spi_map_tbl_libp.o)
                0x9d064ed4                _SpiMapTbl

.text._buffree  0x9d064ee8       0x14
 .text._buffree
                0x9d064ee8       0x14 c:/program files/microchip/xc32/v1.21/bin/../lib/gcc/pic32mx/4.5.2/../../../../pic32mx/lib/size\libc.a(buf.o)
                0x9d064ee8                _buffree

.rodata         0x9d064efc       0x20
 .rodata        0x9d064efc       0x10 build/default/debug/_ext/97638081/mpfs2.o
 .rodata        0x9d064f0c       0x10 build/default/debug/_ext/427700826/dhcp.o

.text.EthEventsEnableSet
                0x9d064f1c       0x10
 .text.EthEventsEnableSet
                0x9d064f1c       0x10 c:/program files/microchip/xc32/v1.21/bin/../lib/gcc/pic32mx/4.5.2/../../../../pic32mx/lib/size\libmchp_peripheral_32MX795F512L.a(eth_events_lib.o)
                0x9d064f1c                EthEventsEnableSet

.text.EthEventsEnableClr
                0x9d064f2c       0x10
 .text.EthEventsEnableClr
                0x9d064f2c       0x10 c:/program files/microchip/xc32/v1.21/bin/../lib/gcc/pic32mx/4.5.2/../../../../pic32mx/lib/size\libmchp_peripheral_32MX795F512L.a(eth_events_lib.o)
                0x9d064f2c                EthEventsEnableClr

.text.EthRxFiltersSet
                0x9d064f3c       0x10
 .text.EthRxFiltersSet
                0x9d064f3c       0x10 c:/program files/microchip/xc32/v1.21/bin/../lib/gcc/pic32mx/4.5.2/../../../../pic32mx/lib/size\libmchp_peripheral_32MX795F512L.a(eth_rx_filters_lib.o)
                0x9d064f3c                EthRxFiltersSet

.text.EthRxFiltersClr
                0x9d064f4c       0x10
 .text.EthRxFiltersClr
                0x9d064f4c       0x10 c:/program files/microchip/xc32/v1.21/bin/../lib/gcc/pic32mx/4.5.2/../../../../pic32mx/lib/size\libmchp_peripheral_32MX795F512L.a(eth_rx_filters_lib.o)
                0x9d064f4c                EthRxFiltersClr

.rodata         0x9d064f5c       0x1c
 .rodata        0x9d064f5c       0x10 c:/program files/microchip/xc32/v1.21/bin/../lib/gcc/pic32mx/4.5.2/../../../../pic32mx/lib/size\libmchp_peripheral_32MX795F512L.a(eth_miim_access.o)
 .rodata        0x9d064f6c        0xc build/default/debug/_ext/427700826/mac_events_pic32.o

.text.OpenCoreTimer
                0x9d064f78        0xc
 .text.OpenCoreTimer
                0x9d064f78        0xc c:/program files/microchip/xc32/v1.21/bin/../lib/gcc/pic32mx/4.5.2/../../../../pic32mx/lib/size\libmchp_peripheral.a(open_core_timer_lib.o)
                0x9d064f78                OpenCoreTimer

.text._bootstrap_exception_handler
                0x9d064f84        0xc
 .text._bootstrap_exception_handler
                0x9d064f84        0xc c:/program files/microchip/xc32/v1.21/bin/../lib/gcc/pic32mx/4.5.2/../../../../pic32mx/lib/size\libpic32.a(default-bootstrap-exception-handler.o)
                0x9d064f84                _bootstrap_exception_handler

.text.INTDisableInterrupts
                0x9d064f90        0x8
 .text.INTDisableInterrupts
                0x9d064f90        0x8 c:/program files/microchip/xc32/v1.21/bin/../lib/gcc/pic32mx/4.5.2/../../../../pic32mx/lib/size\libmchp_peripheral_32MX795F512L.a(int_disable_interrupts_lib.o)
                0x9d064f90                INTDisableInterrupts

.text.INTEnableInterrupts
                0x9d064f98        0x8
 .text.INTEnableInterrupts
                0x9d064f98        0x8 c:/program files/microchip/xc32/v1.21/bin/../lib/gcc/pic32mx/4.5.2/../../../../pic32mx/lib/size\libmchp_peripheral_32MX795F512L.a(int_enable_interrupts_lib.o)
                0x9d064f98                INTEnableInterrupts

.text._on_reset
                0x9d064fa0        0x8
 .text._on_reset
                0x9d064fa0        0x8 c:/program files/microchip/xc32/v1.21/bin/../lib/gcc/pic32mx/4.5.2/../../../../pic32mx/lib/size\libpic32.a(default-on-reset.o)
                0x9d064fa0                _on_reset

.text._on_bootstrap
                0x9d064fa8        0x8
 .text._on_bootstrap
                0x9d064fa8        0x8 c:/program files/microchip/xc32/v1.21/bin/../lib/gcc/pic32mx/4.5.2/../../../../pic32mx/lib/size\libpic32.a(default-on-bootstrap.o)
                0x9d064fa8                _on_bootstrap

.rodata         0x9d064fb0        0xc
 .rodata        0x9d064fb0        0x8 c:/program files/microchip/xc32/v1.21/bin/../lib/gcc/pic32mx/4.5.2/size\libgcc.a(_floatundisf.o)
 .rodata        0x9d064fb8        0x4 build/default/debug/_ext/427700826/tcpip_announce.o
